
./obj/main.elf：     文件格式 elf32-loongarch
./obj/main.elf


Disassembly of section .text:

1c000000 <_start>:
kernel_entry():
1c000000:	02bffc0c 	addi.w	$r12,$r0,-1(0xfff)
1c000004:	02bffc0c 	addi.w	$r12,$r0,-1(0xfff)
1c000008:	50016000 	b	352(0x160) # 1c000168 <locate>
1c00000c:	1500000c 	lu12i.w	$r12,-524288(0x80000)
1c000010:	028005ad 	addi.w	$r13,$r13,1(0x1)
1c000014:	0015018e 	move	$r14,$r12
1c000018:	00104a2f 	add.w	$r15,$r17,$r18
1c00001c:	28800190 	ld.w	$r16,$r12,0
	...
1c0000ec:	1500000c 	lu12i.w	$r12,-524288(0x80000)
1c0000f0:	028005ad 	addi.w	$r13,$r13,1(0x1)
1c0000f4:	0015018e 	move	$r14,$r12
1c0000f8:	00104a2f 	add.w	$r15,$r17,$r18
1c0000fc:	28800190 	ld.w	$r16,$r12,0

1c000100 <test_finish>:
test_finish():
1c000100:	0280058c 	addi.w	$r12,$r12,1(0x1)
1c000104:	157f600e 	lu12i.w	$r14,-263424(0xbfb00)
1c000108:	02bc41ce 	addi.w	$r14,$r14,-240(0xf10)
1c00010c:	298001c0 	st.w	$r0,$r14,0
1c000110:	50000000 	b	0 # 1c000110 <test_finish+0x10>
1c000114:	50003c00 	b	60(0x3c) # 1c000150 <test_finish+0x50>
	...
1c000150:	002b0011 	syscall	0x11
1c000154:	1500000c 	lu12i.w	$r12,-524288(0x80000)
1c000158:	028005ad 	addi.w	$r13,$r13,1(0x1)
1c00015c:	0015018e 	move	$r14,$r12
1c000160:	00104a2f 	add.w	$r15,$r17,$r18
1c000164:	28800190 	ld.w	$r16,$r12,0

1c000168 <locate>:
locate():
1c000168:	157f5fe4 	lu12i.w	$r4,-263425(0xbfaff)
1c00016c:	02810084 	addi.w	$r4,$r4,64(0x40)
1c000170:	157f5fe5 	lu12i.w	$r5,-263425(0xbfaff)
1c000174:	0280c0a5 	addi.w	$r5,$r5,48(0x30)
1c000178:	157f5fe6 	lu12i.w	$r6,-263425(0xbfaff)
1c00017c:	028080c6 	addi.w	$r6,$r6,32(0x20)
1c000180:	157f5ff8 	lu12i.w	$r24,-263425(0xbfaff)
1c000184:	02814318 	addi.w	$r24,$r24,80(0x50)
1c000188:	1400000d 	lu12i.w	$r13,0
1c00018c:	028009ad 	addi.w	$r13,$r13,2(0x2)
1c000190:	1400000e 	lu12i.w	$r14,0
1c000194:	028005ce 	addi.w	$r14,$r14,1(0x1)
1c000198:	1400020f 	lu12i.w	$r15,16(0x10)
1c00019c:	02bffdef 	addi.w	$r15,$r15,-1(0xfff)
1c0001a0:	1400001a 	lu12i.w	$r26,0
1c0001a4:	2980008d 	st.w	$r13,$r4,0
1c0001a8:	298000ae 	st.w	$r14,$r5,0
1c0001ac:	298000cf 	st.w	$r15,$r6,0
1c0001b0:	2980031a 	st.w	$r26,$r24,0
1c0001b4:	14000017 	lu12i.w	$r23,0

1c0001b8 <inst_test>:
inst_test():
1c0001b8:	549ae800 	bl	39656(0x9ae8) # 1c009ca0 <n1_lu12i_w_test>
1c0001bc:	54010400 	bl	260(0x104) # 1c0002c0 <idle_1s>
1c0001c0:	5474d000 	bl	29904(0x74d0) # 1c007690 <n2_add_w_test>
1c0001c4:	5400fc00 	bl	252(0xfc) # 1c0002c0 <idle_1s>
1c0001c8:	546a9800 	bl	27288(0x6a98) # 1c006c60 <n3_addi_w_test>
1c0001cc:	5400f400 	bl	244(0xf4) # 1c0002c0 <idle_1s>
1c0001d0:	54297000 	bl	10608(0x2970) # 1c002b40 <n4_sub_w_test>
1c0001d4:	5400ec00 	bl	236(0xec) # 1c0002c0 <idle_1s>
1c0001d8:	5481b800 	bl	33208(0x81b8) # 1c008390 <n5_slt_test>
1c0001dc:	5400e400 	bl	228(0xe4) # 1c0002c0 <idle_1s>
1c0001e0:	5405e000 	bl	1504(0x5e0) # 1c0007c0 <n6_sltu_test>
1c0001e4:	5400dc00 	bl	220(0xdc) # 1c0002c0 <idle_1s>
1c0001e8:	5422d800 	bl	8920(0x22d8) # 1c0024c0 <n7_and_test>
1c0001ec:	5400d400 	bl	212(0xd4) # 1c0002c0 <idle_1s>
1c0001f0:	5464b000 	bl	25776(0x64b0) # 1c0066a0 <n8_or_test>
1c0001f4:	5400cc00 	bl	204(0xcc) # 1c0002c0 <idle_1s>
1c0001f8:	548eb800 	bl	36536(0x8eb8) # 1c0090b0 <n9_xor_test>
1c0001fc:	5400c400 	bl	196(0xc4) # 1c0002c0 <idle_1s>
1c000200:	5442d800 	bl	17112(0x42d8) # 1c0044d8 <n10_nor_test>
1c000204:	5400bc00 	bl	188(0xbc) # 1c0002c0 <idle_1s>
1c000208:	54944800 	bl	37960(0x9448) # 1c009650 <n11_slli_w_test>
1c00020c:	5400b400 	bl	180(0xb4) # 1c0002c0 <idle_1s>
1c000210:	5470b800 	bl	28856(0x70b8) # 1c0072c8 <n12_srli_w_test>
1c000214:	5400ac00 	bl	172(0xac) # 1c0002c0 <idle_1s>
1c000218:	5449e000 	bl	18912(0x49e0) # 1c004bf8 <n13_srai_w_test>
1c00021c:	5400a400 	bl	164(0xa4) # 1c0002c0 <idle_1s>
1c000220:	545ae000 	bl	23264(0x5ae0) # 1c005d00 <n14_ld_w_test>
1c000224:	54009c00 	bl	156(0x9c) # 1c0002c0 <idle_1s>
1c000228:	54b9c000 	bl	47552(0xb9c0) # 1c00bbe8 <n15_st_w_test>
1c00022c:	54009400 	bl	148(0x94) # 1c0002c0 <idle_1s>
1c000230:	540c9000 	bl	3216(0xc90) # 1c000ec0 <n16_beq_test>
1c000234:	54008c00 	bl	140(0x8c) # 1c0002c0 <idle_1s>
1c000238:	54340800 	bl	13320(0x3408) # 1c003640 <n17_bne_test>
1c00023c:	54008400 	bl	132(0x84) # 1c0002c0 <idle_1s>
1c000240:	5482f000 	bl	33520(0x82f0) # 1c008530 <n18_bl_test>
1c000244:	54007c00 	bl	124(0x7c) # 1c0002c0 <idle_1s>
1c000248:	549e4800 	bl	40520(0x9e48) # 1c00a090 <n19_jirl_test>
1c00024c:	54007400 	bl	116(0x74) # 1c0002c0 <idle_1s>
1c000250:	544d7000 	bl	19824(0x4d70) # 1c004fc0 <n20_b_test>
1c000254:	54006c00 	bl	108(0x6c) # 1c0002c0 <idle_1s>

1c000258 <test_end>:
test_end():
1c000258:	14000017 	lu12i.w	$r23,0
1c00025c:	028052f7 	addi.w	$r23,$r23,20(0x14)
1c000260:	58003afa 	beq	$r23,$r26,56(0x38) # 1c000298 <test_end+0x40>
1c000264:	157f5fe4 	lu12i.w	$r4,-263425(0xbfaff)
1c000268:	02808084 	addi.w	$r4,$r4,32(0x20)
1c00026c:	157f5fe5 	lu12i.w	$r5,-263425(0xbfaff)
1c000270:	028100a5 	addi.w	$r5,$r5,64(0x40)
1c000274:	157f5fe6 	lu12i.w	$r6,-263425(0xbfaff)
1c000278:	0280c0c6 	addi.w	$r6,$r6,48(0x30)
1c00027c:	1400000d 	lu12i.w	$r13,0
1c000280:	028009ad 	addi.w	$r13,$r13,2(0x2)
1c000284:	29800080 	st.w	$r0,$r4,0
1c000288:	298000ad 	st.w	$r13,$r5,0
1c00028c:	298000cd 	st.w	$r13,$r6,0
1c000290:	03800404 	ori	$r4,$r0,0x1
1c000294:	50002800 	b	40(0x28) # 1c0002bc <test_end+0x64>
1c000298:	1400000d 	lu12i.w	$r13,0
1c00029c:	028005ad 	addi.w	$r13,$r13,1(0x1)
1c0002a0:	157f5fe4 	lu12i.w	$r4,-263425(0xbfaff)
1c0002a4:	02810084 	addi.w	$r4,$r4,64(0x40)
1c0002a8:	157f5fe5 	lu12i.w	$r5,-263425(0xbfaff)
1c0002ac:	0280c0a5 	addi.w	$r5,$r5,48(0x30)
1c0002b0:	2980008d 	st.w	$r13,$r4,0
1c0002b4:	298000ad 	st.w	$r13,$r5,0
1c0002b8:	00150004 	move	$r4,$r0
1c0002bc:	57fe47ff 	bl	-444(0xffffe44) # 1c000100 <test_finish>

1c0002c0 <idle_1s>:
idle_1s():
1c0002c0:	157f5fec 	lu12i.w	$r12,-263425(0xbfaff)
1c0002c4:	0282418c 	addi.w	$r12,$r12,144(0x90)
1c0002c8:	1400016d 	lu12i.w	$r13,11(0xb)
1c0002cc:	02aaa9ad 	addi.w	$r13,$r13,-1366(0xaaa)
1c0002d0:	2880018e 	ld.w	$r14,$r12,0
1c0002d4:	0015b5ce 	xor	$r14,$r14,$r13
1c0002d8:	0040a5cf 	slli.w	$r15,$r14,0x9
1c0002dc:	028005ef 	addi.w	$r15,$r15,1(0x1)

1c0002e0 <sub1>:
sub1():
1c0002e0:	02bffdef 	addi.w	$r15,$r15,-1(0xfff)
1c0002e4:	2880018e 	ld.w	$r14,$r12,0
1c0002e8:	0015b5ce 	xor	$r14,$r14,$r13
1c0002ec:	0040a5ce 	slli.w	$r14,$r14,0x9
1c0002f0:	0012b9f0 	sltu	$r16,$r15,$r14
1c0002f4:	5c000a00 	bne	$r16,$r0,8(0x8) # 1c0002fc <sub1+0x1c>
1c0002f8:	028001cf 	addi.w	$r15,$r14,0
1c0002fc:	5fffe5e0 	bne	$r15,$r0,-28(0x3ffe4) # 1c0002e0 <sub1>
1c000300:	4c000020 	jirl	$r0,$r1,0
1c000304:	00000000 	0x00000000

1c000308 <test4_init>:
test4_init():
1c000308:	04000420 	csrwr	$r0,0x1
1c00030c:	04001820 	csrwr	$r0,0x6
1c000310:	04003020 	csrwr	$r0,0xc
1c000314:	1438010c 	lu12i.w	$r12,114696(0x1c008)
1c000318:	0400302c 	csrwr	$r12,0xc
1c00031c:	4c000020 	jirl	$r0,$r1,0

1c000320 <test5_init>:
test5_init():
1c000320:	04000420 	csrwr	$r0,0x1
1c000324:	04001820 	csrwr	$r0,0x6
1c000328:	04003020 	csrwr	$r0,0xc
1c00032c:	04001c20 	csrwr	$r0,0x7
1c000330:	0400c020 	csrwr	$r0,0x30
1c000334:	0400c420 	csrwr	$r0,0x31
1c000338:	0400c820 	csrwr	$r0,0x32
1c00033c:	0400cc20 	csrwr	$r0,0x33
1c000340:	04010420 	csrwr	$r0,0x41
1c000344:	1438010c 	lu12i.w	$r12,114696(0x1c008)
1c000348:	0400302c 	csrwr	$r12,0xc
1c00034c:	4c000020 	jirl	$r0,$r1,0

1c000350 <test6_init>:
test6_init():
1c000350:	04000420 	csrwr	$r0,0x1
1c000354:	04001820 	csrwr	$r0,0x6
1c000358:	04003020 	csrwr	$r0,0xc
1c00035c:	04001c20 	csrwr	$r0,0x7
1c000360:	0400c020 	csrwr	$r0,0x30
1c000364:	0400c420 	csrwr	$r0,0x31
1c000368:	0400c820 	csrwr	$r0,0x32
1c00036c:	0400cc20 	csrwr	$r0,0x33
1c000370:	04010420 	csrwr	$r0,0x41
1c000374:	04004020 	csrwr	$r0,0x10
1c000378:	04004420 	csrwr	$r0,0x11
1c00037c:	04004820 	csrwr	$r0,0x12
1c000380:	04004c20 	csrwr	$r0,0x13
1c000384:	04006020 	csrwr	$r0,0x18
1c000388:	04022020 	csrwr	$r0,0x88
1c00038c:	0015000c 	move	$r12,$r0
1c000390:	03800c0d 	ori	$r13,$r0,0x3
1c000394:	040001ac 	csrxchg	$r12,$r13,0x0
1c000398:	4c000020 	jirl	$r0,$r1,0
1c00039c:	03400000 	andi	$r0,$r0,0x0

1c0003a0 <test8_init>:
test8_init():
1c0003a0:	04000420 	csrwr	$r0,0x1
1c0003a4:	04001820 	csrwr	$r0,0x6
1c0003a8:	04003020 	csrwr	$r0,0xc
1c0003ac:	04001c20 	csrwr	$r0,0x7
1c0003b0:	0400c020 	csrwr	$r0,0x30
1c0003b4:	0400c420 	csrwr	$r0,0x31
1c0003b8:	0400c820 	csrwr	$r0,0x32
1c0003bc:	0400cc20 	csrwr	$r0,0x33
1c0003c0:	04010420 	csrwr	$r0,0x41
1c0003c4:	04004020 	csrwr	$r0,0x10
1c0003c8:	04004420 	csrwr	$r0,0x11
1c0003cc:	04004820 	csrwr	$r0,0x12
1c0003d0:	04004c20 	csrwr	$r0,0x13
1c0003d4:	04006020 	csrwr	$r0,0x18
1c0003d8:	04022020 	csrwr	$r0,0x88
1c0003dc:	0380200c 	ori	$r12,$r0,0x8
1c0003e0:	0380600d 	ori	$r13,$r0,0x18
1c0003e4:	040001ac 	csrxchg	$r12,$r13,0x0
1c0003e8:	04060020 	csrwr	$r0,0x180
1c0003ec:	04060420 	csrwr	$r0,0x181
1c0003f0:	4c000020 	jirl	$r0,$r1,0
1c0003f4:	03400000 	andi	$r0,$r0,0x0

1c0003f8 <tlb_init>:
tlb_init():
1c0003f8:	1418000c 	lu12i.w	$r12,49152(0xc000)
1c0003fc:	1400020e 	lu12i.w	$r14,16(0x10)
1c000400:	1400004f 	lu12i.w	$r15,2(0x2)
1c000404:	00103dcd 	add.w	$r13,$r14,$r15
1c000408:	0382a80e 	ori	$r14,$r0,0xaa
1c00040c:	0400602e 	csrwr	$r14,0x18
1c000410:	14006950 	lu12i.w	$r16,842(0x34a)
1c000414:	03ac0210 	ori	$r16,$r16,0xb00
1c000418:	1401ff51 	lu12i.w	$r17,4090(0xffa)
1c00041c:	03ac0231 	ori	$r17,$r17,0xb00
1c000420:	0280018e 	addi.w	$r14,$r12,0
1c000424:	028001af 	addi.w	$r15,$r13,0
1c000428:	0400402e 	csrwr	$r14,0x10
1c00042c:	0400442f 	csrwr	$r15,0x11
1c000430:	04004830 	csrwr	$r16,0x12
1c000434:	04004c31 	csrwr	$r17,0x13
1c000438:	06483000 	tlbwr
1c00043c:	0280058c 	addi.w	$r12,$r12,1(0x1)
1c000440:	14000051 	lu12i.w	$r17,2(0x2)
1c000444:	001045ad 	add.w	$r13,$r13,$r17
1c000448:	14006b50 	lu12i.w	$r16,858(0x35a)
1c00044c:	03ac0210 	ori	$r16,$r16,0xb00
1c000450:	14020151 	lu12i.w	$r17,4106(0x100a)
1c000454:	03ac0231 	ori	$r17,$r17,0xb00
1c000458:	0280018e 	addi.w	$r14,$r12,0
1c00045c:	028001af 	addi.w	$r15,$r13,0
1c000460:	0400402e 	csrwr	$r14,0x10
1c000464:	0400442f 	csrwr	$r15,0x11
1c000468:	04004830 	csrwr	$r16,0x12
1c00046c:	04004c31 	csrwr	$r17,0x13
1c000470:	06483000 	tlbwr
1c000474:	0280058c 	addi.w	$r12,$r12,1(0x1)
1c000478:	14000051 	lu12i.w	$r17,2(0x2)
1c00047c:	001045ad 	add.w	$r13,$r13,$r17
1c000480:	14006d50 	lu12i.w	$r16,874(0x36a)
1c000484:	03ac0210 	ori	$r16,$r16,0xb00
1c000488:	14020351 	lu12i.w	$r17,4122(0x101a)
1c00048c:	03ac0231 	ori	$r17,$r17,0xb00
1c000490:	0280018e 	addi.w	$r14,$r12,0
1c000494:	028001af 	addi.w	$r15,$r13,0
1c000498:	0400402e 	csrwr	$r14,0x10
1c00049c:	0400442f 	csrwr	$r15,0x11
1c0004a0:	04004830 	csrwr	$r16,0x12
1c0004a4:	04004c31 	csrwr	$r17,0x13
1c0004a8:	06483000 	tlbwr
1c0004ac:	0280058c 	addi.w	$r12,$r12,1(0x1)
1c0004b0:	14000051 	lu12i.w	$r17,2(0x2)
1c0004b4:	001045ad 	add.w	$r13,$r13,$r17
1c0004b8:	14006f50 	lu12i.w	$r16,890(0x37a)
1c0004bc:	03ac0210 	ori	$r16,$r16,0xb00
1c0004c0:	14020551 	lu12i.w	$r17,4138(0x102a)
1c0004c4:	03ac0231 	ori	$r17,$r17,0xb00
1c0004c8:	0280018e 	addi.w	$r14,$r12,0
1c0004cc:	028001af 	addi.w	$r15,$r13,0
1c0004d0:	0400402e 	csrwr	$r14,0x10
1c0004d4:	0400442f 	csrwr	$r15,0x11
1c0004d8:	04004830 	csrwr	$r16,0x12
1c0004dc:	04004c31 	csrwr	$r17,0x13
1c0004e0:	06483000 	tlbwr
1c0004e4:	0280058c 	addi.w	$r12,$r12,1(0x1)
1c0004e8:	14000051 	lu12i.w	$r17,2(0x2)
1c0004ec:	001045ad 	add.w	$r13,$r13,$r17
1c0004f0:	0382ac0e 	ori	$r14,$r0,0xab
1c0004f4:	0400602e 	csrwr	$r14,0x18
1c0004f8:	14007150 	lu12i.w	$r16,906(0x38a)
1c0004fc:	03ac0210 	ori	$r16,$r16,0xb00
1c000500:	14020751 	lu12i.w	$r17,4154(0x103a)
1c000504:	03ac0231 	ori	$r17,$r17,0xb00
1c000508:	0280018e 	addi.w	$r14,$r12,0
1c00050c:	028001af 	addi.w	$r15,$r13,0
1c000510:	0400402e 	csrwr	$r14,0x10
1c000514:	0400442f 	csrwr	$r15,0x11
1c000518:	04004830 	csrwr	$r16,0x12
1c00051c:	04004c31 	csrwr	$r17,0x13
1c000520:	06483000 	tlbwr
1c000524:	0280058c 	addi.w	$r12,$r12,1(0x1)
1c000528:	14000051 	lu12i.w	$r17,2(0x2)
1c00052c:	001045ad 	add.w	$r13,$r13,$r17
1c000530:	14007350 	lu12i.w	$r16,922(0x39a)
1c000534:	03ac0210 	ori	$r16,$r16,0xb00
1c000538:	14020951 	lu12i.w	$r17,4170(0x104a)
1c00053c:	03ac0231 	ori	$r17,$r17,0xb00
1c000540:	0280018e 	addi.w	$r14,$r12,0
1c000544:	028001af 	addi.w	$r15,$r13,0
1c000548:	0400402e 	csrwr	$r14,0x10
1c00054c:	0400442f 	csrwr	$r15,0x11
1c000550:	04004830 	csrwr	$r16,0x12
1c000554:	04004c31 	csrwr	$r17,0x13
1c000558:	06483000 	tlbwr
1c00055c:	0280058c 	addi.w	$r12,$r12,1(0x1)
1c000560:	14000051 	lu12i.w	$r17,2(0x2)
1c000564:	001045ad 	add.w	$r13,$r13,$r17
1c000568:	14007550 	lu12i.w	$r16,938(0x3aa)
1c00056c:	03ac0210 	ori	$r16,$r16,0xb00
1c000570:	1401ff51 	lu12i.w	$r17,4090(0xffa)
1c000574:	03ac0231 	ori	$r17,$r17,0xb00
1c000578:	0280018e 	addi.w	$r14,$r12,0
1c00057c:	028001af 	addi.w	$r15,$r13,0
1c000580:	0400402e 	csrwr	$r14,0x10
1c000584:	0400442f 	csrwr	$r15,0x11
1c000588:	04004830 	csrwr	$r16,0x12
1c00058c:	04004c31 	csrwr	$r17,0x13
1c000590:	06483000 	tlbwr
1c000594:	0280058c 	addi.w	$r12,$r12,1(0x1)
1c000598:	14000051 	lu12i.w	$r17,2(0x2)
1c00059c:	001045ad 	add.w	$r13,$r13,$r17
1c0005a0:	14026950 	lu12i.w	$r16,4938(0x134a)
1c0005a4:	03ac0210 	ori	$r16,$r16,0xb00
1c0005a8:	1403ff51 	lu12i.w	$r17,8186(0x1ffa)
1c0005ac:	03ac0231 	ori	$r17,$r17,0xb00
1c0005b0:	0280018e 	addi.w	$r14,$r12,0
1c0005b4:	028001af 	addi.w	$r15,$r13,0
1c0005b8:	0400402e 	csrwr	$r14,0x10
1c0005bc:	0400442f 	csrwr	$r15,0x11
1c0005c0:	04004830 	csrwr	$r16,0x12
1c0005c4:	04004c31 	csrwr	$r17,0x13
1c0005c8:	06483000 	tlbwr
1c0005cc:	0280058c 	addi.w	$r12,$r12,1(0x1)
1c0005d0:	14000051 	lu12i.w	$r17,2(0x2)
1c0005d4:	001045ad 	add.w	$r13,$r13,$r17
1c0005d8:	0382b00e 	ori	$r14,$r0,0xac
1c0005dc:	0400602e 	csrwr	$r14,0x18
1c0005e0:	141c6950 	lu12i.w	$r16,58186(0xe34a)
1c0005e4:	03ac0210 	ori	$r16,$r16,0xb00
1c0005e8:	141dff51 	lu12i.w	$r17,61434(0xeffa)
1c0005ec:	03ac0231 	ori	$r17,$r17,0xb00
1c0005f0:	0280018e 	addi.w	$r14,$r12,0
1c0005f4:	028001af 	addi.w	$r15,$r13,0
1c0005f8:	0400402e 	csrwr	$r14,0x10
1c0005fc:	0400442f 	csrwr	$r15,0x11
1c000600:	04004830 	csrwr	$r16,0x12
1c000604:	04004c31 	csrwr	$r17,0x13
1c000608:	06483000 	tlbwr
1c00060c:	0280058c 	addi.w	$r12,$r12,1(0x1)
1c000610:	14000051 	lu12i.w	$r17,2(0x2)
1c000614:	001045ad 	add.w	$r13,$r13,$r17
1c000618:	141e6950 	lu12i.w	$r16,62282(0xf34a)
1c00061c:	03ac0210 	ori	$r16,$r16,0xb00
1c000620:	141fff51 	lu12i.w	$r17,65530(0xfffa)
1c000624:	03ac0231 	ori	$r17,$r17,0xb00
1c000628:	0280018e 	addi.w	$r14,$r12,0
1c00062c:	028001af 	addi.w	$r15,$r13,0
1c000630:	0400402e 	csrwr	$r14,0x10
1c000634:	0400442f 	csrwr	$r15,0x11
1c000638:	04004830 	csrwr	$r16,0x12
1c00063c:	04004c31 	csrwr	$r17,0x13
1c000640:	06483000 	tlbwr
1c000644:	0280058c 	addi.w	$r12,$r12,1(0x1)
1c000648:	14000051 	lu12i.w	$r17,2(0x2)
1c00064c:	001045ad 	add.w	$r13,$r13,$r17
1c000650:	14069570 	lu12i.w	$r16,13483(0x34ab)
1c000654:	03840210 	ori	$r16,$r16,0x100
1c000658:	141ff571 	lu12i.w	$r17,65451(0xffab)
1c00065c:	03840231 	ori	$r17,$r17,0x100
1c000660:	0280018e 	addi.w	$r14,$r12,0
1c000664:	028001af 	addi.w	$r15,$r13,0
1c000668:	0400402e 	csrwr	$r14,0x10
1c00066c:	0400442f 	csrwr	$r15,0x11
1c000670:	04004830 	csrwr	$r16,0x12
1c000674:	04004c31 	csrwr	$r17,0x13
1c000678:	06483000 	tlbwr
1c00067c:	0280058c 	addi.w	$r12,$r12,1(0x1)
1c000680:	14000051 	lu12i.w	$r17,2(0x2)
1c000684:	001045ad 	add.w	$r13,$r13,$r17
1c000688:	14069570 	lu12i.w	$r16,13483(0x34ab)
1c00068c:	03880210 	ori	$r16,$r16,0x200
1c000690:	141ff571 	lu12i.w	$r17,65451(0xffab)
1c000694:	03880231 	ori	$r17,$r17,0x200
1c000698:	0280018e 	addi.w	$r14,$r12,0
1c00069c:	028001af 	addi.w	$r15,$r13,0
1c0006a0:	0400402e 	csrwr	$r14,0x10
1c0006a4:	0400442f 	csrwr	$r15,0x11
1c0006a8:	04004830 	csrwr	$r16,0x12
1c0006ac:	04004c31 	csrwr	$r17,0x13
1c0006b0:	06483000 	tlbwr
1c0006b4:	0280058c 	addi.w	$r12,$r12,1(0x1)
1c0006b8:	14000051 	lu12i.w	$r17,2(0x2)
1c0006bc:	001045ad 	add.w	$r13,$r13,$r17
1c0006c0:	0382b40e 	ori	$r14,$r0,0xad
1c0006c4:	0400602e 	csrwr	$r14,0x18
1c0006c8:	14069570 	lu12i.w	$r16,13483(0x34ab)
1c0006cc:	03a50210 	ori	$r16,$r16,0x940
1c0006d0:	141ff571 	lu12i.w	$r17,65451(0xffab)
1c0006d4:	03a50231 	ori	$r17,$r17,0x940
1c0006d8:	0280018e 	addi.w	$r14,$r12,0
1c0006dc:	028001af 	addi.w	$r15,$r13,0
1c0006e0:	0400402e 	csrwr	$r14,0x10
1c0006e4:	0400442f 	csrwr	$r15,0x11
1c0006e8:	04004830 	csrwr	$r16,0x12
1c0006ec:	04004c31 	csrwr	$r17,0x13
1c0006f0:	06483000 	tlbwr
1c0006f4:	0280058c 	addi.w	$r12,$r12,1(0x1)
1c0006f8:	14000051 	lu12i.w	$r17,2(0x2)
1c0006fc:	001045ad 	add.w	$r13,$r13,$r17
1c000700:	14069570 	lu12i.w	$r16,13483(0x34ab)
1c000704:	03a90210 	ori	$r16,$r16,0xa40
1c000708:	141ff571 	lu12i.w	$r17,65451(0xffab)
1c00070c:	03a90231 	ori	$r17,$r17,0xa40
1c000710:	0280018e 	addi.w	$r14,$r12,0
1c000714:	028001af 	addi.w	$r15,$r13,0
1c000718:	0400402e 	csrwr	$r14,0x10
1c00071c:	0400442f 	csrwr	$r15,0x11
1c000720:	04004830 	csrwr	$r16,0x12
1c000724:	04004c31 	csrwr	$r17,0x13
1c000728:	06483000 	tlbwr
1c00072c:	0280058c 	addi.w	$r12,$r12,1(0x1)
1c000730:	14000051 	lu12i.w	$r17,2(0x2)
1c000734:	001045ad 	add.w	$r13,$r13,$r17
1c000738:	14069570 	lu12i.w	$r16,13483(0x34ab)
1c00073c:	039d0210 	ori	$r16,$r16,0x740
1c000740:	141ff571 	lu12i.w	$r17,65451(0xffab)
1c000744:	039d0231 	ori	$r17,$r17,0x740
1c000748:	0280018e 	addi.w	$r14,$r12,0
1c00074c:	028001af 	addi.w	$r15,$r13,0
1c000750:	0400402e 	csrwr	$r14,0x10
1c000754:	0400442f 	csrwr	$r15,0x11
1c000758:	04004830 	csrwr	$r16,0x12
1c00075c:	04004c31 	csrwr	$r17,0x13
1c000760:	06483000 	tlbwr
1c000764:	0280058c 	addi.w	$r12,$r12,1(0x1)
1c000768:	14000051 	lu12i.w	$r17,2(0x2)
1c00076c:	001045ad 	add.w	$r13,$r13,$r17
1c000770:	14069570 	lu12i.w	$r16,13483(0x34ab)
1c000774:	03a10210 	ori	$r16,$r16,0x840
1c000778:	141ff571 	lu12i.w	$r17,65451(0xffab)
1c00077c:	03a10231 	ori	$r17,$r17,0x840
1c000780:	0280018e 	addi.w	$r14,$r12,0
1c000784:	028001af 	addi.w	$r15,$r13,0
1c000788:	0400402e 	csrwr	$r14,0x10
1c00078c:	0400442f 	csrwr	$r15,0x11
1c000790:	04004830 	csrwr	$r16,0x12
1c000794:	04004c31 	csrwr	$r17,0x13
1c000798:	06483000 	tlbwr
1c00079c:	0280058c 	addi.w	$r12,$r12,1(0x1)
1c0007a0:	14000051 	lu12i.w	$r17,2(0x2)
1c0007a4:	001045ad 	add.w	$r13,$r13,$r17
1c0007a8:	04004420 	csrwr	$r0,0x11
1c0007ac:	04004820 	csrwr	$r0,0x12
1c0007b0:	04004c20 	csrwr	$r0,0x13
1c0007b4:	04004020 	csrwr	$r0,0x10
1c0007b8:	4c000020 	jirl	$r0,$r1,0
1c0007bc:	03400000 	andi	$r0,$r0,0x0

1c0007c0 <n6_sltu_test>:
n6_sltu_test():
1c0007c0:	028006f7 	addi.w	$r23,$r23,1(0x1)
1c0007c4:	00150019 	move	$r25,$r0
1c0007c8:	142b1e6c 	lu12i.w	$r12,88307(0x158f3)
1c0007cc:	02aca58c 	addi.w	$r12,$r12,-1239(0xb29)
1c0007d0:	1484382d 	lu12i.w	$r13,270785(0x421c1)
1c0007d4:	02a909ad 	addi.w	$r13,$r13,-1470(0xa42)
1c0007d8:	1400000b 	lu12i.w	$r11,0
1c0007dc:	0280056b 	addi.w	$r11,$r11,1(0x1)
1c0007e0:	0012b58a 	sltu	$r10,$r12,$r13
1c0007e4:	5c06cd4b 	bne	$r10,$r11,1740(0x6cc) # 1c000eb0 <inst_error>
1c0007e8:	14c0688c 	lu12i.w	$r12,394052(0x60344)
1c0007ec:	02afe18c 	addi.w	$r12,$r12,-1032(0xbf8)
1c0007f0:	15ba2f6d 	lu12i.w	$r13,-142981(0xdd17b)
1c0007f4:	028c29ad 	addi.w	$r13,$r13,778(0x30a)
1c0007f8:	1400000b 	lu12i.w	$r11,0
1c0007fc:	0280056b 	addi.w	$r11,$r11,1(0x1)
1c000800:	0012b58a 	sltu	$r10,$r12,$r13
1c000804:	5c06ad4b 	bne	$r10,$r11,1708(0x6ac) # 1c000eb0 <inst_error>
1c000808:	145ab86c 	lu12i.w	$r12,185795(0x2d5c3)
1c00080c:	0286018c 	addi.w	$r12,$r12,384(0x180)
1c000810:	1429be8d 	lu12i.w	$r13,85492(0x14df4)
1c000814:	029c61ad 	addi.w	$r13,$r13,1816(0x718)
1c000818:	1400000b 	lu12i.w	$r11,0
1c00081c:	0280016b 	addi.w	$r11,$r11,0
1c000820:	0012b58a 	sltu	$r10,$r12,$r13
1c000824:	5c068d4b 	bne	$r10,$r11,1676(0x68c) # 1c000eb0 <inst_error>
1c000828:	14eac20c 	lu12i.w	$r12,480784(0x75610)
1c00082c:	02ae018c 	addi.w	$r12,$r12,-1152(0xb80)
1c000830:	1455302d 	lu12i.w	$r13,174465(0x2a981)
1c000834:	0292e5ad 	addi.w	$r13,$r13,1209(0x4b9)
1c000838:	1400000b 	lu12i.w	$r11,0
1c00083c:	0280016b 	addi.w	$r11,$r11,0
1c000840:	0012b58a 	sltu	$r10,$r12,$r13
1c000844:	5c066d4b 	bne	$r10,$r11,1644(0x66c) # 1c000eb0 <inst_error>
1c000848:	1594c0ec 	lu12i.w	$r12,-219641(0xca607)
1c00084c:	02a4018c 	addi.w	$r12,$r12,-1792(0x900)
1c000850:	15282cad 	lu12i.w	$r13,-442011(0x94165)
1c000854:	02b4e9ad 	addi.w	$r13,$r13,-710(0xd3a)
1c000858:	1400000b 	lu12i.w	$r11,0
1c00085c:	0280016b 	addi.w	$r11,$r11,0
1c000860:	0012b58a 	sltu	$r10,$r12,$r13
1c000864:	5c064d4b 	bne	$r10,$r11,1612(0x64c) # 1c000eb0 <inst_error>
1c000868:	15be9c6c 	lu12i.w	$r12,-133917(0xdf4e3)
1c00086c:	02af018c 	addi.w	$r12,$r12,-1088(0xbc0)
1c000870:	146f7aad 	lu12i.w	$r13,228309(0x37bd5)
1c000874:	028965ad 	addi.w	$r13,$r13,601(0x259)
1c000878:	1400000b 	lu12i.w	$r11,0
1c00087c:	0280016b 	addi.w	$r11,$r11,0
1c000880:	0012b58a 	sltu	$r10,$r12,$r13
1c000884:	5c062d4b 	bne	$r10,$r11,1580(0x62c) # 1c000eb0 <inst_error>
1c000888:	15ace3ac 	lu12i.w	$r12,-170211(0xd671d)
1c00088c:	0299418c 	addi.w	$r12,$r12,1616(0x650)
1c000890:	15f3494d 	lu12i.w	$r13,-26038(0xf9a4a)
1c000894:	02bc41ad 	addi.w	$r13,$r13,-240(0xf10)
1c000898:	1400000b 	lu12i.w	$r11,0
1c00089c:	0280056b 	addi.w	$r11,$r11,1(0x1)
1c0008a0:	0012b58a 	sltu	$r10,$r12,$r13
1c0008a4:	5c060d4b 	bne	$r10,$r11,1548(0x60c) # 1c000eb0 <inst_error>
1c0008a8:	153cc68c 	lu12i.w	$r12,-399820(0x9e634)
1c0008ac:	0287818c 	addi.w	$r12,$r12,480(0x1e0)
1c0008b0:	14c38e0d 	lu12i.w	$r13,400496(0x61c70)
1c0008b4:	0284c1ad 	addi.w	$r13,$r13,304(0x130)
1c0008b8:	1400000b 	lu12i.w	$r11,0
1c0008bc:	0280016b 	addi.w	$r11,$r11,0
1c0008c0:	0012b58a 	sltu	$r10,$r12,$r13
1c0008c4:	5c05ed4b 	bne	$r10,$r11,1516(0x5ec) # 1c000eb0 <inst_error>
1c0008c8:	14fc25cc 	lu12i.w	$r12,516398(0x7e12e)
1c0008cc:	0292bd8c 	addi.w	$r12,$r12,1199(0x4af)
1c0008d0:	154ff52d 	lu12i.w	$r13,-360535(0xa7fa9)
1c0008d4:	028801ad 	addi.w	$r13,$r13,512(0x200)
1c0008d8:	1400000b 	lu12i.w	$r11,0
1c0008dc:	0280056b 	addi.w	$r11,$r11,1(0x1)
1c0008e0:	0012b58a 	sltu	$r10,$r12,$r13
1c0008e4:	5c05cd4b 	bne	$r10,$r11,1484(0x5cc) # 1c000eb0 <inst_error>
1c0008e8:	1449a42c 	lu12i.w	$r12,150817(0x24d21)
1c0008ec:	02a4218c 	addi.w	$r12,$r12,-1784(0x908)
1c0008f0:	15cfff2d 	lu12i.w	$r13,-98311(0xe7ff9)
1c0008f4:	028481ad 	addi.w	$r13,$r13,288(0x120)
1c0008f8:	1400000b 	lu12i.w	$r11,0
1c0008fc:	0280056b 	addi.w	$r11,$r11,1(0x1)
1c000900:	0012b58a 	sltu	$r10,$r12,$r13
1c000904:	5c05ad4b 	bne	$r10,$r11,1452(0x5ac) # 1c000eb0 <inst_error>
1c000908:	15e93acc 	lu12i.w	$r12,-46634(0xf49d6)
1c00090c:	02be998c 	addi.w	$r12,$r12,-90(0xfa6)
1c000910:	154f366d 	lu12i.w	$r13,-362061(0xa79b3)
1c000914:	02b0b9ad 	addi.w	$r13,$r13,-978(0xc2e)
1c000918:	1400000b 	lu12i.w	$r11,0
1c00091c:	0280016b 	addi.w	$r11,$r11,0
1c000920:	0012b58a 	sltu	$r10,$r12,$r13
1c000924:	5c058d4b 	bne	$r10,$r11,1420(0x58c) # 1c000eb0 <inst_error>
1c000928:	151ff94c 	lu12i.w	$r12,-458806(0x8ffca)
1c00092c:	02a9018c 	addi.w	$r12,$r12,-1472(0xa40)
1c000930:	144f54cd 	lu12i.w	$r13,162470(0x27aa6)
1c000934:	029fa1ad 	addi.w	$r13,$r13,2024(0x7e8)
1c000938:	1400000b 	lu12i.w	$r11,0
1c00093c:	0280016b 	addi.w	$r11,$r11,0
1c000940:	0012b58a 	sltu	$r10,$r12,$r13
1c000944:	5c056d4b 	bne	$r10,$r11,1388(0x56c) # 1c000eb0 <inst_error>
1c000948:	14c1988c 	lu12i.w	$r12,396484(0x60cc4)
1c00094c:	02a8fd8c 	addi.w	$r12,$r12,-1473(0xa3f)
1c000950:	14f1bfad 	lu12i.w	$r13,495101(0x78dfd)
1c000954:	02bec1ad 	addi.w	$r13,$r13,-80(0xfb0)
1c000958:	1400000b 	lu12i.w	$r11,0
1c00095c:	0280056b 	addi.w	$r11,$r11,1(0x1)
1c000960:	0012b58a 	sltu	$r10,$r12,$r13
1c000964:	5c054d4b 	bne	$r10,$r11,1356(0x54c) # 1c000eb0 <inst_error>
1c000968:	14f7cdec 	lu12i.w	$r12,507503(0x7be6f)
1c00096c:	02a2c18c 	addi.w	$r12,$r12,-1872(0x8b0)
1c000970:	1539e6ed 	lu12i.w	$r13,-405705(0x9cf37)
1c000974:	02a7a9ad 	addi.w	$r13,$r13,-1558(0x9ea)
1c000978:	1400000b 	lu12i.w	$r11,0
1c00097c:	0280056b 	addi.w	$r11,$r11,1(0x1)
1c000980:	0012b58a 	sltu	$r10,$r12,$r13
1c000984:	5c052d4b 	bne	$r10,$r11,1324(0x52c) # 1c000eb0 <inst_error>
1c000988:	14b0d68c 	lu12i.w	$r12,362164(0x586b4)
1c00098c:	0285418c 	addi.w	$r12,$r12,336(0x150)
1c000990:	1595690d 	lu12i.w	$r13,-218296(0xcab48)
1c000994:	028229ad 	addi.w	$r13,$r13,138(0x8a)
1c000998:	1400000b 	lu12i.w	$r11,0
1c00099c:	0280056b 	addi.w	$r11,$r11,1(0x1)
1c0009a0:	0012b58a 	sltu	$r10,$r12,$r13
1c0009a4:	5c050d4b 	bne	$r10,$r11,1292(0x50c) # 1c000eb0 <inst_error>
1c0009a8:	1468cfec 	lu12i.w	$r12,214655(0x3467f)
1c0009ac:	02b2018c 	addi.w	$r12,$r12,-896(0xc80)
1c0009b0:	15f6ee2d 	lu12i.w	$r13,-18575(0xfb771)
1c0009b4:	028011ad 	addi.w	$r13,$r13,4(0x4)
1c0009b8:	1400000b 	lu12i.w	$r11,0
1c0009bc:	0280056b 	addi.w	$r11,$r11,1(0x1)
1c0009c0:	0012b58a 	sltu	$r10,$r12,$r13
1c0009c4:	5c04ed4b 	bne	$r10,$r11,1260(0x4ec) # 1c000eb0 <inst_error>
1c0009c8:	15d64ecc 	lu12i.w	$r12,-85386(0xeb276)
1c0009cc:	02b3018c 	addi.w	$r12,$r12,-832(0xcc0)
1c0009d0:	1416060d 	lu12i.w	$r13,45104(0xb030)
1c0009d4:	029681ad 	addi.w	$r13,$r13,1440(0x5a0)
1c0009d8:	1400000b 	lu12i.w	$r11,0
1c0009dc:	0280016b 	addi.w	$r11,$r11,0
1c0009e0:	0012b58a 	sltu	$r10,$r12,$r13
1c0009e4:	5c04cd4b 	bne	$r10,$r11,1228(0x4cc) # 1c000eb0 <inst_error>
1c0009e8:	14c6fccc 	lu12i.w	$r12,407526(0x637e6)
1c0009ec:	02bd998c 	addi.w	$r12,$r12,-154(0xf66)
1c0009f0:	155563ed 	lu12i.w	$r13,-349409(0xaab1f)
1c0009f4:	02aac9ad 	addi.w	$r13,$r13,-1358(0xab2)
1c0009f8:	1400000b 	lu12i.w	$r11,0
1c0009fc:	0280056b 	addi.w	$r11,$r11,1(0x1)
1c000a00:	0012b58a 	sltu	$r10,$r12,$r13
1c000a04:	5c04ad4b 	bne	$r10,$r11,1196(0x4ac) # 1c000eb0 <inst_error>
1c000a08:	14cf99ac 	lu12i.w	$r12,425165(0x67ccd)
1c000a0c:	02a1418c 	addi.w	$r12,$r12,-1968(0x850)
1c000a10:	145a766d 	lu12i.w	$r13,185267(0x2d3b3)
1c000a14:	02ae51ad 	addi.w	$r13,$r13,-1132(0xb94)
1c000a18:	1400000b 	lu12i.w	$r11,0
1c000a1c:	0280016b 	addi.w	$r11,$r11,0
1c000a20:	0012b58a 	sltu	$r10,$r12,$r13
1c000a24:	5c048d4b 	bne	$r10,$r11,1164(0x48c) # 1c000eb0 <inst_error>
1c000a28:	158c9c8c 	lu12i.w	$r12,-236316(0xc64e4)
1c000a2c:	029b9d8c 	addi.w	$r12,$r12,1767(0x6e7)
1c000a30:	145a8cad 	lu12i.w	$r13,185445(0x2d465)
1c000a34:	029b41ad 	addi.w	$r13,$r13,1744(0x6d0)
1c000a38:	1400000b 	lu12i.w	$r11,0
1c000a3c:	0280016b 	addi.w	$r11,$r11,0
1c000a40:	0012b58a 	sltu	$r10,$r12,$r13
1c000a44:	5c046d4b 	bne	$r10,$r11,1132(0x46c) # 1c000eb0 <inst_error>
1c000a48:	15bec30c 	lu12i.w	$r12,-133608(0xdf618)
1c000a4c:	0280018c 	addi.w	$r12,$r12,0
1c000a50:	15f61a2d 	lu12i.w	$r13,-20271(0xfb0d1)
1c000a54:	02b101ad 	addi.w	$r13,$r13,-960(0xc40)
1c000a58:	1400000b 	lu12i.w	$r11,0
1c000a5c:	0280056b 	addi.w	$r11,$r11,1(0x1)
1c000a60:	0012b58a 	sltu	$r10,$r12,$r13
1c000a64:	5c044d4b 	bne	$r10,$r11,1100(0x44c) # 1c000eb0 <inst_error>
1c000a68:	1543a3ec 	lu12i.w	$r12,-385761(0xa1d1f)
1c000a6c:	0283918c 	addi.w	$r12,$r12,228(0xe4)
1c000a70:	153c3aad 	lu12i.w	$r13,-400939(0x9e1d5)
1c000a74:	02a491ad 	addi.w	$r13,$r13,-1756(0x924)
1c000a78:	1400000b 	lu12i.w	$r11,0
1c000a7c:	0280016b 	addi.w	$r11,$r11,0
1c000a80:	0012b58a 	sltu	$r10,$r12,$r13
1c000a84:	5c042d4b 	bne	$r10,$r11,1068(0x42c) # 1c000eb0 <inst_error>
1c000a88:	15c2792c 	lu12i.w	$r12,-126007(0xe13c9)
1c000a8c:	028f318c 	addi.w	$r12,$r12,972(0x3cc)
1c000a90:	1512518d 	lu12i.w	$r13,-486772(0x8928c)
1c000a94:	0284f1ad 	addi.w	$r13,$r13,316(0x13c)
1c000a98:	1400000b 	lu12i.w	$r11,0
1c000a9c:	0280016b 	addi.w	$r11,$r11,0
1c000aa0:	0012b58a 	sltu	$r10,$r12,$r13
1c000aa4:	5c040d4b 	bne	$r10,$r11,1036(0x40c) # 1c000eb0 <inst_error>
1c000aa8:	15c9b56c 	lu12i.w	$r12,-111189(0xe4dab)
1c000aac:	028e018c 	addi.w	$r12,$r12,896(0x380)
1c000ab0:	148222cd 	lu12i.w	$r13,266518(0x41116)
1c000ab4:	0295f1ad 	addi.w	$r13,$r13,1404(0x57c)
1c000ab8:	1400000b 	lu12i.w	$r11,0
1c000abc:	0280016b 	addi.w	$r11,$r11,0
1c000ac0:	0012b58a 	sltu	$r10,$r12,$r13
1c000ac4:	5c03ed4b 	bne	$r10,$r11,1004(0x3ec) # 1c000eb0 <inst_error>
1c000ac8:	145f8e2c 	lu12i.w	$r12,195697(0x2fc71)
1c000acc:	0295e18c 	addi.w	$r12,$r12,1400(0x578)
1c000ad0:	14dc0f2d 	lu12i.w	$r13,450681(0x6e079)
1c000ad4:	02a2b1ad 	addi.w	$r13,$r13,-1876(0x8ac)
1c000ad8:	1400000b 	lu12i.w	$r11,0
1c000adc:	0280056b 	addi.w	$r11,$r11,1(0x1)
1c000ae0:	0012b58a 	sltu	$r10,$r12,$r13
1c000ae4:	5c03cd4b 	bne	$r10,$r11,972(0x3cc) # 1c000eb0 <inst_error>
1c000ae8:	15b57e8c 	lu12i.w	$r12,-152588(0xdabf4)
1c000aec:	02bf018c 	addi.w	$r12,$r12,-64(0xfc0)
1c000af0:	15ab4dad 	lu12i.w	$r13,-173459(0xd5a6d)
1c000af4:	02be71ad 	addi.w	$r13,$r13,-100(0xf9c)
1c000af8:	1400000b 	lu12i.w	$r11,0
1c000afc:	0280016b 	addi.w	$r11,$r11,0
1c000b00:	0012b58a 	sltu	$r10,$r12,$r13
1c000b04:	5c03ad4b 	bne	$r10,$r11,940(0x3ac) # 1c000eb0 <inst_error>
1c000b08:	15aba76c 	lu12i.w	$r12,-172741(0xd5d3b)
1c000b0c:	029c798c 	addi.w	$r12,$r12,1822(0x71e)
1c000b10:	146a16ad 	lu12i.w	$r13,217269(0x350b5)
1c000b14:	028359ad 	addi.w	$r13,$r13,214(0xd6)
1c000b18:	1400000b 	lu12i.w	$r11,0
1c000b1c:	0280016b 	addi.w	$r11,$r11,0
1c000b20:	0012b58a 	sltu	$r10,$r12,$r13
1c000b24:	5c038d4b 	bne	$r10,$r11,908(0x38c) # 1c000eb0 <inst_error>
1c000b28:	149a0b6c 	lu12i.w	$r12,315483(0x4d05b)
1c000b2c:	0290ad8c 	addi.w	$r12,$r12,1067(0x42b)
1c000b30:	14c0e9ad 	lu12i.w	$r13,395085(0x6074d)
1c000b34:	029d01ad 	addi.w	$r13,$r13,1856(0x740)
1c000b38:	1400000b 	lu12i.w	$r11,0
1c000b3c:	0280056b 	addi.w	$r11,$r11,1(0x1)
1c000b40:	0012b58a 	sltu	$r10,$r12,$r13
1c000b44:	5c036d4b 	bne	$r10,$r11,876(0x36c) # 1c000eb0 <inst_error>
1c000b48:	15b5c52c 	lu12i.w	$r12,-152023(0xdae29)
1c000b4c:	02a0018c 	addi.w	$r12,$r12,-2048(0x800)
1c000b50:	15e66c6d 	lu12i.w	$r13,-52381(0xf3363)
1c000b54:	02b1a1ad 	addi.w	$r13,$r13,-920(0xc68)
1c000b58:	1400000b 	lu12i.w	$r11,0
1c000b5c:	0280056b 	addi.w	$r11,$r11,1(0x1)
1c000b60:	0012b58a 	sltu	$r10,$r12,$r13
1c000b64:	5c034d4b 	bne	$r10,$r11,844(0x34c) # 1c000eb0 <inst_error>
1c000b68:	150f2f0c 	lu12i.w	$r12,-493192(0x87978)
1c000b6c:	02a2698c 	addi.w	$r12,$r12,-1894(0x89a)
1c000b70:	1590f84d 	lu12i.w	$r13,-227390(0xc87c2)
1c000b74:	02b8a1ad 	addi.w	$r13,$r13,-472(0xe28)
1c000b78:	1400000b 	lu12i.w	$r11,0
1c000b7c:	0280056b 	addi.w	$r11,$r11,1(0x1)
1c000b80:	0012b58a 	sltu	$r10,$r12,$r13
1c000b84:	5c032d4b 	bne	$r10,$r11,812(0x32c) # 1c000eb0 <inst_error>
1c000b88:	141d67cc 	lu12i.w	$r12,60222(0xeb3e)
1c000b8c:	0298218c 	addi.w	$r12,$r12,1544(0x608)
1c000b90:	148c548d 	lu12i.w	$r13,287396(0x462a4)
1c000b94:	029351ad 	addi.w	$r13,$r13,1236(0x4d4)
1c000b98:	1400000b 	lu12i.w	$r11,0
1c000b9c:	0280056b 	addi.w	$r11,$r11,1(0x1)
1c000ba0:	0012b58a 	sltu	$r10,$r12,$r13
1c000ba4:	5c030d4b 	bne	$r10,$r11,780(0x30c) # 1c000eb0 <inst_error>
1c000ba8:	156f6c0c 	lu12i.w	$r12,-296096(0xb7b60)
1c000bac:	02acc18c 	addi.w	$r12,$r12,-1232(0xb30)
1c000bb0:	14c5906d 	lu12i.w	$r13,404611(0x62c83)
1c000bb4:	029661ad 	addi.w	$r13,$r13,1432(0x598)
1c000bb8:	1400000b 	lu12i.w	$r11,0
1c000bbc:	0280016b 	addi.w	$r11,$r11,0
1c000bc0:	0012b58a 	sltu	$r10,$r12,$r13
1c000bc4:	5c02ed4b 	bne	$r10,$r11,748(0x2ec) # 1c000eb0 <inst_error>
1c000bc8:	14d46e6c 	lu12i.w	$r12,435059(0x6a373)
1c000bcc:	02bd018c 	addi.w	$r12,$r12,-192(0xf40)
1c000bd0:	14e487cd 	lu12i.w	$r13,468030(0x7243e)
1c000bd4:	02ac81ad 	addi.w	$r13,$r13,-1248(0xb20)
1c000bd8:	1400000b 	lu12i.w	$r11,0
1c000bdc:	0280056b 	addi.w	$r11,$r11,1(0x1)
1c000be0:	0012b58a 	sltu	$r10,$r12,$r13
1c000be4:	5c02cd4b 	bne	$r10,$r11,716(0x2cc) # 1c000eb0 <inst_error>
1c000be8:	15bdfd4c 	lu12i.w	$r12,-135190(0xdefea)
1c000bec:	02b2418c 	addi.w	$r12,$r12,-880(0xc90)
1c000bf0:	1565e32d 	lu12i.w	$r13,-315623(0xb2f19)
1c000bf4:	0289e1ad 	addi.w	$r13,$r13,632(0x278)
1c000bf8:	1400000b 	lu12i.w	$r11,0
1c000bfc:	0280016b 	addi.w	$r11,$r11,0
1c000c00:	0012b58a 	sltu	$r10,$r12,$r13
1c000c04:	5c02ad4b 	bne	$r10,$r11,684(0x2ac) # 1c000eb0 <inst_error>
1c000c08:	1515abcc 	lu12i.w	$r12,-479906(0x8ad5e)
1c000c0c:	02bea18c 	addi.w	$r12,$r12,-88(0xfa8)
1c000c10:	14abb48d 	lu12i.w	$r13,351652(0x55da4)
1c000c14:	029d01ad 	addi.w	$r13,$r13,1856(0x740)
1c000c18:	1400000b 	lu12i.w	$r11,0
1c000c1c:	0280016b 	addi.w	$r11,$r11,0
1c000c20:	0012b58a 	sltu	$r10,$r12,$r13
1c000c24:	5c028d4b 	bne	$r10,$r11,652(0x28c) # 1c000eb0 <inst_error>
1c000c28:	157748cc 	lu12i.w	$r12,-279994(0xbba46)
1c000c2c:	02a2098c 	addi.w	$r12,$r12,-1918(0x882)
1c000c30:	14677c4d 	lu12i.w	$r13,211938(0x33be2)
1c000c34:	029561ad 	addi.w	$r13,$r13,1368(0x558)
1c000c38:	1400000b 	lu12i.w	$r11,0
1c000c3c:	0280016b 	addi.w	$r11,$r11,0
1c000c40:	0012b58a 	sltu	$r10,$r12,$r13
1c000c44:	5c026d4b 	bne	$r10,$r11,620(0x26c) # 1c000eb0 <inst_error>
1c000c48:	15c2c8ec 	lu12i.w	$r12,-125369(0xe1647)
1c000c4c:	02ba418c 	addi.w	$r12,$r12,-368(0xe90)
1c000c50:	1590544d 	lu12i.w	$r13,-228702(0xc82a2)
1c000c54:	02bec1ad 	addi.w	$r13,$r13,-80(0xfb0)
1c000c58:	1400000b 	lu12i.w	$r11,0
1c000c5c:	0280016b 	addi.w	$r11,$r11,0
1c000c60:	0012b58a 	sltu	$r10,$r12,$r13
1c000c64:	5c024d4b 	bne	$r10,$r11,588(0x24c) # 1c000eb0 <inst_error>
1c000c68:	145165cc 	lu12i.w	$r12,166702(0x28b2e)
1c000c6c:	02aa018c 	addi.w	$r12,$r12,-1408(0xa80)
1c000c70:	1478f86d 	lu12i.w	$r13,247747(0x3c7c3)
1c000c74:	0281a9ad 	addi.w	$r13,$r13,106(0x6a)
1c000c78:	1400000b 	lu12i.w	$r11,0
1c000c7c:	0280056b 	addi.w	$r11,$r11,1(0x1)
1c000c80:	0012b58a 	sltu	$r10,$r12,$r13
1c000c84:	5c022d4b 	bne	$r10,$r11,556(0x22c) # 1c000eb0 <inst_error>
1c000c88:	1433382c 	lu12i.w	$r12,104897(0x199c1)
1c000c8c:	029bbd8c 	addi.w	$r12,$r12,1775(0x6ef)
1c000c90:	14ed7d4d 	lu12i.w	$r13,486378(0x76bea)
1c000c94:	02aa81ad 	addi.w	$r13,$r13,-1376(0xaa0)
1c000c98:	1400000b 	lu12i.w	$r11,0
1c000c9c:	0280056b 	addi.w	$r11,$r11,1(0x1)
1c000ca0:	0012b58a 	sltu	$r10,$r12,$r13
1c000ca4:	5c020d4b 	bne	$r10,$r11,524(0x20c) # 1c000eb0 <inst_error>
1c000ca8:	154cdaec 	lu12i.w	$r12,-366889(0xa66d7)
1c000cac:	028ff18c 	addi.w	$r12,$r12,1020(0x3fc)
1c000cb0:	157c5c8d 	lu12i.w	$r13,-269596(0xbe2e4)
1c000cb4:	02bd31ad 	addi.w	$r13,$r13,-180(0xf4c)
1c000cb8:	1400000b 	lu12i.w	$r11,0
1c000cbc:	0280056b 	addi.w	$r11,$r11,1(0x1)
1c000cc0:	0012b58a 	sltu	$r10,$r12,$r13
1c000cc4:	5c01ed4b 	bne	$r10,$r11,492(0x1ec) # 1c000eb0 <inst_error>
1c000cc8:	1500dcec 	lu12i.w	$r12,-522521(0x806e7)
1c000ccc:	0297818c 	addi.w	$r12,$r12,1504(0x5e0)
1c000cd0:	157d3a2d 	lu12i.w	$r13,-267823(0xbe9d1)
1c000cd4:	028c7dad 	addi.w	$r13,$r13,799(0x31f)
1c000cd8:	1400000b 	lu12i.w	$r11,0
1c000cdc:	0280056b 	addi.w	$r11,$r11,1(0x1)
1c000ce0:	0012b58a 	sltu	$r10,$r12,$r13
1c000ce4:	5c01cd4b 	bne	$r10,$r11,460(0x1cc) # 1c000eb0 <inst_error>
1c000ce8:	15994eac 	lu12i.w	$r12,-210315(0xcca75)
1c000cec:	0282b18c 	addi.w	$r12,$r12,172(0xac)
1c000cf0:	14bf4b8d 	lu12i.w	$r13,391772(0x5fa5c)
1c000cf4:	02b3c1ad 	addi.w	$r13,$r13,-784(0xcf0)
1c000cf8:	1400000b 	lu12i.w	$r11,0
1c000cfc:	0280016b 	addi.w	$r11,$r11,0
1c000d00:	0012b58a 	sltu	$r10,$r12,$r13
1c000d04:	5c01ad4b 	bne	$r10,$r11,428(0x1ac) # 1c000eb0 <inst_error>
1c000d08:	15d0b94c 	lu12i.w	$r12,-96822(0xe85ca)
1c000d0c:	02b5b18c 	addi.w	$r12,$r12,-660(0xd6c)
1c000d10:	143b082d 	lu12i.w	$r13,120897(0x1d841)
1c000d14:	029431ad 	addi.w	$r13,$r13,1292(0x50c)
1c000d18:	1400000b 	lu12i.w	$r11,0
1c000d1c:	0280016b 	addi.w	$r11,$r11,0
1c000d20:	0012b58a 	sltu	$r10,$r12,$r13
1c000d24:	5c018d4b 	bne	$r10,$r11,396(0x18c) # 1c000eb0 <inst_error>
1c000d28:	143dc8ac 	lu12i.w	$r12,126533(0x1ee45)
1c000d2c:	02b4218c 	addi.w	$r12,$r12,-760(0xd08)
1c000d30:	1566096d 	lu12i.w	$r13,-315317(0xb304b)
1c000d34:	028e41ad 	addi.w	$r13,$r13,912(0x390)
1c000d38:	1400000b 	lu12i.w	$r11,0
1c000d3c:	0280056b 	addi.w	$r11,$r11,1(0x1)
1c000d40:	0012b58a 	sltu	$r10,$r12,$r13
1c000d44:	5c016d4b 	bne	$r10,$r11,364(0x16c) # 1c000eb0 <inst_error>
1c000d48:	1425346c 	lu12i.w	$r12,76195(0x129a3)
1c000d4c:	02927d8c 	addi.w	$r12,$r12,1183(0x49f)
1c000d50:	14ebdead 	lu12i.w	$r13,483061(0x75ef5)
1c000d54:	02ab49ad 	addi.w	$r13,$r13,-1326(0xad2)
1c000d58:	1400000b 	lu12i.w	$r11,0
1c000d5c:	0280056b 	addi.w	$r11,$r11,1(0x1)
1c000d60:	0012b58a 	sltu	$r10,$r12,$r13
1c000d64:	5c014d4b 	bne	$r10,$r11,332(0x14c) # 1c000eb0 <inst_error>
1c000d68:	14d5708c 	lu12i.w	$r12,437124(0x6ab84)
1c000d6c:	0289e18c 	addi.w	$r12,$r12,632(0x278)
1c000d70:	15a245ad 	lu12i.w	$r13,-191955(0xd122d)
1c000d74:	02aeb1ad 	addi.w	$r13,$r13,-1108(0xbac)
1c000d78:	1400000b 	lu12i.w	$r11,0
1c000d7c:	0280056b 	addi.w	$r11,$r11,1(0x1)
1c000d80:	0012b58a 	sltu	$r10,$r12,$r13
1c000d84:	5c012d4b 	bne	$r10,$r11,300(0x12c) # 1c000eb0 <inst_error>
1c000d88:	14fcc78c 	lu12i.w	$r12,517692(0x7e63c)
1c000d8c:	02b8c18c 	addi.w	$r12,$r12,-464(0xe30)
1c000d90:	148392ad 	lu12i.w	$r13,269461(0x41c95)
1c000d94:	02b8d9ad 	addi.w	$r13,$r13,-458(0xe36)
1c000d98:	1400000b 	lu12i.w	$r11,0
1c000d9c:	0280016b 	addi.w	$r11,$r11,0
1c000da0:	0012b58a 	sltu	$r10,$r12,$r13
1c000da4:	5c010d4b 	bne	$r10,$r11,268(0x10c) # 1c000eb0 <inst_error>
1c000da8:	1400000c 	lu12i.w	$r12,0
1c000dac:	0280018c 	addi.w	$r12,$r12,0
1c000db0:	15b8076d 	lu12i.w	$r13,-147397(0xdc03b)
1c000db4:	029301ad 	addi.w	$r13,$r13,1216(0x4c0)
1c000db8:	1400000b 	lu12i.w	$r11,0
1c000dbc:	0280056b 	addi.w	$r11,$r11,1(0x1)
1c000dc0:	0012b58a 	sltu	$r10,$r12,$r13
1c000dc4:	5c00ed4b 	bne	$r10,$r11,236(0xec) # 1c000eb0 <inst_error>
1c000dc8:	1400000c 	lu12i.w	$r12,0
1c000dcc:	0280018c 	addi.w	$r12,$r12,0
1c000dd0:	145f514d 	lu12i.w	$r13,195210(0x2fa8a)
1c000dd4:	02a1b1ad 	addi.w	$r13,$r13,-1940(0x86c)
1c000dd8:	1400000b 	lu12i.w	$r11,0
1c000ddc:	0280056b 	addi.w	$r11,$r11,1(0x1)
1c000de0:	0012b58a 	sltu	$r10,$r12,$r13
1c000de4:	5c00cd4b 	bne	$r10,$r11,204(0xcc) # 1c000eb0 <inst_error>
1c000de8:	1400000c 	lu12i.w	$r12,0
1c000dec:	0280018c 	addi.w	$r12,$r12,0
1c000df0:	15da11ed 	lu12i.w	$r13,-77681(0xed08f)
1c000df4:	02a91dad 	addi.w	$r13,$r13,-1465(0xa47)
1c000df8:	1400000b 	lu12i.w	$r11,0
1c000dfc:	0280056b 	addi.w	$r11,$r11,1(0x1)
1c000e00:	0012b58a 	sltu	$r10,$r12,$r13
1c000e04:	5c00ad4b 	bne	$r10,$r11,172(0xac) # 1c000eb0 <inst_error>
1c000e08:	1400000c 	lu12i.w	$r12,0
1c000e0c:	0280018c 	addi.w	$r12,$r12,0
1c000e10:	1460c72d 	lu12i.w	$r13,198201(0x30639)
1c000e14:	028b31ad 	addi.w	$r13,$r13,716(0x2cc)
1c000e18:	1400000b 	lu12i.w	$r11,0
1c000e1c:	0280056b 	addi.w	$r11,$r11,1(0x1)
1c000e20:	0012b58a 	sltu	$r10,$r12,$r13
1c000e24:	5c008d4b 	bne	$r10,$r11,140(0x8c) # 1c000eb0 <inst_error>
1c000e28:	1400000c 	lu12i.w	$r12,0
1c000e2c:	0280018c 	addi.w	$r12,$r12,0
1c000e30:	15748dad 	lu12i.w	$r13,-285587(0xba46d)
1c000e34:	02a175ad 	addi.w	$r13,$r13,-1955(0x85d)
1c000e38:	1400000b 	lu12i.w	$r11,0
1c000e3c:	0280056b 	addi.w	$r11,$r11,1(0x1)
1c000e40:	0012b58a 	sltu	$r10,$r12,$r13
1c000e44:	5c006d4b 	bne	$r10,$r11,108(0x6c) # 1c000eb0 <inst_error>
1c000e48:	1400000c 	lu12i.w	$r12,0
1c000e4c:	0280018c 	addi.w	$r12,$r12,0
1c000e50:	140b3c6d 	lu12i.w	$r13,23011(0x59e3)
1c000e54:	02b6a1ad 	addi.w	$r13,$r13,-600(0xda8)
1c000e58:	1400000b 	lu12i.w	$r11,0
1c000e5c:	0280056b 	addi.w	$r11,$r11,1(0x1)
1c000e60:	0012b58a 	sltu	$r10,$r12,$r13
1c000e64:	5c004d4b 	bne	$r10,$r11,76(0x4c) # 1c000eb0 <inst_error>
1c000e68:	1400000c 	lu12i.w	$r12,0
1c000e6c:	0280018c 	addi.w	$r12,$r12,0
1c000e70:	1465e4ed 	lu12i.w	$r13,208679(0x32f27)
1c000e74:	029e11ad 	addi.w	$r13,$r13,1924(0x784)
1c000e78:	1400000b 	lu12i.w	$r11,0
1c000e7c:	0280056b 	addi.w	$r11,$r11,1(0x1)
1c000e80:	0012b58a 	sltu	$r10,$r12,$r13
1c000e84:	5c002d4b 	bne	$r10,$r11,44(0x2c) # 1c000eb0 <inst_error>
1c000e88:	1400000c 	lu12i.w	$r12,0
1c000e8c:	0280018c 	addi.w	$r12,$r12,0
1c000e90:	1400000d 	lu12i.w	$r13,0
1c000e94:	028001ad 	addi.w	$r13,$r13,0
1c000e98:	1400000b 	lu12i.w	$r11,0
1c000e9c:	0280016b 	addi.w	$r11,$r11,0
1c000ea0:	0012b58a 	sltu	$r10,$r12,$r13
1c000ea4:	5c000d4b 	bne	$r10,$r11,12(0xc) # 1c000eb0 <inst_error>
1c000ea8:	5c000b20 	bne	$r25,$r0,8(0x8) # 1c000eb0 <inst_error>
1c000eac:	0280075a 	addi.w	$r26,$r26,1(0x1)

1c000eb0 <inst_error>:
1c000eb0:	0040e2ed 	slli.w	$r13,$r23,0x18
1c000eb4:	001569ac 	or	$r12,$r13,$r26
1c000eb8:	2980030c 	st.w	$r12,$r24,0
1c000ebc:	4c000020 	jirl	$r0,$r1,0

1c000ec0 <n16_beq_test>:
n16_beq_test():
1c000ec0:	028006f7 	addi.w	$r23,$r23,1(0x1)
1c000ec4:	00150019 	move	$r25,$r0
1c000ec8:	141f62f0 	lu12i.w	$r16,64279(0xfb17)
1c000ecc:	02aa0210 	addi.w	$r16,$r16,-1408(0xa80)
1c000ed0:	15be44d1 	lu12i.w	$r17,-134618(0xdf226)
1c000ed4:	02b77231 	addi.w	$r17,$r17,-548(0xddc)
1c000ed8:	1400000a 	lu12i.w	$r10,0
1c000edc:	1400000b 	lu12i.w	$r11,0
1c000ee0:	50001400 	b	20(0x14) # 1c000ef4 <n16_beq_test+0x34>
1c000ee4:	141f62ea 	lu12i.w	$r10,64279(0xfb17)
1c000ee8:	02aa014a 	addi.w	$r10,$r10,-1408(0xa80)
1c000eec:	580021ac 	beq	$r13,$r12,32(0x20) # 1c000f0c <n16_beq_test+0x4c>
1c000ef0:	50002400 	b	36(0x24) # 1c000f14 <n16_beq_test+0x54>
1c000ef4:	14a5232c 	lu12i.w	$r12,338201(0x52919)
1c000ef8:	0281e18c 	addi.w	$r12,$r12,120(0x78)
1c000efc:	15028d0d 	lu12i.w	$r13,-519064(0x81468)
1c000f00:	029001ad 	addi.w	$r13,$r13,1024(0x400)
1c000f04:	5bffe18d 	beq	$r12,$r13,-32(0x3ffe0) # 1c000ee4 <n16_beq_test+0x24>
1c000f08:	50000c00 	b	12(0xc) # 1c000f14 <n16_beq_test+0x54>
1c000f0c:	15be44cb 	lu12i.w	$r11,-134618(0xdf226)
1c000f10:	02b7716b 	addi.w	$r11,$r11,-548(0xddc)
1c000f14:	1400001c 	lu12i.w	$r28,0
1c000f18:	0280039c 	addi.w	$r28,$r28,0
1c000f1c:	1400001d 	lu12i.w	$r29,0
1c000f20:	028003bd 	addi.w	$r29,$r29,0
1c000f24:	5c158d5c 	bne	$r10,$r28,5516(0x158c) # 1c0024b0 <inst_error>
1c000f28:	5c15897d 	bne	$r11,$r29,5512(0x1588) # 1c0024b0 <inst_error>
1c000f2c:	145fb590 	lu12i.w	$r16,196012(0x2fdac)
1c000f30:	029e4210 	addi.w	$r16,$r16,1936(0x790)
1c000f34:	15c94411 	lu12i.w	$r17,-112096(0xe4a20)
1c000f38:	028b4e31 	addi.w	$r17,$r17,723(0x2d3)
1c000f3c:	1400000a 	lu12i.w	$r10,0
1c000f40:	1400000b 	lu12i.w	$r11,0
1c000f44:	50001400 	b	20(0x14) # 1c000f58 <n16_beq_test+0x98>
1c000f48:	145fb58a 	lu12i.w	$r10,196012(0x2fdac)
1c000f4c:	029e414a 	addi.w	$r10,$r10,1936(0x790)
1c000f50:	580021ac 	beq	$r13,$r12,32(0x20) # 1c000f70 <n16_beq_test+0xb0>
1c000f54:	50002400 	b	36(0x24) # 1c000f78 <n16_beq_test+0xb8>
1c000f58:	1521b62c 	lu12i.w	$r12,-455247(0x90db1)
1c000f5c:	0293618c 	addi.w	$r12,$r12,1240(0x4d8)
1c000f60:	155034ed 	lu12i.w	$r13,-360025(0xa81a7)
1c000f64:	029001ad 	addi.w	$r13,$r13,1024(0x400)
1c000f68:	5bffe18d 	beq	$r12,$r13,-32(0x3ffe0) # 1c000f48 <n16_beq_test+0x88>
1c000f6c:	50000c00 	b	12(0xc) # 1c000f78 <n16_beq_test+0xb8>
1c000f70:	15c9440b 	lu12i.w	$r11,-112096(0xe4a20)
1c000f74:	028b4d6b 	addi.w	$r11,$r11,723(0x2d3)
1c000f78:	1400001c 	lu12i.w	$r28,0
1c000f7c:	0280039c 	addi.w	$r28,$r28,0
1c000f80:	1400001d 	lu12i.w	$r29,0
1c000f84:	028003bd 	addi.w	$r29,$r29,0
1c000f88:	5c15295c 	bne	$r10,$r28,5416(0x1528) # 1c0024b0 <inst_error>
1c000f8c:	5c15257d 	bne	$r11,$r29,5412(0x1524) # 1c0024b0 <inst_error>
1c000f90:	158c9590 	lu12i.w	$r16,-236372(0xc64ac)
1c000f94:	028d1210 	addi.w	$r16,$r16,836(0x344)
1c000f98:	15871dd1 	lu12i.w	$r17,-247570(0xc38ee)
1c000f9c:	02a68231 	addi.w	$r17,$r17,-1632(0x9a0)
1c000fa0:	1400000a 	lu12i.w	$r10,0
1c000fa4:	1400000b 	lu12i.w	$r11,0
1c000fa8:	50001400 	b	20(0x14) # 1c000fbc <n16_beq_test+0xfc>
1c000fac:	158c958a 	lu12i.w	$r10,-236372(0xc64ac)
1c000fb0:	028d114a 	addi.w	$r10,$r10,836(0x344)
1c000fb4:	580021ac 	beq	$r13,$r12,32(0x20) # 1c000fd4 <n16_beq_test+0x114>
1c000fb8:	50002400 	b	36(0x24) # 1c000fdc <n16_beq_test+0x11c>
1c000fbc:	157943ec 	lu12i.w	$r12,-275937(0xbca1f)
1c000fc0:	02baa18c 	addi.w	$r12,$r12,-344(0xea8)
1c000fc4:	1549584d 	lu12i.w	$r13,-374078(0xa4ac2)
1c000fc8:	0292b9ad 	addi.w	$r13,$r13,1198(0x4ae)
1c000fcc:	5bffe18d 	beq	$r12,$r13,-32(0x3ffe0) # 1c000fac <n16_beq_test+0xec>
1c000fd0:	50000c00 	b	12(0xc) # 1c000fdc <n16_beq_test+0x11c>
1c000fd4:	15871dcb 	lu12i.w	$r11,-247570(0xc38ee)
1c000fd8:	02a6816b 	addi.w	$r11,$r11,-1632(0x9a0)
1c000fdc:	1400001c 	lu12i.w	$r28,0
1c000fe0:	0280039c 	addi.w	$r28,$r28,0
1c000fe4:	1400001d 	lu12i.w	$r29,0
1c000fe8:	028003bd 	addi.w	$r29,$r29,0
1c000fec:	5c14c55c 	bne	$r10,$r28,5316(0x14c4) # 1c0024b0 <inst_error>
1c000ff0:	5c14c17d 	bne	$r11,$r29,5312(0x14c0) # 1c0024b0 <inst_error>
1c000ff4:	14a47710 	lu12i.w	$r16,336824(0x523b8)
1c000ff8:	0296c210 	addi.w	$r16,$r16,1456(0x5b0)
1c000ffc:	1596fb91 	lu12i.w	$r17,-215076(0xcb7dc)
1c001000:	02b50231 	addi.w	$r17,$r17,-704(0xd40)
1c001004:	1400000a 	lu12i.w	$r10,0
1c001008:	1400000b 	lu12i.w	$r11,0
1c00100c:	50001400 	b	20(0x14) # 1c001020 <n16_beq_test+0x160>
1c001010:	14a4770a 	lu12i.w	$r10,336824(0x523b8)
1c001014:	0296c14a 	addi.w	$r10,$r10,1456(0x5b0)
1c001018:	580021ac 	beq	$r13,$r12,32(0x20) # 1c001038 <n16_beq_test+0x178>
1c00101c:	50002400 	b	36(0x24) # 1c001040 <n16_beq_test+0x180>
1c001020:	158f042c 	lu12i.w	$r12,-231391(0xc7821)
1c001024:	02bea18c 	addi.w	$r12,$r12,-88(0xfa8)
1c001028:	14e3f3cd 	lu12i.w	$r13,466846(0x71f9e)
1c00102c:	02aec1ad 	addi.w	$r13,$r13,-1104(0xbb0)
1c001030:	5bffe18d 	beq	$r12,$r13,-32(0x3ffe0) # 1c001010 <n16_beq_test+0x150>
1c001034:	50000c00 	b	12(0xc) # 1c001040 <n16_beq_test+0x180>
1c001038:	1596fb8b 	lu12i.w	$r11,-215076(0xcb7dc)
1c00103c:	02b5016b 	addi.w	$r11,$r11,-704(0xd40)
1c001040:	1400001c 	lu12i.w	$r28,0
1c001044:	0280039c 	addi.w	$r28,$r28,0
1c001048:	1400001d 	lu12i.w	$r29,0
1c00104c:	028003bd 	addi.w	$r29,$r29,0
1c001050:	5c14615c 	bne	$r10,$r28,5216(0x1460) # 1c0024b0 <inst_error>
1c001054:	5c145d7d 	bne	$r11,$r29,5212(0x145c) # 1c0024b0 <inst_error>
1c001058:	14461150 	lu12i.w	$r16,143498(0x2308a)
1c00105c:	02886210 	addi.w	$r16,$r16,536(0x218)
1c001060:	14c057d1 	lu12i.w	$r17,393918(0x602be)
1c001064:	02bd8231 	addi.w	$r17,$r17,-160(0xf60)
1c001068:	1400000a 	lu12i.w	$r10,0
1c00106c:	1400000b 	lu12i.w	$r11,0
1c001070:	50001400 	b	20(0x14) # 1c001084 <n16_beq_test+0x1c4>
1c001074:	1446114a 	lu12i.w	$r10,143498(0x2308a)
1c001078:	0288614a 	addi.w	$r10,$r10,536(0x218)
1c00107c:	580021ac 	beq	$r13,$r12,32(0x20) # 1c00109c <n16_beq_test+0x1dc>
1c001080:	50002400 	b	36(0x24) # 1c0010a4 <n16_beq_test+0x1e4>
1c001084:	14cb516c 	lu12i.w	$r12,416395(0x65a8b)
1c001088:	02a4118c 	addi.w	$r12,$r12,-1788(0x904)
1c00108c:	1408550d 	lu12i.w	$r13,17064(0x42a8)
1c001090:	02ab01ad 	addi.w	$r13,$r13,-1344(0xac0)
1c001094:	5bffe18d 	beq	$r12,$r13,-32(0x3ffe0) # 1c001074 <n16_beq_test+0x1b4>
1c001098:	50000c00 	b	12(0xc) # 1c0010a4 <n16_beq_test+0x1e4>
1c00109c:	14c057cb 	lu12i.w	$r11,393918(0x602be)
1c0010a0:	02bd816b 	addi.w	$r11,$r11,-160(0xf60)
1c0010a4:	1400001c 	lu12i.w	$r28,0
1c0010a8:	0280039c 	addi.w	$r28,$r28,0
1c0010ac:	1400001d 	lu12i.w	$r29,0
1c0010b0:	028003bd 	addi.w	$r29,$r29,0
1c0010b4:	5c13fd5c 	bne	$r10,$r28,5116(0x13fc) # 1c0024b0 <inst_error>
1c0010b8:	5c13f97d 	bne	$r11,$r29,5112(0x13f8) # 1c0024b0 <inst_error>
1c0010bc:	14ab53b0 	lu12i.w	$r16,350877(0x55a9d)
1c0010c0:	02b2fa10 	addi.w	$r16,$r16,-834(0xcbe)
1c0010c4:	15004271 	lu12i.w	$r17,-523757(0x80213)
1c0010c8:	02adbe31 	addi.w	$r17,$r17,-1169(0xb6f)
1c0010cc:	1400000a 	lu12i.w	$r10,0
1c0010d0:	1400000b 	lu12i.w	$r11,0
1c0010d4:	50001400 	b	20(0x14) # 1c0010e8 <n16_beq_test+0x228>
1c0010d8:	14ab53aa 	lu12i.w	$r10,350877(0x55a9d)
1c0010dc:	02b2f94a 	addi.w	$r10,$r10,-834(0xcbe)
1c0010e0:	580021ac 	beq	$r13,$r12,32(0x20) # 1c001100 <n16_beq_test+0x240>
1c0010e4:	50002400 	b	36(0x24) # 1c001108 <n16_beq_test+0x248>
1c0010e8:	14fabb2c 	lu12i.w	$r12,513497(0x7d5d9)
1c0010ec:	0288418c 	addi.w	$r12,$r12,528(0x210)
1c0010f0:	1489ec6d 	lu12i.w	$r13,282467(0x44f63)
1c0010f4:	028901ad 	addi.w	$r13,$r13,576(0x240)
1c0010f8:	5bffe18d 	beq	$r12,$r13,-32(0x3ffe0) # 1c0010d8 <n16_beq_test+0x218>
1c0010fc:	50000c00 	b	12(0xc) # 1c001108 <n16_beq_test+0x248>
1c001100:	1500426b 	lu12i.w	$r11,-523757(0x80213)
1c001104:	02adbd6b 	addi.w	$r11,$r11,-1169(0xb6f)
1c001108:	1400001c 	lu12i.w	$r28,0
1c00110c:	0280039c 	addi.w	$r28,$r28,0
1c001110:	1400001d 	lu12i.w	$r29,0
1c001114:	028003bd 	addi.w	$r29,$r29,0
1c001118:	5c13995c 	bne	$r10,$r28,5016(0x1398) # 1c0024b0 <inst_error>
1c00111c:	5c13957d 	bne	$r11,$r29,5012(0x1394) # 1c0024b0 <inst_error>
1c001120:	159164b0 	lu12i.w	$r16,-226523(0xc8b25)
1c001124:	028dc210 	addi.w	$r16,$r16,880(0x370)
1c001128:	15ceddd1 	lu12i.w	$r17,-100626(0xe76ee)
1c00112c:	028aaa31 	addi.w	$r17,$r17,682(0x2aa)
1c001130:	1400000a 	lu12i.w	$r10,0
1c001134:	1400000b 	lu12i.w	$r11,0
1c001138:	50001400 	b	20(0x14) # 1c00114c <n16_beq_test+0x28c>
1c00113c:	159164aa 	lu12i.w	$r10,-226523(0xc8b25)
1c001140:	028dc14a 	addi.w	$r10,$r10,880(0x370)
1c001144:	580021ac 	beq	$r13,$r12,32(0x20) # 1c001164 <n16_beq_test+0x2a4>
1c001148:	50002400 	b	36(0x24) # 1c00116c <n16_beq_test+0x2ac>
1c00114c:	1419038c 	lu12i.w	$r12,51228(0xc81c)
1c001150:	028d018c 	addi.w	$r12,$r12,832(0x340)
1c001154:	14ddea8d 	lu12i.w	$r13,454484(0x6ef54)
1c001158:	029dc1ad 	addi.w	$r13,$r13,1904(0x770)
1c00115c:	5bffe18d 	beq	$r12,$r13,-32(0x3ffe0) # 1c00113c <n16_beq_test+0x27c>
1c001160:	50000c00 	b	12(0xc) # 1c00116c <n16_beq_test+0x2ac>
1c001164:	15ceddcb 	lu12i.w	$r11,-100626(0xe76ee)
1c001168:	028aa96b 	addi.w	$r11,$r11,682(0x2aa)
1c00116c:	1400001c 	lu12i.w	$r28,0
1c001170:	0280039c 	addi.w	$r28,$r28,0
1c001174:	1400001d 	lu12i.w	$r29,0
1c001178:	028003bd 	addi.w	$r29,$r29,0
1c00117c:	5c13355c 	bne	$r10,$r28,4916(0x1334) # 1c0024b0 <inst_error>
1c001180:	5c13317d 	bne	$r11,$r29,4912(0x1330) # 1c0024b0 <inst_error>
1c001184:	142a2230 	lu12i.w	$r16,86289(0x15111)
1c001188:	02bb0210 	addi.w	$r16,$r16,-320(0xec0)
1c00118c:	15eac0f1 	lu12i.w	$r17,-43513(0xf5607)
1c001190:	02b70631 	addi.w	$r17,$r17,-575(0xdc1)
1c001194:	1400000a 	lu12i.w	$r10,0
1c001198:	1400000b 	lu12i.w	$r11,0
1c00119c:	50001400 	b	20(0x14) # 1c0011b0 <n16_beq_test+0x2f0>
1c0011a0:	142a222a 	lu12i.w	$r10,86289(0x15111)
1c0011a4:	02bb014a 	addi.w	$r10,$r10,-320(0xec0)
1c0011a8:	580021ac 	beq	$r13,$r12,32(0x20) # 1c0011c8 <n16_beq_test+0x308>
1c0011ac:	50002400 	b	36(0x24) # 1c0011d0 <n16_beq_test+0x310>
1c0011b0:	15e28b2c 	lu12i.w	$r12,-60327(0xf1459)
1c0011b4:	02a3018c 	addi.w	$r12,$r12,-1856(0x8c0)
1c0011b8:	1486728d 	lu12i.w	$r13,275348(0x43394)
1c0011bc:	028771ad 	addi.w	$r13,$r13,476(0x1dc)
1c0011c0:	5bffe18d 	beq	$r12,$r13,-32(0x3ffe0) # 1c0011a0 <n16_beq_test+0x2e0>
1c0011c4:	50000c00 	b	12(0xc) # 1c0011d0 <n16_beq_test+0x310>
1c0011c8:	15eac0eb 	lu12i.w	$r11,-43513(0xf5607)
1c0011cc:	02b7056b 	addi.w	$r11,$r11,-575(0xdc1)
1c0011d0:	1400001c 	lu12i.w	$r28,0
1c0011d4:	0280039c 	addi.w	$r28,$r28,0
1c0011d8:	1400001d 	lu12i.w	$r29,0
1c0011dc:	028003bd 	addi.w	$r29,$r29,0
1c0011e0:	5c12d15c 	bne	$r10,$r28,4816(0x12d0) # 1c0024b0 <inst_error>
1c0011e4:	5c12cd7d 	bne	$r11,$r29,4812(0x12cc) # 1c0024b0 <inst_error>
1c0011e8:	14ad85d0 	lu12i.w	$r16,355374(0x56c2e)
1c0011ec:	02953a10 	addi.w	$r16,$r16,1358(0x54e)
1c0011f0:	15c178d1 	lu12i.w	$r17,-128058(0xe0bc6)
1c0011f4:	02936e31 	addi.w	$r17,$r17,1243(0x4db)
1c0011f8:	1400000a 	lu12i.w	$r10,0
1c0011fc:	1400000b 	lu12i.w	$r11,0
1c001200:	50001400 	b	20(0x14) # 1c001214 <n16_beq_test+0x354>
1c001204:	14ad85ca 	lu12i.w	$r10,355374(0x56c2e)
1c001208:	0295394a 	addi.w	$r10,$r10,1358(0x54e)
1c00120c:	580021ac 	beq	$r13,$r12,32(0x20) # 1c00122c <n16_beq_test+0x36c>
1c001210:	50002400 	b	36(0x24) # 1c001234 <n16_beq_test+0x374>
1c001214:	1425888c 	lu12i.w	$r12,76868(0x12c44)
1c001218:	02a0018c 	addi.w	$r12,$r12,-2048(0x800)
1c00121c:	15f05e8d 	lu12i.w	$r13,-32012(0xf82f4)
1c001220:	028cc1ad 	addi.w	$r13,$r13,816(0x330)
1c001224:	5bffe18d 	beq	$r12,$r13,-32(0x3ffe0) # 1c001204 <n16_beq_test+0x344>
1c001228:	50000c00 	b	12(0xc) # 1c001234 <n16_beq_test+0x374>
1c00122c:	15c178cb 	lu12i.w	$r11,-128058(0xe0bc6)
1c001230:	02936d6b 	addi.w	$r11,$r11,1243(0x4db)
1c001234:	1400001c 	lu12i.w	$r28,0
1c001238:	0280039c 	addi.w	$r28,$r28,0
1c00123c:	1400001d 	lu12i.w	$r29,0
1c001240:	028003bd 	addi.w	$r29,$r29,0
1c001244:	5c126d5c 	bne	$r10,$r28,4716(0x126c) # 1c0024b0 <inst_error>
1c001248:	5c12697d 	bne	$r11,$r29,4712(0x1268) # 1c0024b0 <inst_error>
1c00124c:	15b95190 	lu12i.w	$r16,-144756(0xdca8c)
1c001250:	02ab8210 	addi.w	$r16,$r16,-1312(0xae0)
1c001254:	1442c951 	lu12i.w	$r17,136778(0x2164a)
1c001258:	02b68231 	addi.w	$r17,$r17,-608(0xda0)
1c00125c:	1400000a 	lu12i.w	$r10,0
1c001260:	1400000b 	lu12i.w	$r11,0
1c001264:	50001400 	b	20(0x14) # 1c001278 <n16_beq_test+0x3b8>
1c001268:	15b9518a 	lu12i.w	$r10,-144756(0xdca8c)
1c00126c:	02ab814a 	addi.w	$r10,$r10,-1312(0xae0)
1c001270:	580021ac 	beq	$r13,$r12,32(0x20) # 1c001290 <n16_beq_test+0x3d0>
1c001274:	50002400 	b	36(0x24) # 1c001298 <n16_beq_test+0x3d8>
1c001278:	15ae54ac 	lu12i.w	$r12,-167259(0xd72a5)
1c00127c:	0291718c 	addi.w	$r12,$r12,1116(0x45c)
1c001280:	15ae54ad 	lu12i.w	$r13,-167259(0xd72a5)
1c001284:	029171ad 	addi.w	$r13,$r13,1116(0x45c)
1c001288:	5bffe18d 	beq	$r12,$r13,-32(0x3ffe0) # 1c001268 <n16_beq_test+0x3a8>
1c00128c:	50000c00 	b	12(0xc) # 1c001298 <n16_beq_test+0x3d8>
1c001290:	1442c94b 	lu12i.w	$r11,136778(0x2164a)
1c001294:	02b6816b 	addi.w	$r11,$r11,-608(0xda0)
1c001298:	15b9519c 	lu12i.w	$r28,-144756(0xdca8c)
1c00129c:	02ab839c 	addi.w	$r28,$r28,-1312(0xae0)
1c0012a0:	1442c95d 	lu12i.w	$r29,136778(0x2164a)
1c0012a4:	02b683bd 	addi.w	$r29,$r29,-608(0xda0)
1c0012a8:	5c12095c 	bne	$r10,$r28,4616(0x1208) # 1c0024b0 <inst_error>
1c0012ac:	5c12057d 	bne	$r11,$r29,4612(0x1204) # 1c0024b0 <inst_error>
1c0012b0:	155c2250 	lu12i.w	$r16,-335598(0xae112)
1c0012b4:	02b30210 	addi.w	$r16,$r16,-832(0xcc0)
1c0012b8:	14336471 	lu12i.w	$r17,105251(0x19b23)
1c0012bc:	02b06231 	addi.w	$r17,$r17,-1000(0xc18)
1c0012c0:	1400000a 	lu12i.w	$r10,0
1c0012c4:	1400000b 	lu12i.w	$r11,0
1c0012c8:	50001400 	b	20(0x14) # 1c0012dc <n16_beq_test+0x41c>
1c0012cc:	155c224a 	lu12i.w	$r10,-335598(0xae112)
1c0012d0:	02b3014a 	addi.w	$r10,$r10,-832(0xcc0)
1c0012d4:	580021ac 	beq	$r13,$r12,32(0x20) # 1c0012f4 <n16_beq_test+0x434>
1c0012d8:	50002400 	b	36(0x24) # 1c0012fc <n16_beq_test+0x43c>
1c0012dc:	14cbcf6c 	lu12i.w	$r12,417403(0x65e7b)
1c0012e0:	02a3458c 	addi.w	$r12,$r12,-1839(0x8d1)
1c0012e4:	14cbcf6d 	lu12i.w	$r13,417403(0x65e7b)
1c0012e8:	02a345ad 	addi.w	$r13,$r13,-1839(0x8d1)
1c0012ec:	5bffe18d 	beq	$r12,$r13,-32(0x3ffe0) # 1c0012cc <n16_beq_test+0x40c>
1c0012f0:	50000c00 	b	12(0xc) # 1c0012fc <n16_beq_test+0x43c>
1c0012f4:	1433646b 	lu12i.w	$r11,105251(0x19b23)
1c0012f8:	02b0616b 	addi.w	$r11,$r11,-1000(0xc18)
1c0012fc:	155c225c 	lu12i.w	$r28,-335598(0xae112)
1c001300:	02b3039c 	addi.w	$r28,$r28,-832(0xcc0)
1c001304:	1433647d 	lu12i.w	$r29,105251(0x19b23)
1c001308:	02b063bd 	addi.w	$r29,$r29,-1000(0xc18)
1c00130c:	5c11a55c 	bne	$r10,$r28,4516(0x11a4) # 1c0024b0 <inst_error>
1c001310:	5c11a17d 	bne	$r11,$r29,4512(0x11a0) # 1c0024b0 <inst_error>
1c001314:	157a44d0 	lu12i.w	$r16,-273882(0xbd226)
1c001318:	02b9a210 	addi.w	$r16,$r16,-408(0xe68)
1c00131c:	14e601b1 	lu12i.w	$r17,471053(0x7300d)
1c001320:	02bdf631 	addi.w	$r17,$r17,-131(0xf7d)
1c001324:	1400000a 	lu12i.w	$r10,0
1c001328:	1400000b 	lu12i.w	$r11,0
1c00132c:	50001400 	b	20(0x14) # 1c001340 <n16_beq_test+0x480>
1c001330:	157a44ca 	lu12i.w	$r10,-273882(0xbd226)
1c001334:	02b9a14a 	addi.w	$r10,$r10,-408(0xe68)
1c001338:	580021ac 	beq	$r13,$r12,32(0x20) # 1c001358 <n16_beq_test+0x498>
1c00133c:	50002400 	b	36(0x24) # 1c001360 <n16_beq_test+0x4a0>
1c001340:	1497f38c 	lu12i.w	$r12,311196(0x4bf9c)
1c001344:	0290018c 	addi.w	$r12,$r12,1024(0x400)
1c001348:	1497f38d 	lu12i.w	$r13,311196(0x4bf9c)
1c00134c:	029001ad 	addi.w	$r13,$r13,1024(0x400)
1c001350:	5bffe18d 	beq	$r12,$r13,-32(0x3ffe0) # 1c001330 <n16_beq_test+0x470>
1c001354:	50000c00 	b	12(0xc) # 1c001360 <n16_beq_test+0x4a0>
1c001358:	14e601ab 	lu12i.w	$r11,471053(0x7300d)
1c00135c:	02bdf56b 	addi.w	$r11,$r11,-131(0xf7d)
1c001360:	157a44dc 	lu12i.w	$r28,-273882(0xbd226)
1c001364:	02b9a39c 	addi.w	$r28,$r28,-408(0xe68)
1c001368:	14e601bd 	lu12i.w	$r29,471053(0x7300d)
1c00136c:	02bdf7bd 	addi.w	$r29,$r29,-131(0xf7d)
1c001370:	5c11415c 	bne	$r10,$r28,4416(0x1140) # 1c0024b0 <inst_error>
1c001374:	5c113d7d 	bne	$r11,$r29,4412(0x113c) # 1c0024b0 <inst_error>
1c001378:	15237350 	lu12i.w	$r16,-451686(0x91b9a)
1c00137c:	029ad210 	addi.w	$r16,$r16,1716(0x6b4)
1c001380:	15c71091 	lu12i.w	$r17,-116604(0xe3884)
1c001384:	029f0231 	addi.w	$r17,$r17,1984(0x7c0)
1c001388:	1400000a 	lu12i.w	$r10,0
1c00138c:	1400000b 	lu12i.w	$r11,0
1c001390:	50001400 	b	20(0x14) # 1c0013a4 <n16_beq_test+0x4e4>
1c001394:	1523734a 	lu12i.w	$r10,-451686(0x91b9a)
1c001398:	029ad14a 	addi.w	$r10,$r10,1716(0x6b4)
1c00139c:	580021ac 	beq	$r13,$r12,32(0x20) # 1c0013bc <n16_beq_test+0x4fc>
1c0013a0:	50002400 	b	36(0x24) # 1c0013c4 <n16_beq_test+0x504>
1c0013a4:	158124ec 	lu12i.w	$r12,-259801(0xc0927)
1c0013a8:	0282498c 	addi.w	$r12,$r12,146(0x92)
1c0013ac:	158124ed 	lu12i.w	$r13,-259801(0xc0927)
1c0013b0:	028249ad 	addi.w	$r13,$r13,146(0x92)
1c0013b4:	5bffe18d 	beq	$r12,$r13,-32(0x3ffe0) # 1c001394 <n16_beq_test+0x4d4>
1c0013b8:	50000c00 	b	12(0xc) # 1c0013c4 <n16_beq_test+0x504>
1c0013bc:	15c7108b 	lu12i.w	$r11,-116604(0xe3884)
1c0013c0:	029f016b 	addi.w	$r11,$r11,1984(0x7c0)
1c0013c4:	1523735c 	lu12i.w	$r28,-451686(0x91b9a)
1c0013c8:	029ad39c 	addi.w	$r28,$r28,1716(0x6b4)
1c0013cc:	15c7109d 	lu12i.w	$r29,-116604(0xe3884)
1c0013d0:	029f03bd 	addi.w	$r29,$r29,1984(0x7c0)
1c0013d4:	5c10dd5c 	bne	$r10,$r28,4316(0x10dc) # 1c0024b0 <inst_error>
1c0013d8:	5c10d97d 	bne	$r11,$r29,4312(0x10d8) # 1c0024b0 <inst_error>
1c0013dc:	14364b30 	lu12i.w	$r16,111193(0x1b259)
1c0013e0:	02b04210 	addi.w	$r16,$r16,-1008(0xc10)
1c0013e4:	15929211 	lu12i.w	$r17,-224112(0xc9490)
1c0013e8:	02b33231 	addi.w	$r17,$r17,-820(0xccc)
1c0013ec:	1400000a 	lu12i.w	$r10,0
1c0013f0:	1400000b 	lu12i.w	$r11,0
1c0013f4:	50001400 	b	20(0x14) # 1c001408 <n16_beq_test+0x548>
1c0013f8:	14364b2a 	lu12i.w	$r10,111193(0x1b259)
1c0013fc:	02b0414a 	addi.w	$r10,$r10,-1008(0xc10)
1c001400:	580021ac 	beq	$r13,$r12,32(0x20) # 1c001420 <n16_beq_test+0x560>
1c001404:	50002400 	b	36(0x24) # 1c001428 <n16_beq_test+0x568>
1c001408:	149d504c 	lu12i.w	$r12,322178(0x4ea82)
1c00140c:	02a5e98c 	addi.w	$r12,$r12,-1670(0x97a)
1c001410:	149d504d 	lu12i.w	$r13,322178(0x4ea82)
1c001414:	02a5e9ad 	addi.w	$r13,$r13,-1670(0x97a)
1c001418:	5bffe18d 	beq	$r12,$r13,-32(0x3ffe0) # 1c0013f8 <n16_beq_test+0x538>
1c00141c:	50000c00 	b	12(0xc) # 1c001428 <n16_beq_test+0x568>
1c001420:	1592920b 	lu12i.w	$r11,-224112(0xc9490)
1c001424:	02b3316b 	addi.w	$r11,$r11,-820(0xccc)
1c001428:	14364b3c 	lu12i.w	$r28,111193(0x1b259)
1c00142c:	02b0439c 	addi.w	$r28,$r28,-1008(0xc10)
1c001430:	1592921d 	lu12i.w	$r29,-224112(0xc9490)
1c001434:	02b333bd 	addi.w	$r29,$r29,-820(0xccc)
1c001438:	5c10795c 	bne	$r10,$r28,4216(0x1078) # 1c0024b0 <inst_error>
1c00143c:	5c10757d 	bne	$r11,$r29,4212(0x1074) # 1c0024b0 <inst_error>
1c001440:	142cd450 	lu12i.w	$r16,91810(0x166a2)
1c001444:	02ab8210 	addi.w	$r16,$r16,-1312(0xae0)
1c001448:	1420f5f1 	lu12i.w	$r17,67503(0x107af)
1c00144c:	0292d231 	addi.w	$r17,$r17,1204(0x4b4)
1c001450:	1400000a 	lu12i.w	$r10,0
1c001454:	1400000b 	lu12i.w	$r11,0
1c001458:	50001400 	b	20(0x14) # 1c00146c <n16_beq_test+0x5ac>
1c00145c:	142cd44a 	lu12i.w	$r10,91810(0x166a2)
1c001460:	02ab814a 	addi.w	$r10,$r10,-1312(0xae0)
1c001464:	580021ac 	beq	$r13,$r12,32(0x20) # 1c001484 <n16_beq_test+0x5c4>
1c001468:	50002400 	b	36(0x24) # 1c00148c <n16_beq_test+0x5cc>
1c00146c:	14c5f6ac 	lu12i.w	$r12,405429(0x62fb5)
1c001470:	02aa018c 	addi.w	$r12,$r12,-1408(0xa80)
1c001474:	14c5f6ad 	lu12i.w	$r13,405429(0x62fb5)
1c001478:	02aa01ad 	addi.w	$r13,$r13,-1408(0xa80)
1c00147c:	5bffe18d 	beq	$r12,$r13,-32(0x3ffe0) # 1c00145c <n16_beq_test+0x59c>
1c001480:	50000c00 	b	12(0xc) # 1c00148c <n16_beq_test+0x5cc>
1c001484:	1420f5eb 	lu12i.w	$r11,67503(0x107af)
1c001488:	0292d16b 	addi.w	$r11,$r11,1204(0x4b4)
1c00148c:	142cd45c 	lu12i.w	$r28,91810(0x166a2)
1c001490:	02ab839c 	addi.w	$r28,$r28,-1312(0xae0)
1c001494:	1420f5fd 	lu12i.w	$r29,67503(0x107af)
1c001498:	0292d3bd 	addi.w	$r29,$r29,1204(0x4b4)
1c00149c:	5c10155c 	bne	$r10,$r28,4116(0x1014) # 1c0024b0 <inst_error>
1c0014a0:	5c10117d 	bne	$r11,$r29,4112(0x1010) # 1c0024b0 <inst_error>
1c0014a4:	15627af0 	lu12i.w	$r16,-322601(0xb13d7)
1c0014a8:	02b21210 	addi.w	$r16,$r16,-892(0xc84)
1c0014ac:	148c9651 	lu12i.w	$r17,287922(0x464b2)
1c0014b0:	0288e231 	addi.w	$r17,$r17,568(0x238)
1c0014b4:	1400000a 	lu12i.w	$r10,0
1c0014b8:	1400000b 	lu12i.w	$r11,0
1c0014bc:	50001400 	b	20(0x14) # 1c0014d0 <n16_beq_test+0x610>
1c0014c0:	15627aea 	lu12i.w	$r10,-322601(0xb13d7)
1c0014c4:	02b2114a 	addi.w	$r10,$r10,-892(0xc84)
1c0014c8:	580021ac 	beq	$r13,$r12,32(0x20) # 1c0014e8 <n16_beq_test+0x628>
1c0014cc:	50002400 	b	36(0x24) # 1c0014f0 <n16_beq_test+0x630>
1c0014d0:	14ad408c 	lu12i.w	$r12,354820(0x56a04)
1c0014d4:	0288d18c 	addi.w	$r12,$r12,564(0x234)
1c0014d8:	14ad408d 	lu12i.w	$r13,354820(0x56a04)
1c0014dc:	0288d1ad 	addi.w	$r13,$r13,564(0x234)
1c0014e0:	5bffe18d 	beq	$r12,$r13,-32(0x3ffe0) # 1c0014c0 <n16_beq_test+0x600>
1c0014e4:	50000c00 	b	12(0xc) # 1c0014f0 <n16_beq_test+0x630>
1c0014e8:	148c964b 	lu12i.w	$r11,287922(0x464b2)
1c0014ec:	0288e16b 	addi.w	$r11,$r11,568(0x238)
1c0014f0:	15627afc 	lu12i.w	$r28,-322601(0xb13d7)
1c0014f4:	02b2139c 	addi.w	$r28,$r28,-892(0xc84)
1c0014f8:	148c965d 	lu12i.w	$r29,287922(0x464b2)
1c0014fc:	0288e3bd 	addi.w	$r29,$r29,568(0x238)
1c001500:	5c0fb15c 	bne	$r10,$r28,4016(0xfb0) # 1c0024b0 <inst_error>
1c001504:	5c0fad7d 	bne	$r11,$r29,4012(0xfac) # 1c0024b0 <inst_error>
1c001508:	15c6e010 	lu12i.w	$r16,-116992(0xe3700)
1c00150c:	02964a10 	addi.w	$r16,$r16,1426(0x592)
1c001510:	1549de11 	lu12i.w	$r17,-373008(0xa4ef0)
1c001514:	02943a31 	addi.w	$r17,$r17,1294(0x50e)
1c001518:	1400000a 	lu12i.w	$r10,0
1c00151c:	1400000b 	lu12i.w	$r11,0
1c001520:	50001400 	b	20(0x14) # 1c001534 <n16_beq_test+0x674>
1c001524:	15c6e00a 	lu12i.w	$r10,-116992(0xe3700)
1c001528:	0296494a 	addi.w	$r10,$r10,1426(0x592)
1c00152c:	580021ac 	beq	$r13,$r12,32(0x20) # 1c00154c <n16_beq_test+0x68c>
1c001530:	50002400 	b	36(0x24) # 1c001554 <n16_beq_test+0x694>
1c001534:	15a3922c 	lu12i.w	$r12,-189295(0xd1c91)
1c001538:	0282118c 	addi.w	$r12,$r12,132(0x84)
1c00153c:	15a3922d 	lu12i.w	$r13,-189295(0xd1c91)
1c001540:	028211ad 	addi.w	$r13,$r13,132(0x84)
1c001544:	5bffe18d 	beq	$r12,$r13,-32(0x3ffe0) # 1c001524 <n16_beq_test+0x664>
1c001548:	50000c00 	b	12(0xc) # 1c001554 <n16_beq_test+0x694>
1c00154c:	1549de0b 	lu12i.w	$r11,-373008(0xa4ef0)
1c001550:	0294396b 	addi.w	$r11,$r11,1294(0x50e)
1c001554:	15c6e01c 	lu12i.w	$r28,-116992(0xe3700)
1c001558:	02964b9c 	addi.w	$r28,$r28,1426(0x592)
1c00155c:	1549de1d 	lu12i.w	$r29,-373008(0xa4ef0)
1c001560:	02943bbd 	addi.w	$r29,$r29,1294(0x50e)
1c001564:	5c0f4d5c 	bne	$r10,$r28,3916(0xf4c) # 1c0024b0 <inst_error>
1c001568:	5c0f497d 	bne	$r11,$r29,3912(0xf48) # 1c0024b0 <inst_error>
1c00156c:	15cefe90 	lu12i.w	$r16,-100364(0xe77f4)
1c001570:	02b7c210 	addi.w	$r16,$r16,-528(0xdf0)
1c001574:	15250bf1 	lu12i.w	$r17,-448417(0x9285f)
1c001578:	0286d231 	addi.w	$r17,$r17,436(0x1b4)
1c00157c:	1400000a 	lu12i.w	$r10,0
1c001580:	1400000b 	lu12i.w	$r11,0
1c001584:	50001400 	b	20(0x14) # 1c001598 <n16_beq_test+0x6d8>
1c001588:	15cefe8a 	lu12i.w	$r10,-100364(0xe77f4)
1c00158c:	02b7c14a 	addi.w	$r10,$r10,-528(0xdf0)
1c001590:	580021ac 	beq	$r13,$r12,32(0x20) # 1c0015b0 <n16_beq_test+0x6f0>
1c001594:	50002400 	b	36(0x24) # 1c0015b8 <n16_beq_test+0x6f8>
1c001598:	1528448c 	lu12i.w	$r12,-441820(0x94224)
1c00159c:	02bc918c 	addi.w	$r12,$r12,-220(0xf24)
1c0015a0:	1528448d 	lu12i.w	$r13,-441820(0x94224)
1c0015a4:	02bc91ad 	addi.w	$r13,$r13,-220(0xf24)
1c0015a8:	5bffe18d 	beq	$r12,$r13,-32(0x3ffe0) # 1c001588 <n16_beq_test+0x6c8>
1c0015ac:	50000c00 	b	12(0xc) # 1c0015b8 <n16_beq_test+0x6f8>
1c0015b0:	15250beb 	lu12i.w	$r11,-448417(0x9285f)
1c0015b4:	0286d16b 	addi.w	$r11,$r11,436(0x1b4)
1c0015b8:	15cefe9c 	lu12i.w	$r28,-100364(0xe77f4)
1c0015bc:	02b7c39c 	addi.w	$r28,$r28,-528(0xdf0)
1c0015c0:	15250bfd 	lu12i.w	$r29,-448417(0x9285f)
1c0015c4:	0286d3bd 	addi.w	$r29,$r29,436(0x1b4)
1c0015c8:	5c0ee95c 	bne	$r10,$r28,3816(0xee8) # 1c0024b0 <inst_error>
1c0015cc:	5c0ee57d 	bne	$r11,$r29,3812(0xee4) # 1c0024b0 <inst_error>
1c0015d0:	14181130 	lu12i.w	$r16,49289(0xc089)
1c0015d4:	0298c210 	addi.w	$r16,$r16,1584(0x630)
1c0015d8:	14e43491 	lu12i.w	$r17,467364(0x721a4)
1c0015dc:	02a04231 	addi.w	$r17,$r17,-2032(0x810)
1c0015e0:	1400000a 	lu12i.w	$r10,0
1c0015e4:	1400000b 	lu12i.w	$r11,0
1c0015e8:	50001400 	b	20(0x14) # 1c0015fc <n16_beq_test+0x73c>
1c0015ec:	1418112a 	lu12i.w	$r10,49289(0xc089)
1c0015f0:	0298c14a 	addi.w	$r10,$r10,1584(0x630)
1c0015f4:	580021ac 	beq	$r13,$r12,32(0x20) # 1c001614 <n16_beq_test+0x754>
1c0015f8:	50002400 	b	36(0x24) # 1c00161c <n16_beq_test+0x75c>
1c0015fc:	142770cc 	lu12i.w	$r12,80774(0x13b86)
1c001600:	02b3018c 	addi.w	$r12,$r12,-832(0xcc0)
1c001604:	142770cd 	lu12i.w	$r13,80774(0x13b86)
1c001608:	02b301ad 	addi.w	$r13,$r13,-832(0xcc0)
1c00160c:	5bffe18d 	beq	$r12,$r13,-32(0x3ffe0) # 1c0015ec <n16_beq_test+0x72c>
1c001610:	50000c00 	b	12(0xc) # 1c00161c <n16_beq_test+0x75c>
1c001614:	14e4348b 	lu12i.w	$r11,467364(0x721a4)
1c001618:	02a0416b 	addi.w	$r11,$r11,-2032(0x810)
1c00161c:	1418113c 	lu12i.w	$r28,49289(0xc089)
1c001620:	0298c39c 	addi.w	$r28,$r28,1584(0x630)
1c001624:	14e4349d 	lu12i.w	$r29,467364(0x721a4)
1c001628:	02a043bd 	addi.w	$r29,$r29,-2032(0x810)
1c00162c:	5c0e855c 	bne	$r10,$r28,3716(0xe84) # 1c0024b0 <inst_error>
1c001630:	5c0e817d 	bne	$r11,$r29,3712(0xe80) # 1c0024b0 <inst_error>
1c001634:	154a6ff0 	lu12i.w	$r16,-371841(0xa537f)
1c001638:	02a02e10 	addi.w	$r16,$r16,-2037(0x80b)
1c00163c:	14a7ab31 	lu12i.w	$r17,343385(0x53d59)
1c001640:	0291fa31 	addi.w	$r17,$r17,1150(0x47e)
1c001644:	1400000a 	lu12i.w	$r10,0
1c001648:	1400000b 	lu12i.w	$r11,0
1c00164c:	50001400 	b	20(0x14) # 1c001660 <n16_beq_test+0x7a0>
1c001650:	154a6fea 	lu12i.w	$r10,-371841(0xa537f)
1c001654:	02a02d4a 	addi.w	$r10,$r10,-2037(0x80b)
1c001658:	580021ac 	beq	$r13,$r12,32(0x20) # 1c001678 <n16_beq_test+0x7b8>
1c00165c:	50002400 	b	36(0x24) # 1c001680 <n16_beq_test+0x7c0>
1c001660:	15883b8c 	lu12i.w	$r12,-245284(0xc41dc)
1c001664:	02bd918c 	addi.w	$r12,$r12,-156(0xf64)
1c001668:	15883b8d 	lu12i.w	$r13,-245284(0xc41dc)
1c00166c:	02bd91ad 	addi.w	$r13,$r13,-156(0xf64)
1c001670:	5bffe18d 	beq	$r12,$r13,-32(0x3ffe0) # 1c001650 <n16_beq_test+0x790>
1c001674:	50000c00 	b	12(0xc) # 1c001680 <n16_beq_test+0x7c0>
1c001678:	14a7ab2b 	lu12i.w	$r11,343385(0x53d59)
1c00167c:	0291f96b 	addi.w	$r11,$r11,1150(0x47e)
1c001680:	154a6ffc 	lu12i.w	$r28,-371841(0xa537f)
1c001684:	02a02f9c 	addi.w	$r28,$r28,-2037(0x80b)
1c001688:	14a7ab3d 	lu12i.w	$r29,343385(0x53d59)
1c00168c:	0291fbbd 	addi.w	$r29,$r29,1150(0x47e)
1c001690:	5c0e215c 	bne	$r10,$r28,3616(0xe20) # 1c0024b0 <inst_error>
1c001694:	5c0e1d7d 	bne	$r11,$r29,3612(0xe1c) # 1c0024b0 <inst_error>
1c001698:	14b66630 	lu12i.w	$r16,373553(0x5b331)
1c00169c:	02ab9610 	addi.w	$r16,$r16,-1307(0xae5)
1c0016a0:	145a4af1 	lu12i.w	$r17,184919(0x2d257)
1c0016a4:	029afa31 	addi.w	$r17,$r17,1726(0x6be)
1c0016a8:	1400000a 	lu12i.w	$r10,0
1c0016ac:	1400000b 	lu12i.w	$r11,0
1c0016b0:	50001400 	b	20(0x14) # 1c0016c4 <n16_beq_test+0x804>
1c0016b4:	14b6662a 	lu12i.w	$r10,373553(0x5b331)
1c0016b8:	02ab954a 	addi.w	$r10,$r10,-1307(0xae5)
1c0016bc:	580021ac 	beq	$r13,$r12,32(0x20) # 1c0016dc <n16_beq_test+0x81c>
1c0016c0:	50002400 	b	36(0x24) # 1c0016e4 <n16_beq_test+0x824>
1c0016c4:	14c15ecc 	lu12i.w	$r12,396022(0x60af6)
1c0016c8:	0282018c 	addi.w	$r12,$r12,128(0x80)
1c0016cc:	14c15ecd 	lu12i.w	$r13,396022(0x60af6)
1c0016d0:	028201ad 	addi.w	$r13,$r13,128(0x80)
1c0016d4:	5bffe18d 	beq	$r12,$r13,-32(0x3ffe0) # 1c0016b4 <n16_beq_test+0x7f4>
1c0016d8:	50000c00 	b	12(0xc) # 1c0016e4 <n16_beq_test+0x824>
1c0016dc:	145a4aeb 	lu12i.w	$r11,184919(0x2d257)
1c0016e0:	029af96b 	addi.w	$r11,$r11,1726(0x6be)
1c0016e4:	14b6663c 	lu12i.w	$r28,373553(0x5b331)
1c0016e8:	02ab979c 	addi.w	$r28,$r28,-1307(0xae5)
1c0016ec:	145a4afd 	lu12i.w	$r29,184919(0x2d257)
1c0016f0:	029afbbd 	addi.w	$r29,$r29,1726(0x6be)
1c0016f4:	5c0dbd5c 	bne	$r10,$r28,3516(0xdbc) # 1c0024b0 <inst_error>
1c0016f8:	5c0db97d 	bne	$r11,$r29,3512(0xdb8) # 1c0024b0 <inst_error>
1c0016fc:	1478a590 	lu12i.w	$r16,247084(0x3c52c)
1c001700:	028d3210 	addi.w	$r16,$r16,844(0x34c)
1c001704:	14c42d31 	lu12i.w	$r17,401769(0x62169)
1c001708:	02971e31 	addi.w	$r17,$r17,1479(0x5c7)
1c00170c:	1400000a 	lu12i.w	$r10,0
1c001710:	1400000b 	lu12i.w	$r11,0
1c001714:	50001400 	b	20(0x14) # 1c001728 <n16_beq_test+0x868>
1c001718:	1478a58a 	lu12i.w	$r10,247084(0x3c52c)
1c00171c:	028d314a 	addi.w	$r10,$r10,844(0x34c)
1c001720:	580021ac 	beq	$r13,$r12,32(0x20) # 1c001740 <n16_beq_test+0x880>
1c001724:	50002400 	b	36(0x24) # 1c001748 <n16_beq_test+0x888>
1c001728:	150a83ac 	lu12i.w	$r12,-502755(0x8541d)
1c00172c:	02b4018c 	addi.w	$r12,$r12,-768(0xd00)
1c001730:	150a83ad 	lu12i.w	$r13,-502755(0x8541d)
1c001734:	02b401ad 	addi.w	$r13,$r13,-768(0xd00)
1c001738:	5bffe18d 	beq	$r12,$r13,-32(0x3ffe0) # 1c001718 <n16_beq_test+0x858>
1c00173c:	50000c00 	b	12(0xc) # 1c001748 <n16_beq_test+0x888>
1c001740:	14c42d2b 	lu12i.w	$r11,401769(0x62169)
1c001744:	02971d6b 	addi.w	$r11,$r11,1479(0x5c7)
1c001748:	1478a59c 	lu12i.w	$r28,247084(0x3c52c)
1c00174c:	028d339c 	addi.w	$r28,$r28,844(0x34c)
1c001750:	14c42d3d 	lu12i.w	$r29,401769(0x62169)
1c001754:	02971fbd 	addi.w	$r29,$r29,1479(0x5c7)
1c001758:	5c0d595c 	bne	$r10,$r28,3416(0xd58) # 1c0024b0 <inst_error>
1c00175c:	5c0d557d 	bne	$r11,$r29,3412(0xd54) # 1c0024b0 <inst_error>
1c001760:	143f9d30 	lu12i.w	$r16,130281(0x1fce9)
1c001764:	02890210 	addi.w	$r16,$r16,576(0x240)
1c001768:	15152b11 	lu12i.w	$r17,-480936(0x8a958)
1c00176c:	02920231 	addi.w	$r17,$r17,1152(0x480)
1c001770:	1400000a 	lu12i.w	$r10,0
1c001774:	1400000b 	lu12i.w	$r11,0
1c001778:	50001400 	b	20(0x14) # 1c00178c <n16_beq_test+0x8cc>
1c00177c:	143f9d2a 	lu12i.w	$r10,130281(0x1fce9)
1c001780:	0289014a 	addi.w	$r10,$r10,576(0x240)
1c001784:	580021ac 	beq	$r13,$r12,32(0x20) # 1c0017a4 <n16_beq_test+0x8e4>
1c001788:	50002400 	b	36(0x24) # 1c0017ac <n16_beq_test+0x8ec>
1c00178c:	1412fe6c 	lu12i.w	$r12,38899(0x97f3)
1c001790:	02aa618c 	addi.w	$r12,$r12,-1384(0xa98)
1c001794:	1412fe6d 	lu12i.w	$r13,38899(0x97f3)
1c001798:	02aa61ad 	addi.w	$r13,$r13,-1384(0xa98)
1c00179c:	5bffe18d 	beq	$r12,$r13,-32(0x3ffe0) # 1c00177c <n16_beq_test+0x8bc>
1c0017a0:	50000c00 	b	12(0xc) # 1c0017ac <n16_beq_test+0x8ec>
1c0017a4:	15152b0b 	lu12i.w	$r11,-480936(0x8a958)
1c0017a8:	0292016b 	addi.w	$r11,$r11,1152(0x480)
1c0017ac:	143f9d3c 	lu12i.w	$r28,130281(0x1fce9)
1c0017b0:	0289039c 	addi.w	$r28,$r28,576(0x240)
1c0017b4:	15152b1d 	lu12i.w	$r29,-480936(0x8a958)
1c0017b8:	029203bd 	addi.w	$r29,$r29,1152(0x480)
1c0017bc:	5c0cf55c 	bne	$r10,$r28,3316(0xcf4) # 1c0024b0 <inst_error>
1c0017c0:	5c0cf17d 	bne	$r11,$r29,3312(0xcf0) # 1c0024b0 <inst_error>
1c0017c4:	15179e10 	lu12i.w	$r16,-475920(0x8bcf0)
1c0017c8:	02b62a10 	addi.w	$r16,$r16,-630(0xd8a)
1c0017cc:	150b87d1 	lu12i.w	$r17,-500674(0x85c3e)
1c0017d0:	0298ca31 	addi.w	$r17,$r17,1586(0x632)
1c0017d4:	1400000a 	lu12i.w	$r10,0
1c0017d8:	1400000b 	lu12i.w	$r11,0
1c0017dc:	50001400 	b	20(0x14) # 1c0017f0 <n16_beq_test+0x930>
1c0017e0:	15179e0a 	lu12i.w	$r10,-475920(0x8bcf0)
1c0017e4:	02b6294a 	addi.w	$r10,$r10,-630(0xd8a)
1c0017e8:	580021ac 	beq	$r13,$r12,32(0x20) # 1c001808 <n16_beq_test+0x948>
1c0017ec:	50002400 	b	36(0x24) # 1c001810 <n16_beq_test+0x950>
1c0017f0:	153064cc 	lu12i.w	$r12,-425178(0x98326)
1c0017f4:	02bda18c 	addi.w	$r12,$r12,-152(0xf68)
1c0017f8:	153064cd 	lu12i.w	$r13,-425178(0x98326)
1c0017fc:	02bda1ad 	addi.w	$r13,$r13,-152(0xf68)
1c001800:	5bffe18d 	beq	$r12,$r13,-32(0x3ffe0) # 1c0017e0 <n16_beq_test+0x920>
1c001804:	50000c00 	b	12(0xc) # 1c001810 <n16_beq_test+0x950>
1c001808:	150b87cb 	lu12i.w	$r11,-500674(0x85c3e)
1c00180c:	0298c96b 	addi.w	$r11,$r11,1586(0x632)
1c001810:	15179e1c 	lu12i.w	$r28,-475920(0x8bcf0)
1c001814:	02b62b9c 	addi.w	$r28,$r28,-630(0xd8a)
1c001818:	150b87dd 	lu12i.w	$r29,-500674(0x85c3e)
1c00181c:	0298cbbd 	addi.w	$r29,$r29,1586(0x632)
1c001820:	5c0c915c 	bne	$r10,$r28,3216(0xc90) # 1c0024b0 <inst_error>
1c001824:	5c0c8d7d 	bne	$r11,$r29,3212(0xc8c) # 1c0024b0 <inst_error>
1c001828:	150529d0 	lu12i.w	$r16,-513714(0x8294e)
1c00182c:	02950210 	addi.w	$r16,$r16,1344(0x540)
1c001830:	14f16091 	lu12i.w	$r17,494340(0x78b04)
1c001834:	02878231 	addi.w	$r17,$r17,480(0x1e0)
1c001838:	1400000a 	lu12i.w	$r10,0
1c00183c:	1400000b 	lu12i.w	$r11,0
1c001840:	50001400 	b	20(0x14) # 1c001854 <n16_beq_test+0x994>
1c001844:	150529ca 	lu12i.w	$r10,-513714(0x8294e)
1c001848:	0295014a 	addi.w	$r10,$r10,1344(0x540)
1c00184c:	580021ac 	beq	$r13,$r12,32(0x20) # 1c00186c <n16_beq_test+0x9ac>
1c001850:	50002400 	b	36(0x24) # 1c001874 <n16_beq_test+0x9b4>
1c001854:	153532cc 	lu12i.w	$r12,-415338(0x9a996)
1c001858:	0284d18c 	addi.w	$r12,$r12,308(0x134)
1c00185c:	153532cd 	lu12i.w	$r13,-415338(0x9a996)
1c001860:	0284d1ad 	addi.w	$r13,$r13,308(0x134)
1c001864:	5bffe18d 	beq	$r12,$r13,-32(0x3ffe0) # 1c001844 <n16_beq_test+0x984>
1c001868:	50000c00 	b	12(0xc) # 1c001874 <n16_beq_test+0x9b4>
1c00186c:	14f1608b 	lu12i.w	$r11,494340(0x78b04)
1c001870:	0287816b 	addi.w	$r11,$r11,480(0x1e0)
1c001874:	150529dc 	lu12i.w	$r28,-513714(0x8294e)
1c001878:	0295039c 	addi.w	$r28,$r28,1344(0x540)
1c00187c:	14f1609d 	lu12i.w	$r29,494340(0x78b04)
1c001880:	028783bd 	addi.w	$r29,$r29,480(0x1e0)
1c001884:	5c0c2d5c 	bne	$r10,$r28,3116(0xc2c) # 1c0024b0 <inst_error>
1c001888:	5c0c297d 	bne	$r11,$r29,3112(0xc28) # 1c0024b0 <inst_error>
1c00188c:	154792f0 	lu12i.w	$r16,-377705(0xa3c97)
1c001890:	02ab3210 	addi.w	$r16,$r16,-1332(0xacc)
1c001894:	140f22f1 	lu12i.w	$r17,30999(0x7917)
1c001898:	02ba9a31 	addi.w	$r17,$r17,-346(0xea6)
1c00189c:	1400000a 	lu12i.w	$r10,0
1c0018a0:	1400000b 	lu12i.w	$r11,0
1c0018a4:	50001400 	b	20(0x14) # 1c0018b8 <n16_beq_test+0x9f8>
1c0018a8:	154792ea 	lu12i.w	$r10,-377705(0xa3c97)
1c0018ac:	02ab314a 	addi.w	$r10,$r10,-1332(0xacc)
1c0018b0:	580021ac 	beq	$r13,$r12,32(0x20) # 1c0018d0 <n16_beq_test+0xa10>
1c0018b4:	50002400 	b	36(0x24) # 1c0018d8 <n16_beq_test+0xa18>
1c0018b8:	15df61cc 	lu12i.w	$r12,-66802(0xefb0e)
1c0018bc:	02b5f18c 	addi.w	$r12,$r12,-644(0xd7c)
1c0018c0:	15df61cd 	lu12i.w	$r13,-66802(0xefb0e)
1c0018c4:	02b5f1ad 	addi.w	$r13,$r13,-644(0xd7c)
1c0018c8:	5bffe18d 	beq	$r12,$r13,-32(0x3ffe0) # 1c0018a8 <n16_beq_test+0x9e8>
1c0018cc:	50000c00 	b	12(0xc) # 1c0018d8 <n16_beq_test+0xa18>
1c0018d0:	140f22eb 	lu12i.w	$r11,30999(0x7917)
1c0018d4:	02ba996b 	addi.w	$r11,$r11,-346(0xea6)
1c0018d8:	154792fc 	lu12i.w	$r28,-377705(0xa3c97)
1c0018dc:	02ab339c 	addi.w	$r28,$r28,-1332(0xacc)
1c0018e0:	140f22fd 	lu12i.w	$r29,30999(0x7917)
1c0018e4:	02ba9bbd 	addi.w	$r29,$r29,-346(0xea6)
1c0018e8:	5c0bc95c 	bne	$r10,$r28,3016(0xbc8) # 1c0024b0 <inst_error>
1c0018ec:	5c0bc57d 	bne	$r11,$r29,3012(0xbc4) # 1c0024b0 <inst_error>
1c0018f0:	140325d0 	lu12i.w	$r16,6446(0x192e)
1c0018f4:	02b40610 	addi.w	$r16,$r16,-767(0xd01)
1c0018f8:	14955571 	lu12i.w	$r17,305835(0x4aaab)
1c0018fc:	02b68231 	addi.w	$r17,$r17,-608(0xda0)
1c001900:	1400000a 	lu12i.w	$r10,0
1c001904:	1400000b 	lu12i.w	$r11,0
1c001908:	50001400 	b	20(0x14) # 1c00191c <n16_beq_test+0xa5c>
1c00190c:	140325ca 	lu12i.w	$r10,6446(0x192e)
1c001910:	02b4054a 	addi.w	$r10,$r10,-767(0xd01)
1c001914:	580021ac 	beq	$r13,$r12,32(0x20) # 1c001934 <n16_beq_test+0xa74>
1c001918:	50002400 	b	36(0x24) # 1c00193c <n16_beq_test+0xa7c>
1c00191c:	1550efec 	lu12i.w	$r12,-358529(0xa877f)
1c001920:	02a8618c 	addi.w	$r12,$r12,-1512(0xa18)
1c001924:	1550efed 	lu12i.w	$r13,-358529(0xa877f)
1c001928:	02a861ad 	addi.w	$r13,$r13,-1512(0xa18)
1c00192c:	5bffe18d 	beq	$r12,$r13,-32(0x3ffe0) # 1c00190c <n16_beq_test+0xa4c>
1c001930:	50000c00 	b	12(0xc) # 1c00193c <n16_beq_test+0xa7c>
1c001934:	1495556b 	lu12i.w	$r11,305835(0x4aaab)
1c001938:	02b6816b 	addi.w	$r11,$r11,-608(0xda0)
1c00193c:	140325dc 	lu12i.w	$r28,6446(0x192e)
1c001940:	02b4079c 	addi.w	$r28,$r28,-767(0xd01)
1c001944:	1495557d 	lu12i.w	$r29,305835(0x4aaab)
1c001948:	02b683bd 	addi.w	$r29,$r29,-608(0xda0)
1c00194c:	5c0b655c 	bne	$r10,$r28,2916(0xb64) # 1c0024b0 <inst_error>
1c001950:	5c0b617d 	bne	$r11,$r29,2912(0xb60) # 1c0024b0 <inst_error>
1c001954:	14daa550 	lu12i.w	$r16,447786(0x6d52a)
1c001958:	02a54210 	addi.w	$r16,$r16,-1712(0x950)
1c00195c:	14446e31 	lu12i.w	$r17,140145(0x22371)
1c001960:	02ba6231 	addi.w	$r17,$r17,-360(0xe98)
1c001964:	1400000a 	lu12i.w	$r10,0
1c001968:	1400000b 	lu12i.w	$r11,0
1c00196c:	50001400 	b	20(0x14) # 1c001980 <n16_beq_test+0xac0>
1c001970:	14daa54a 	lu12i.w	$r10,447786(0x6d52a)
1c001974:	02a5414a 	addi.w	$r10,$r10,-1712(0x950)
1c001978:	580021ac 	beq	$r13,$r12,32(0x20) # 1c001998 <n16_beq_test+0xad8>
1c00197c:	50002400 	b	36(0x24) # 1c0019a0 <n16_beq_test+0xae0>
1c001980:	1446b6ac 	lu12i.w	$r12,144821(0x235b5)
1c001984:	02b0458c 	addi.w	$r12,$r12,-1007(0xc11)
1c001988:	1446b6ad 	lu12i.w	$r13,144821(0x235b5)
1c00198c:	02b045ad 	addi.w	$r13,$r13,-1007(0xc11)
1c001990:	5bffe18d 	beq	$r12,$r13,-32(0x3ffe0) # 1c001970 <n16_beq_test+0xab0>
1c001994:	50000c00 	b	12(0xc) # 1c0019a0 <n16_beq_test+0xae0>
1c001998:	14446e2b 	lu12i.w	$r11,140145(0x22371)
1c00199c:	02ba616b 	addi.w	$r11,$r11,-360(0xe98)
1c0019a0:	14daa55c 	lu12i.w	$r28,447786(0x6d52a)
1c0019a4:	02a5439c 	addi.w	$r28,$r28,-1712(0x950)
1c0019a8:	14446e3d 	lu12i.w	$r29,140145(0x22371)
1c0019ac:	02ba63bd 	addi.w	$r29,$r29,-360(0xe98)
1c0019b0:	5c0b015c 	bne	$r10,$r28,2816(0xb00) # 1c0024b0 <inst_error>
1c0019b4:	5c0afd7d 	bne	$r11,$r29,2812(0xafc) # 1c0024b0 <inst_error>
1c0019b8:	1435c8b0 	lu12i.w	$r16,110149(0x1ae45)
1c0019bc:	029d8210 	addi.w	$r16,$r16,1888(0x760)
1c0019c0:	14953cd1 	lu12i.w	$r17,305638(0x4a9e6)
1c0019c4:	02ab3a31 	addi.w	$r17,$r17,-1330(0xace)
1c0019c8:	1400000a 	lu12i.w	$r10,0
1c0019cc:	1400000b 	lu12i.w	$r11,0
1c0019d0:	50001400 	b	20(0x14) # 1c0019e4 <n16_beq_test+0xb24>
1c0019d4:	1435c8aa 	lu12i.w	$r10,110149(0x1ae45)
1c0019d8:	029d814a 	addi.w	$r10,$r10,1888(0x760)
1c0019dc:	580021ac 	beq	$r13,$r12,32(0x20) # 1c0019fc <n16_beq_test+0xb3c>
1c0019e0:	50002400 	b	36(0x24) # 1c001a04 <n16_beq_test+0xb44>
1c0019e4:	15f62eec 	lu12i.w	$r12,-20105(0xfb177)
1c0019e8:	0299618c 	addi.w	$r12,$r12,1624(0x658)
1c0019ec:	15f62eed 	lu12i.w	$r13,-20105(0xfb177)
1c0019f0:	029961ad 	addi.w	$r13,$r13,1624(0x658)
1c0019f4:	5bffe18d 	beq	$r12,$r13,-32(0x3ffe0) # 1c0019d4 <n16_beq_test+0xb14>
1c0019f8:	50000c00 	b	12(0xc) # 1c001a04 <n16_beq_test+0xb44>
1c0019fc:	14953ccb 	lu12i.w	$r11,305638(0x4a9e6)
1c001a00:	02ab396b 	addi.w	$r11,$r11,-1330(0xace)
1c001a04:	1435c8bc 	lu12i.w	$r28,110149(0x1ae45)
1c001a08:	029d839c 	addi.w	$r28,$r28,1888(0x760)
1c001a0c:	14953cdd 	lu12i.w	$r29,305638(0x4a9e6)
1c001a10:	02ab3bbd 	addi.w	$r29,$r29,-1330(0xace)
1c001a14:	5c0a9d5c 	bne	$r10,$r28,2716(0xa9c) # 1c0024b0 <inst_error>
1c001a18:	5c0a997d 	bne	$r11,$r29,2712(0xa98) # 1c0024b0 <inst_error>
1c001a1c:	142be150 	lu12i.w	$r16,89866(0x15f0a)
1c001a20:	029e8210 	addi.w	$r16,$r16,1952(0x7a0)
1c001a24:	155d5db1 	lu12i.w	$r17,-333075(0xaeaed)
1c001a28:	02b3b231 	addi.w	$r17,$r17,-788(0xcec)
1c001a2c:	1400000a 	lu12i.w	$r10,0
1c001a30:	1400000b 	lu12i.w	$r11,0
1c001a34:	50001400 	b	20(0x14) # 1c001a48 <n16_beq_test+0xb88>
1c001a38:	142be14a 	lu12i.w	$r10,89866(0x15f0a)
1c001a3c:	029e814a 	addi.w	$r10,$r10,1952(0x7a0)
1c001a40:	580021ac 	beq	$r13,$r12,32(0x20) # 1c001a60 <n16_beq_test+0xba0>
1c001a44:	50002400 	b	36(0x24) # 1c001a68 <n16_beq_test+0xba8>
1c001a48:	151fae2c 	lu12i.w	$r12,-459407(0x8fd71)
1c001a4c:	02a1018c 	addi.w	$r12,$r12,-1984(0x840)
1c001a50:	151fae2d 	lu12i.w	$r13,-459407(0x8fd71)
1c001a54:	02a101ad 	addi.w	$r13,$r13,-1984(0x840)
1c001a58:	5bffe18d 	beq	$r12,$r13,-32(0x3ffe0) # 1c001a38 <n16_beq_test+0xb78>
1c001a5c:	50000c00 	b	12(0xc) # 1c001a68 <n16_beq_test+0xba8>
1c001a60:	155d5dab 	lu12i.w	$r11,-333075(0xaeaed)
1c001a64:	02b3b16b 	addi.w	$r11,$r11,-788(0xcec)
1c001a68:	142be15c 	lu12i.w	$r28,89866(0x15f0a)
1c001a6c:	029e839c 	addi.w	$r28,$r28,1952(0x7a0)
1c001a70:	155d5dbd 	lu12i.w	$r29,-333075(0xaeaed)
1c001a74:	02b3b3bd 	addi.w	$r29,$r29,-788(0xcec)
1c001a78:	5c0a395c 	bne	$r10,$r28,2616(0xa38) # 1c0024b0 <inst_error>
1c001a7c:	5c0a357d 	bne	$r11,$r29,2612(0xa34) # 1c0024b0 <inst_error>
1c001a80:	15e2ed10 	lu12i.w	$r16,-59544(0xf1768)
1c001a84:	0281fa10 	addi.w	$r16,$r16,126(0x7e)
1c001a88:	14b5d251 	lu12i.w	$r17,372370(0x5ae92)
1c001a8c:	02bdf231 	addi.w	$r17,$r17,-132(0xf7c)
1c001a90:	1400000a 	lu12i.w	$r10,0
1c001a94:	1400000b 	lu12i.w	$r11,0
1c001a98:	50001400 	b	20(0x14) # 1c001aac <n16_beq_test+0xbec>
1c001a9c:	15e2ed0a 	lu12i.w	$r10,-59544(0xf1768)
1c001aa0:	0281f94a 	addi.w	$r10,$r10,126(0x7e)
1c001aa4:	580021ac 	beq	$r13,$r12,32(0x20) # 1c001ac4 <n16_beq_test+0xc04>
1c001aa8:	50002400 	b	36(0x24) # 1c001acc <n16_beq_test+0xc0c>
1c001aac:	15bf352c 	lu12i.w	$r12,-132695(0xdf9a9)
1c001ab0:	02a9698c 	addi.w	$r12,$r12,-1446(0xa5a)
1c001ab4:	15bf352d 	lu12i.w	$r13,-132695(0xdf9a9)
1c001ab8:	02a969ad 	addi.w	$r13,$r13,-1446(0xa5a)
1c001abc:	5bffe18d 	beq	$r12,$r13,-32(0x3ffe0) # 1c001a9c <n16_beq_test+0xbdc>
1c001ac0:	50000c00 	b	12(0xc) # 1c001acc <n16_beq_test+0xc0c>
1c001ac4:	14b5d24b 	lu12i.w	$r11,372370(0x5ae92)
1c001ac8:	02bdf16b 	addi.w	$r11,$r11,-132(0xf7c)
1c001acc:	15e2ed1c 	lu12i.w	$r28,-59544(0xf1768)
1c001ad0:	0281fb9c 	addi.w	$r28,$r28,126(0x7e)
1c001ad4:	14b5d25d 	lu12i.w	$r29,372370(0x5ae92)
1c001ad8:	02bdf3bd 	addi.w	$r29,$r29,-132(0xf7c)
1c001adc:	5c09d55c 	bne	$r10,$r28,2516(0x9d4) # 1c0024b0 <inst_error>
1c001ae0:	5c09d17d 	bne	$r11,$r29,2512(0x9d0) # 1c0024b0 <inst_error>
1c001ae4:	15982d50 	lu12i.w	$r16,-212630(0xcc16a)
1c001ae8:	02a1a610 	addi.w	$r16,$r16,-1943(0x869)
1c001aec:	1538e591 	lu12i.w	$r17,-407764(0x9c72c)
1c001af0:	02b65a31 	addi.w	$r17,$r17,-618(0xd96)
1c001af4:	1400000a 	lu12i.w	$r10,0
1c001af8:	1400000b 	lu12i.w	$r11,0
1c001afc:	50001400 	b	20(0x14) # 1c001b10 <n16_beq_test+0xc50>
1c001b00:	15982d4a 	lu12i.w	$r10,-212630(0xcc16a)
1c001b04:	02a1a54a 	addi.w	$r10,$r10,-1943(0x869)
1c001b08:	580021ac 	beq	$r13,$r12,32(0x20) # 1c001b28 <n16_beq_test+0xc68>
1c001b0c:	50002400 	b	36(0x24) # 1c001b30 <n16_beq_test+0xc70>
1c001b10:	159b8ccc 	lu12i.w	$r12,-205722(0xcdc66)
1c001b14:	0295f18c 	addi.w	$r12,$r12,1404(0x57c)
1c001b18:	159b8ccd 	lu12i.w	$r13,-205722(0xcdc66)
1c001b1c:	0295f1ad 	addi.w	$r13,$r13,1404(0x57c)
1c001b20:	5bffe18d 	beq	$r12,$r13,-32(0x3ffe0) # 1c001b00 <n16_beq_test+0xc40>
1c001b24:	50000c00 	b	12(0xc) # 1c001b30 <n16_beq_test+0xc70>
1c001b28:	1538e58b 	lu12i.w	$r11,-407764(0x9c72c)
1c001b2c:	02b6596b 	addi.w	$r11,$r11,-618(0xd96)
1c001b30:	15982d5c 	lu12i.w	$r28,-212630(0xcc16a)
1c001b34:	02a1a79c 	addi.w	$r28,$r28,-1943(0x869)
1c001b38:	1538e59d 	lu12i.w	$r29,-407764(0x9c72c)
1c001b3c:	02b65bbd 	addi.w	$r29,$r29,-618(0xd96)
1c001b40:	5c09715c 	bne	$r10,$r28,2416(0x970) # 1c0024b0 <inst_error>
1c001b44:	5c096d7d 	bne	$r11,$r29,2412(0x96c) # 1c0024b0 <inst_error>
1c001b48:	14fa00b0 	lu12i.w	$r16,512005(0x7d005)
1c001b4c:	028a1210 	addi.w	$r16,$r16,644(0x284)
1c001b50:	15a3d2b1 	lu12i.w	$r17,-188779(0xd1e95)
1c001b54:	02803231 	addi.w	$r17,$r17,12(0xc)
1c001b58:	1400000a 	lu12i.w	$r10,0
1c001b5c:	1400000b 	lu12i.w	$r11,0
1c001b60:	50001400 	b	20(0x14) # 1c001b74 <n16_beq_test+0xcb4>
1c001b64:	14fa00aa 	lu12i.w	$r10,512005(0x7d005)
1c001b68:	028a114a 	addi.w	$r10,$r10,644(0x284)
1c001b6c:	580021ac 	beq	$r13,$r12,32(0x20) # 1c001b8c <n16_beq_test+0xccc>
1c001b70:	50002400 	b	36(0x24) # 1c001b94 <n16_beq_test+0xcd4>
1c001b74:	15e2df2c 	lu12i.w	$r12,-59655(0xf16f9)
1c001b78:	02ab118c 	addi.w	$r12,$r12,-1340(0xac4)
1c001b7c:	15e2df2d 	lu12i.w	$r13,-59655(0xf16f9)
1c001b80:	02ab11ad 	addi.w	$r13,$r13,-1340(0xac4)
1c001b84:	5bffe18d 	beq	$r12,$r13,-32(0x3ffe0) # 1c001b64 <n16_beq_test+0xca4>
1c001b88:	50000c00 	b	12(0xc) # 1c001b94 <n16_beq_test+0xcd4>
1c001b8c:	15a3d2ab 	lu12i.w	$r11,-188779(0xd1e95)
1c001b90:	0280316b 	addi.w	$r11,$r11,12(0xc)
1c001b94:	14fa00bc 	lu12i.w	$r28,512005(0x7d005)
1c001b98:	028a139c 	addi.w	$r28,$r28,644(0x284)
1c001b9c:	15a3d2bd 	lu12i.w	$r29,-188779(0xd1e95)
1c001ba0:	028033bd 	addi.w	$r29,$r29,12(0xc)
1c001ba4:	5c090d5c 	bne	$r10,$r28,2316(0x90c) # 1c0024b0 <inst_error>
1c001ba8:	5c09097d 	bne	$r11,$r29,2312(0x908) # 1c0024b0 <inst_error>
1c001bac:	1499f430 	lu12i.w	$r16,315297(0x4cfa1)
1c001bb0:	02bb6a10 	addi.w	$r16,$r16,-294(0xeda)
1c001bb4:	146984f1 	lu12i.w	$r17,216103(0x34c27)
1c001bb8:	028e4231 	addi.w	$r17,$r17,912(0x390)
1c001bbc:	1400000a 	lu12i.w	$r10,0
1c001bc0:	1400000b 	lu12i.w	$r11,0
1c001bc4:	50001400 	b	20(0x14) # 1c001bd8 <n16_beq_test+0xd18>
1c001bc8:	1499f42a 	lu12i.w	$r10,315297(0x4cfa1)
1c001bcc:	02bb694a 	addi.w	$r10,$r10,-294(0xeda)
1c001bd0:	580021ac 	beq	$r13,$r12,32(0x20) # 1c001bf0 <n16_beq_test+0xd30>
1c001bd4:	50002400 	b	36(0x24) # 1c001bf8 <n16_beq_test+0xd38>
1c001bd8:	1449870c 	lu12i.w	$r12,150584(0x24c38)
1c001bdc:	02b9e18c 	addi.w	$r12,$r12,-392(0xe78)
1c001be0:	1449870d 	lu12i.w	$r13,150584(0x24c38)
1c001be4:	02b9e1ad 	addi.w	$r13,$r13,-392(0xe78)
1c001be8:	5bffe18d 	beq	$r12,$r13,-32(0x3ffe0) # 1c001bc8 <n16_beq_test+0xd08>
1c001bec:	50000c00 	b	12(0xc) # 1c001bf8 <n16_beq_test+0xd38>
1c001bf0:	146984eb 	lu12i.w	$r11,216103(0x34c27)
1c001bf4:	028e416b 	addi.w	$r11,$r11,912(0x390)
1c001bf8:	1499f43c 	lu12i.w	$r28,315297(0x4cfa1)
1c001bfc:	02bb6b9c 	addi.w	$r28,$r28,-294(0xeda)
1c001c00:	146984fd 	lu12i.w	$r29,216103(0x34c27)
1c001c04:	028e43bd 	addi.w	$r29,$r29,912(0x390)
1c001c08:	5c08a95c 	bne	$r10,$r28,2216(0x8a8) # 1c0024b0 <inst_error>
1c001c0c:	5c08a57d 	bne	$r11,$r29,2212(0x8a4) # 1c0024b0 <inst_error>
1c001c10:	148a1d10 	lu12i.w	$r16,282856(0x450e8)
1c001c14:	02b03210 	addi.w	$r16,$r16,-1012(0xc0c)
1c001c18:	14c73a31 	lu12i.w	$r17,408017(0x639d1)
1c001c1c:	02bbe231 	addi.w	$r17,$r17,-264(0xef8)
1c001c20:	1400000a 	lu12i.w	$r10,0
1c001c24:	1400000b 	lu12i.w	$r11,0
1c001c28:	50001400 	b	20(0x14) # 1c001c3c <n16_beq_test+0xd7c>
1c001c2c:	148a1d0a 	lu12i.w	$r10,282856(0x450e8)
1c001c30:	02b0314a 	addi.w	$r10,$r10,-1012(0xc0c)
1c001c34:	580021ac 	beq	$r13,$r12,32(0x20) # 1c001c54 <n16_beq_test+0xd94>
1c001c38:	50002400 	b	36(0x24) # 1c001c5c <n16_beq_test+0xd9c>
1c001c3c:	1556700c 	lu12i.w	$r12,-347264(0xab380)
1c001c40:	02b7b18c 	addi.w	$r12,$r12,-532(0xdec)
1c001c44:	1556700d 	lu12i.w	$r13,-347264(0xab380)
1c001c48:	02b7b1ad 	addi.w	$r13,$r13,-532(0xdec)
1c001c4c:	5bffe18d 	beq	$r12,$r13,-32(0x3ffe0) # 1c001c2c <n16_beq_test+0xd6c>
1c001c50:	50000c00 	b	12(0xc) # 1c001c5c <n16_beq_test+0xd9c>
1c001c54:	14c73a2b 	lu12i.w	$r11,408017(0x639d1)
1c001c58:	02bbe16b 	addi.w	$r11,$r11,-264(0xef8)
1c001c5c:	148a1d1c 	lu12i.w	$r28,282856(0x450e8)
1c001c60:	02b0339c 	addi.w	$r28,$r28,-1012(0xc0c)
1c001c64:	14c73a3d 	lu12i.w	$r29,408017(0x639d1)
1c001c68:	02bbe3bd 	addi.w	$r29,$r29,-264(0xef8)
1c001c6c:	5c08455c 	bne	$r10,$r28,2116(0x844) # 1c0024b0 <inst_error>
1c001c70:	5c08417d 	bne	$r11,$r29,2112(0x840) # 1c0024b0 <inst_error>
1c001c74:	14b64d50 	lu12i.w	$r16,373354(0x5b26a)
1c001c78:	02bde210 	addi.w	$r16,$r16,-136(0xf78)
1c001c7c:	15812a71 	lu12i.w	$r17,-259757(0xc0953)
1c001c80:	02aa0231 	addi.w	$r17,$r17,-1408(0xa80)
1c001c84:	1400000a 	lu12i.w	$r10,0
1c001c88:	1400000b 	lu12i.w	$r11,0
1c001c8c:	50001400 	b	20(0x14) # 1c001ca0 <n16_beq_test+0xde0>
1c001c90:	14b64d4a 	lu12i.w	$r10,373354(0x5b26a)
1c001c94:	02bde14a 	addi.w	$r10,$r10,-136(0xf78)
1c001c98:	580021ac 	beq	$r13,$r12,32(0x20) # 1c001cb8 <n16_beq_test+0xdf8>
1c001c9c:	50002400 	b	36(0x24) # 1c001cc0 <n16_beq_test+0xe00>
1c001ca0:	1446b08c 	lu12i.w	$r12,144772(0x23584)
1c001ca4:	028f018c 	addi.w	$r12,$r12,960(0x3c0)
1c001ca8:	1446b08d 	lu12i.w	$r13,144772(0x23584)
1c001cac:	028f01ad 	addi.w	$r13,$r13,960(0x3c0)
1c001cb0:	5bffe18d 	beq	$r12,$r13,-32(0x3ffe0) # 1c001c90 <n16_beq_test+0xdd0>
1c001cb4:	50000c00 	b	12(0xc) # 1c001cc0 <n16_beq_test+0xe00>
1c001cb8:	15812a6b 	lu12i.w	$r11,-259757(0xc0953)
1c001cbc:	02aa016b 	addi.w	$r11,$r11,-1408(0xa80)
1c001cc0:	14b64d5c 	lu12i.w	$r28,373354(0x5b26a)
1c001cc4:	02bde39c 	addi.w	$r28,$r28,-136(0xf78)
1c001cc8:	15812a7d 	lu12i.w	$r29,-259757(0xc0953)
1c001ccc:	02aa03bd 	addi.w	$r29,$r29,-1408(0xa80)
1c001cd0:	5c07e15c 	bne	$r10,$r28,2016(0x7e0) # 1c0024b0 <inst_error>
1c001cd4:	5c07dd7d 	bne	$r11,$r29,2012(0x7dc) # 1c0024b0 <inst_error>
1c001cd8:	148e8190 	lu12i.w	$r16,291852(0x4740c)
1c001cdc:	02adfa10 	addi.w	$r16,$r16,-1154(0xb7e)
1c001ce0:	153d5031 	lu12i.w	$r17,-398719(0x9ea81)
1c001ce4:	02b14231 	addi.w	$r17,$r17,-944(0xc50)
1c001ce8:	1400000a 	lu12i.w	$r10,0
1c001cec:	1400000b 	lu12i.w	$r11,0
1c001cf0:	50001400 	b	20(0x14) # 1c001d04 <n16_beq_test+0xe44>
1c001cf4:	148e818a 	lu12i.w	$r10,291852(0x4740c)
1c001cf8:	02adf94a 	addi.w	$r10,$r10,-1154(0xb7e)
1c001cfc:	580021ac 	beq	$r13,$r12,32(0x20) # 1c001d1c <n16_beq_test+0xe5c>
1c001d00:	50002400 	b	36(0x24) # 1c001d24 <n16_beq_test+0xe64>
1c001d04:	143febac 	lu12i.w	$r12,130909(0x1ff5d)
1c001d08:	0291798c 	addi.w	$r12,$r12,1118(0x45e)
1c001d0c:	143febad 	lu12i.w	$r13,130909(0x1ff5d)
1c001d10:	029179ad 	addi.w	$r13,$r13,1118(0x45e)
1c001d14:	5bffe18d 	beq	$r12,$r13,-32(0x3ffe0) # 1c001cf4 <n16_beq_test+0xe34>
1c001d18:	50000c00 	b	12(0xc) # 1c001d24 <n16_beq_test+0xe64>
1c001d1c:	153d502b 	lu12i.w	$r11,-398719(0x9ea81)
1c001d20:	02b1416b 	addi.w	$r11,$r11,-944(0xc50)
1c001d24:	148e819c 	lu12i.w	$r28,291852(0x4740c)
1c001d28:	02adfb9c 	addi.w	$r28,$r28,-1154(0xb7e)
1c001d2c:	153d503d 	lu12i.w	$r29,-398719(0x9ea81)
1c001d30:	02b143bd 	addi.w	$r29,$r29,-944(0xc50)
1c001d34:	5c077d5c 	bne	$r10,$r28,1916(0x77c) # 1c0024b0 <inst_error>
1c001d38:	5c07797d 	bne	$r11,$r29,1912(0x778) # 1c0024b0 <inst_error>
1c001d3c:	153ac0d0 	lu12i.w	$r16,-403962(0x9d606)
1c001d40:	029af210 	addi.w	$r16,$r16,1724(0x6bc)
1c001d44:	156b20b1 	lu12i.w	$r17,-304891(0xb5905)
1c001d48:	02974231 	addi.w	$r17,$r17,1488(0x5d0)
1c001d4c:	1400000a 	lu12i.w	$r10,0
1c001d50:	1400000b 	lu12i.w	$r11,0
1c001d54:	50001400 	b	20(0x14) # 1c001d68 <n16_beq_test+0xea8>
1c001d58:	153ac0ca 	lu12i.w	$r10,-403962(0x9d606)
1c001d5c:	029af14a 	addi.w	$r10,$r10,1724(0x6bc)
1c001d60:	580021ac 	beq	$r13,$r12,32(0x20) # 1c001d80 <n16_beq_test+0xec0>
1c001d64:	50002400 	b	36(0x24) # 1c001d88 <n16_beq_test+0xec8>
1c001d68:	15dfc20c 	lu12i.w	$r12,-66032(0xefe10)
1c001d6c:	028f018c 	addi.w	$r12,$r12,960(0x3c0)
1c001d70:	15dfc20d 	lu12i.w	$r13,-66032(0xefe10)
1c001d74:	028f01ad 	addi.w	$r13,$r13,960(0x3c0)
1c001d78:	5bffe18d 	beq	$r12,$r13,-32(0x3ffe0) # 1c001d58 <n16_beq_test+0xe98>
1c001d7c:	50000c00 	b	12(0xc) # 1c001d88 <n16_beq_test+0xec8>
1c001d80:	156b20ab 	lu12i.w	$r11,-304891(0xb5905)
1c001d84:	0297416b 	addi.w	$r11,$r11,1488(0x5d0)
1c001d88:	153ac0dc 	lu12i.w	$r28,-403962(0x9d606)
1c001d8c:	029af39c 	addi.w	$r28,$r28,1724(0x6bc)
1c001d90:	156b20bd 	lu12i.w	$r29,-304891(0xb5905)
1c001d94:	029743bd 	addi.w	$r29,$r29,1488(0x5d0)
1c001d98:	5c07195c 	bne	$r10,$r28,1816(0x718) # 1c0024b0 <inst_error>
1c001d9c:	5c07157d 	bne	$r11,$r29,1812(0x714) # 1c0024b0 <inst_error>
1c001da0:	151c1a30 	lu12i.w	$r16,-466735(0x8e0d1)
1c001da4:	02baaa10 	addi.w	$r16,$r16,-342(0xeaa)
1c001da8:	15524e11 	lu12i.w	$r17,-355728(0xa9270)
1c001dac:	02ba0231 	addi.w	$r17,$r17,-384(0xe80)
1c001db0:	1400000a 	lu12i.w	$r10,0
1c001db4:	1400000b 	lu12i.w	$r11,0
1c001db8:	50001400 	b	20(0x14) # 1c001dcc <n16_beq_test+0xf0c>
1c001dbc:	151c1a2a 	lu12i.w	$r10,-466735(0x8e0d1)
1c001dc0:	02baa94a 	addi.w	$r10,$r10,-342(0xeaa)
1c001dc4:	580021ac 	beq	$r13,$r12,32(0x20) # 1c001de4 <n16_beq_test+0xf24>
1c001dc8:	50002400 	b	36(0x24) # 1c001dec <n16_beq_test+0xf2c>
1c001dcc:	147cfeac 	lu12i.w	$r12,255989(0x3e7f5)
1c001dd0:	02aad18c 	addi.w	$r12,$r12,-1356(0xab4)
1c001dd4:	147cfead 	lu12i.w	$r13,255989(0x3e7f5)
1c001dd8:	02aad1ad 	addi.w	$r13,$r13,-1356(0xab4)
1c001ddc:	5bffe18d 	beq	$r12,$r13,-32(0x3ffe0) # 1c001dbc <n16_beq_test+0xefc>
1c001de0:	50000c00 	b	12(0xc) # 1c001dec <n16_beq_test+0xf2c>
1c001de4:	15524e0b 	lu12i.w	$r11,-355728(0xa9270)
1c001de8:	02ba016b 	addi.w	$r11,$r11,-384(0xe80)
1c001dec:	151c1a3c 	lu12i.w	$r28,-466735(0x8e0d1)
1c001df0:	02baab9c 	addi.w	$r28,$r28,-342(0xeaa)
1c001df4:	15524e1d 	lu12i.w	$r29,-355728(0xa9270)
1c001df8:	02ba03bd 	addi.w	$r29,$r29,-384(0xe80)
1c001dfc:	5c06b55c 	bne	$r10,$r28,1716(0x6b4) # 1c0024b0 <inst_error>
1c001e00:	5c06b17d 	bne	$r11,$r29,1712(0x6b0) # 1c0024b0 <inst_error>
1c001e04:	15d5ea30 	lu12i.w	$r16,-86191(0xeaf51)
1c001e08:	02889210 	addi.w	$r16,$r16,548(0x224)
1c001e0c:	1530f271 	lu12i.w	$r17,-424045(0x98793)
1c001e10:	0292f231 	addi.w	$r17,$r17,1212(0x4bc)
1c001e14:	1400000a 	lu12i.w	$r10,0
1c001e18:	1400000b 	lu12i.w	$r11,0
1c001e1c:	50001400 	b	20(0x14) # 1c001e30 <n16_beq_test+0xf70>
1c001e20:	15d5ea2a 	lu12i.w	$r10,-86191(0xeaf51)
1c001e24:	0288914a 	addi.w	$r10,$r10,548(0x224)
1c001e28:	580021ac 	beq	$r13,$r12,32(0x20) # 1c001e48 <n16_beq_test+0xf88>
1c001e2c:	50002400 	b	36(0x24) # 1c001e50 <n16_beq_test+0xf90>
1c001e30:	14138dcc 	lu12i.w	$r12,40046(0x9c6e)
1c001e34:	02ab698c 	addi.w	$r12,$r12,-1318(0xada)
1c001e38:	14138dcd 	lu12i.w	$r13,40046(0x9c6e)
1c001e3c:	02ab69ad 	addi.w	$r13,$r13,-1318(0xada)
1c001e40:	5bffe18d 	beq	$r12,$r13,-32(0x3ffe0) # 1c001e20 <n16_beq_test+0xf60>
1c001e44:	50000c00 	b	12(0xc) # 1c001e50 <n16_beq_test+0xf90>
1c001e48:	1530f26b 	lu12i.w	$r11,-424045(0x98793)
1c001e4c:	0292f16b 	addi.w	$r11,$r11,1212(0x4bc)
1c001e50:	15d5ea3c 	lu12i.w	$r28,-86191(0xeaf51)
1c001e54:	0288939c 	addi.w	$r28,$r28,548(0x224)
1c001e58:	1530f27d 	lu12i.w	$r29,-424045(0x98793)
1c001e5c:	0292f3bd 	addi.w	$r29,$r29,1212(0x4bc)
1c001e60:	5c06515c 	bne	$r10,$r28,1616(0x650) # 1c0024b0 <inst_error>
1c001e64:	5c064d7d 	bne	$r11,$r29,1612(0x64c) # 1c0024b0 <inst_error>
1c001e68:	1589b010 	lu12i.w	$r16,-242304(0xc4d80)
1c001e6c:	02b50210 	addi.w	$r16,$r16,-704(0xd40)
1c001e70:	159d56b1 	lu12i.w	$r17,-202059(0xceab5)
1c001e74:	02921231 	addi.w	$r17,$r17,1156(0x484)
1c001e78:	1400000a 	lu12i.w	$r10,0
1c001e7c:	1400000b 	lu12i.w	$r11,0
1c001e80:	50001400 	b	20(0x14) # 1c001e94 <n16_beq_test+0xfd4>
1c001e84:	1589b00a 	lu12i.w	$r10,-242304(0xc4d80)
1c001e88:	02b5014a 	addi.w	$r10,$r10,-704(0xd40)
1c001e8c:	580021ac 	beq	$r13,$r12,32(0x20) # 1c001eac <n16_beq_test+0xfec>
1c001e90:	50002400 	b	36(0x24) # 1c001eb4 <n16_beq_test+0xff4>
1c001e94:	148af34c 	lu12i.w	$r12,284570(0x4579a)
1c001e98:	0298f18c 	addi.w	$r12,$r12,1596(0x63c)
1c001e9c:	148af34d 	lu12i.w	$r13,284570(0x4579a)
1c001ea0:	0298f1ad 	addi.w	$r13,$r13,1596(0x63c)
1c001ea4:	5bffe18d 	beq	$r12,$r13,-32(0x3ffe0) # 1c001e84 <n16_beq_test+0xfc4>
1c001ea8:	50000c00 	b	12(0xc) # 1c001eb4 <n16_beq_test+0xff4>
1c001eac:	159d56ab 	lu12i.w	$r11,-202059(0xceab5)
1c001eb0:	0292116b 	addi.w	$r11,$r11,1156(0x484)
1c001eb4:	1589b01c 	lu12i.w	$r28,-242304(0xc4d80)
1c001eb8:	02b5039c 	addi.w	$r28,$r28,-704(0xd40)
1c001ebc:	159d56bd 	lu12i.w	$r29,-202059(0xceab5)
1c001ec0:	029213bd 	addi.w	$r29,$r29,1156(0x484)
1c001ec4:	5c05ed5c 	bne	$r10,$r28,1516(0x5ec) # 1c0024b0 <inst_error>
1c001ec8:	5c05e97d 	bne	$r11,$r29,1512(0x5e8) # 1c0024b0 <inst_error>
1c001ecc:	15bd4c90 	lu12i.w	$r16,-136604(0xdea64)
1c001ed0:	02aa8210 	addi.w	$r16,$r16,-1376(0xaa0)
1c001ed4:	15dff991 	lu12i.w	$r17,-65588(0xeffcc)
1c001ed8:	028a3a31 	addi.w	$r17,$r17,654(0x28e)
1c001edc:	1400000a 	lu12i.w	$r10,0
1c001ee0:	1400000b 	lu12i.w	$r11,0
1c001ee4:	50001400 	b	20(0x14) # 1c001ef8 <n16_beq_test+0x1038>
1c001ee8:	15bd4c8a 	lu12i.w	$r10,-136604(0xdea64)
1c001eec:	02aa814a 	addi.w	$r10,$r10,-1376(0xaa0)
1c001ef0:	580021ac 	beq	$r13,$r12,32(0x20) # 1c001f10 <n16_beq_test+0x1050>
1c001ef4:	50002400 	b	36(0x24) # 1c001f18 <n16_beq_test+0x1058>
1c001ef8:	15d7be8c 	lu12i.w	$r12,-82444(0xebdf4)
1c001efc:	02afb18c 	addi.w	$r12,$r12,-1044(0xbec)
1c001f00:	15d7be8d 	lu12i.w	$r13,-82444(0xebdf4)
1c001f04:	02afb1ad 	addi.w	$r13,$r13,-1044(0xbec)
1c001f08:	5bffe18d 	beq	$r12,$r13,-32(0x3ffe0) # 1c001ee8 <n16_beq_test+0x1028>
1c001f0c:	50000c00 	b	12(0xc) # 1c001f18 <n16_beq_test+0x1058>
1c001f10:	15dff98b 	lu12i.w	$r11,-65588(0xeffcc)
1c001f14:	028a396b 	addi.w	$r11,$r11,654(0x28e)
1c001f18:	15bd4c9c 	lu12i.w	$r28,-136604(0xdea64)
1c001f1c:	02aa839c 	addi.w	$r28,$r28,-1376(0xaa0)
1c001f20:	15dff99d 	lu12i.w	$r29,-65588(0xeffcc)
1c001f24:	028a3bbd 	addi.w	$r29,$r29,654(0x28e)
1c001f28:	5c05895c 	bne	$r10,$r28,1416(0x588) # 1c0024b0 <inst_error>
1c001f2c:	5c05857d 	bne	$r11,$r29,1412(0x584) # 1c0024b0 <inst_error>
1c001f30:	151bc650 	lu12i.w	$r16,-467406(0x8de32)
1c001f34:	0281de10 	addi.w	$r16,$r16,119(0x77)
1c001f38:	15a92cb1 	lu12i.w	$r17,-177819(0xd4965)
1c001f3c:	02a9f231 	addi.w	$r17,$r17,-1412(0xa7c)
1c001f40:	1400000a 	lu12i.w	$r10,0
1c001f44:	1400000b 	lu12i.w	$r11,0
1c001f48:	50001400 	b	20(0x14) # 1c001f5c <n16_beq_test+0x109c>
1c001f4c:	151bc64a 	lu12i.w	$r10,-467406(0x8de32)
1c001f50:	0281dd4a 	addi.w	$r10,$r10,119(0x77)
1c001f54:	580021ac 	beq	$r13,$r12,32(0x20) # 1c001f74 <n16_beq_test+0x10b4>
1c001f58:	50002400 	b	36(0x24) # 1c001f7c <n16_beq_test+0x10bc>
1c001f5c:	15be6a2c 	lu12i.w	$r12,-134319(0xdf351)
1c001f60:	0296318c 	addi.w	$r12,$r12,1420(0x58c)
1c001f64:	15be6a2d 	lu12i.w	$r13,-134319(0xdf351)
1c001f68:	029631ad 	addi.w	$r13,$r13,1420(0x58c)
1c001f6c:	5bffe18d 	beq	$r12,$r13,-32(0x3ffe0) # 1c001f4c <n16_beq_test+0x108c>
1c001f70:	50000c00 	b	12(0xc) # 1c001f7c <n16_beq_test+0x10bc>
1c001f74:	15a92cab 	lu12i.w	$r11,-177819(0xd4965)
1c001f78:	02a9f16b 	addi.w	$r11,$r11,-1412(0xa7c)
1c001f7c:	151bc65c 	lu12i.w	$r28,-467406(0x8de32)
1c001f80:	0281df9c 	addi.w	$r28,$r28,119(0x77)
1c001f84:	15a92cbd 	lu12i.w	$r29,-177819(0xd4965)
1c001f88:	02a9f3bd 	addi.w	$r29,$r29,-1412(0xa7c)
1c001f8c:	5c05255c 	bne	$r10,$r28,1316(0x524) # 1c0024b0 <inst_error>
1c001f90:	5c05217d 	bne	$r11,$r29,1312(0x520) # 1c0024b0 <inst_error>
1c001f94:	15c23070 	lu12i.w	$r16,-126589(0xe1183)
1c001f98:	02b33610 	addi.w	$r16,$r16,-819(0xccd)
1c001f9c:	15c0c251 	lu12i.w	$r17,-129518(0xe0612)
1c001fa0:	02800231 	addi.w	$r17,$r17,0
1c001fa4:	1400000a 	lu12i.w	$r10,0
1c001fa8:	1400000b 	lu12i.w	$r11,0
1c001fac:	50001400 	b	20(0x14) # 1c001fc0 <n16_beq_test+0x1100>
1c001fb0:	15c2306a 	lu12i.w	$r10,-126589(0xe1183)
1c001fb4:	02b3354a 	addi.w	$r10,$r10,-819(0xccd)
1c001fb8:	580021ac 	beq	$r13,$r12,32(0x20) # 1c001fd8 <n16_beq_test+0x1118>
1c001fbc:	50002400 	b	36(0x24) # 1c001fe0 <n16_beq_test+0x1120>
1c001fc0:	15bdd7ec 	lu12i.w	$r12,-135489(0xdeebf)
1c001fc4:	02b4098c 	addi.w	$r12,$r12,-766(0xd02)
1c001fc8:	1400000d 	lu12i.w	$r13,0
1c001fcc:	028001ad 	addi.w	$r13,$r13,0
1c001fd0:	5bffe18d 	beq	$r12,$r13,-32(0x3ffe0) # 1c001fb0 <n16_beq_test+0x10f0>
1c001fd4:	50000c00 	b	12(0xc) # 1c001fe0 <n16_beq_test+0x1120>
1c001fd8:	15c0c24b 	lu12i.w	$r11,-129518(0xe0612)
1c001fdc:	0280016b 	addi.w	$r11,$r11,0
1c001fe0:	1400001c 	lu12i.w	$r28,0
1c001fe4:	0280039c 	addi.w	$r28,$r28,0
1c001fe8:	1400001d 	lu12i.w	$r29,0
1c001fec:	028003bd 	addi.w	$r29,$r29,0
1c001ff0:	5c04c15c 	bne	$r10,$r28,1216(0x4c0) # 1c0024b0 <inst_error>
1c001ff4:	5c04bd7d 	bne	$r11,$r29,1212(0x4bc) # 1c0024b0 <inst_error>
1c001ff8:	15b1e310 	lu12i.w	$r16,-159976(0xd8f18)
1c001ffc:	02bb8210 	addi.w	$r16,$r16,-288(0xee0)
1c002000:	15322631 	lu12i.w	$r17,-421583(0x99131)
1c002004:	02963631 	addi.w	$r17,$r17,1421(0x58d)
1c002008:	1400000a 	lu12i.w	$r10,0
1c00200c:	1400000b 	lu12i.w	$r11,0
1c002010:	50001400 	b	20(0x14) # 1c002024 <n16_beq_test+0x1164>
1c002014:	15b1e30a 	lu12i.w	$r10,-159976(0xd8f18)
1c002018:	02bb814a 	addi.w	$r10,$r10,-288(0xee0)
1c00201c:	580021ac 	beq	$r13,$r12,32(0x20) # 1c00203c <n16_beq_test+0x117c>
1c002020:	50002400 	b	36(0x24) # 1c002044 <n16_beq_test+0x1184>
1c002024:	144465ec 	lu12i.w	$r12,140079(0x2232f)
1c002028:	02b6018c 	addi.w	$r12,$r12,-640(0xd80)
1c00202c:	1400000d 	lu12i.w	$r13,0
1c002030:	028001ad 	addi.w	$r13,$r13,0
1c002034:	5bffe18d 	beq	$r12,$r13,-32(0x3ffe0) # 1c002014 <n16_beq_test+0x1154>
1c002038:	50000c00 	b	12(0xc) # 1c002044 <n16_beq_test+0x1184>
1c00203c:	1532262b 	lu12i.w	$r11,-421583(0x99131)
1c002040:	0296356b 	addi.w	$r11,$r11,1421(0x58d)
1c002044:	1400001c 	lu12i.w	$r28,0
1c002048:	0280039c 	addi.w	$r28,$r28,0
1c00204c:	1400001d 	lu12i.w	$r29,0
1c002050:	028003bd 	addi.w	$r29,$r29,0
1c002054:	5c045d5c 	bne	$r10,$r28,1116(0x45c) # 1c0024b0 <inst_error>
1c002058:	5c04597d 	bne	$r11,$r29,1112(0x458) # 1c0024b0 <inst_error>
1c00205c:	1467b6d0 	lu12i.w	$r16,212406(0x33db6)
1c002060:	02ad2210 	addi.w	$r16,$r16,-1208(0xb48)
1c002064:	1521b0b1 	lu12i.w	$r17,-455291(0x90d85)
1c002068:	02800231 	addi.w	$r17,$r17,0
1c00206c:	1400000a 	lu12i.w	$r10,0
1c002070:	1400000b 	lu12i.w	$r11,0
1c002074:	50001400 	b	20(0x14) # 1c002088 <n16_beq_test+0x11c8>
1c002078:	1467b6ca 	lu12i.w	$r10,212406(0x33db6)
1c00207c:	02ad214a 	addi.w	$r10,$r10,-1208(0xb48)
1c002080:	580021ac 	beq	$r13,$r12,32(0x20) # 1c0020a0 <n16_beq_test+0x11e0>
1c002084:	50002400 	b	36(0x24) # 1c0020a8 <n16_beq_test+0x11e8>
1c002088:	140be06c 	lu12i.w	$r12,24323(0x5f03)
1c00208c:	029b018c 	addi.w	$r12,$r12,1728(0x6c0)
1c002090:	1400000d 	lu12i.w	$r13,0
1c002094:	028001ad 	addi.w	$r13,$r13,0
1c002098:	5bffe18d 	beq	$r12,$r13,-32(0x3ffe0) # 1c002078 <n16_beq_test+0x11b8>
1c00209c:	50000c00 	b	12(0xc) # 1c0020a8 <n16_beq_test+0x11e8>
1c0020a0:	1521b0ab 	lu12i.w	$r11,-455291(0x90d85)
1c0020a4:	0280016b 	addi.w	$r11,$r11,0
1c0020a8:	1400001c 	lu12i.w	$r28,0
1c0020ac:	0280039c 	addi.w	$r28,$r28,0
1c0020b0:	1400001d 	lu12i.w	$r29,0
1c0020b4:	028003bd 	addi.w	$r29,$r29,0
1c0020b8:	5c03f95c 	bne	$r10,$r28,1016(0x3f8) # 1c0024b0 <inst_error>
1c0020bc:	5c03f57d 	bne	$r11,$r29,1012(0x3f4) # 1c0024b0 <inst_error>
1c0020c0:	1469de10 	lu12i.w	$r16,216816(0x34ef0)
1c0020c4:	02a34210 	addi.w	$r16,$r16,-1840(0x8d0)
1c0020c8:	1476ecd1 	lu12i.w	$r17,243558(0x3b766)
1c0020cc:	0287de31 	addi.w	$r17,$r17,503(0x1f7)
1c0020d0:	1400000a 	lu12i.w	$r10,0
1c0020d4:	1400000b 	lu12i.w	$r11,0
1c0020d8:	50001400 	b	20(0x14) # 1c0020ec <n16_beq_test+0x122c>
1c0020dc:	1469de0a 	lu12i.w	$r10,216816(0x34ef0)
1c0020e0:	02a3414a 	addi.w	$r10,$r10,-1840(0x8d0)
1c0020e4:	580021ac 	beq	$r13,$r12,32(0x20) # 1c002104 <n16_beq_test+0x1244>
1c0020e8:	50002400 	b	36(0x24) # 1c00210c <n16_beq_test+0x124c>
1c0020ec:	1470fd2c 	lu12i.w	$r12,231401(0x387e9)
1c0020f0:	028ab18c 	addi.w	$r12,$r12,684(0x2ac)
1c0020f4:	1400000d 	lu12i.w	$r13,0
1c0020f8:	028001ad 	addi.w	$r13,$r13,0
1c0020fc:	5bffe18d 	beq	$r12,$r13,-32(0x3ffe0) # 1c0020dc <n16_beq_test+0x121c>
1c002100:	50000c00 	b	12(0xc) # 1c00210c <n16_beq_test+0x124c>
1c002104:	1476eccb 	lu12i.w	$r11,243558(0x3b766)
1c002108:	0287dd6b 	addi.w	$r11,$r11,503(0x1f7)
1c00210c:	1400001c 	lu12i.w	$r28,0
1c002110:	0280039c 	addi.w	$r28,$r28,0
1c002114:	1400001d 	lu12i.w	$r29,0
1c002118:	028003bd 	addi.w	$r29,$r29,0
1c00211c:	5c03955c 	bne	$r10,$r28,916(0x394) # 1c0024b0 <inst_error>
1c002120:	5c03917d 	bne	$r11,$r29,912(0x390) # 1c0024b0 <inst_error>
1c002124:	153cec50 	lu12i.w	$r16,-399518(0x9e762)
1c002128:	02b16210 	addi.w	$r16,$r16,-936(0xc58)
1c00212c:	152537f1 	lu12i.w	$r17,-448065(0x929bf)
1c002130:	02832231 	addi.w	$r17,$r17,200(0xc8)
1c002134:	1400000a 	lu12i.w	$r10,0
1c002138:	1400000b 	lu12i.w	$r11,0
1c00213c:	50001400 	b	20(0x14) # 1c002150 <n16_beq_test+0x1290>
1c002140:	153cec4a 	lu12i.w	$r10,-399518(0x9e762)
1c002144:	02b1614a 	addi.w	$r10,$r10,-936(0xc58)
1c002148:	580021ac 	beq	$r13,$r12,32(0x20) # 1c002168 <n16_beq_test+0x12a8>
1c00214c:	50002400 	b	36(0x24) # 1c002170 <n16_beq_test+0x12b0>
1c002150:	14a11f2c 	lu12i.w	$r12,329977(0x508f9)
1c002154:	0286e18c 	addi.w	$r12,$r12,440(0x1b8)
1c002158:	1400000d 	lu12i.w	$r13,0
1c00215c:	028001ad 	addi.w	$r13,$r13,0
1c002160:	5bffe18d 	beq	$r12,$r13,-32(0x3ffe0) # 1c002140 <n16_beq_test+0x1280>
1c002164:	50000c00 	b	12(0xc) # 1c002170 <n16_beq_test+0x12b0>
1c002168:	152537eb 	lu12i.w	$r11,-448065(0x929bf)
1c00216c:	0283216b 	addi.w	$r11,$r11,200(0xc8)
1c002170:	1400001c 	lu12i.w	$r28,0
1c002174:	0280039c 	addi.w	$r28,$r28,0
1c002178:	1400001d 	lu12i.w	$r29,0
1c00217c:	028003bd 	addi.w	$r29,$r29,0
1c002180:	5c03315c 	bne	$r10,$r28,816(0x330) # 1c0024b0 <inst_error>
1c002184:	5c032d7d 	bne	$r11,$r29,812(0x32c) # 1c0024b0 <inst_error>
1c002188:	14d62130 	lu12i.w	$r16,438537(0x6b109)
1c00218c:	0297c610 	addi.w	$r16,$r16,1521(0x5f1)
1c002190:	15dd2b11 	lu12i.w	$r17,-71336(0xee958)
1c002194:	02a2ca31 	addi.w	$r17,$r17,-1870(0x8b2)
1c002198:	1400000a 	lu12i.w	$r10,0
1c00219c:	1400000b 	lu12i.w	$r11,0
1c0021a0:	50001400 	b	20(0x14) # 1c0021b4 <n16_beq_test+0x12f4>
1c0021a4:	14d6212a 	lu12i.w	$r10,438537(0x6b109)
1c0021a8:	0297c54a 	addi.w	$r10,$r10,1521(0x5f1)
1c0021ac:	580021ac 	beq	$r13,$r12,32(0x20) # 1c0021cc <n16_beq_test+0x130c>
1c0021b0:	50002400 	b	36(0x24) # 1c0021d4 <n16_beq_test+0x1314>
1c0021b4:	15c7a7cc 	lu12i.w	$r12,-115394(0xe3d3e)
1c0021b8:	0283818c 	addi.w	$r12,$r12,224(0xe0)
1c0021bc:	1400000d 	lu12i.w	$r13,0
1c0021c0:	028001ad 	addi.w	$r13,$r13,0
1c0021c4:	5bffe18d 	beq	$r12,$r13,-32(0x3ffe0) # 1c0021a4 <n16_beq_test+0x12e4>
1c0021c8:	50000c00 	b	12(0xc) # 1c0021d4 <n16_beq_test+0x1314>
1c0021cc:	15dd2b0b 	lu12i.w	$r11,-71336(0xee958)
1c0021d0:	02a2c96b 	addi.w	$r11,$r11,-1870(0x8b2)
1c0021d4:	1400001c 	lu12i.w	$r28,0
1c0021d8:	0280039c 	addi.w	$r28,$r28,0
1c0021dc:	1400001d 	lu12i.w	$r29,0
1c0021e0:	028003bd 	addi.w	$r29,$r29,0
1c0021e4:	5c02cd5c 	bne	$r10,$r28,716(0x2cc) # 1c0024b0 <inst_error>
1c0021e8:	5c02c97d 	bne	$r11,$r29,712(0x2c8) # 1c0024b0 <inst_error>
1c0021ec:	15c9e950 	lu12i.w	$r16,-110774(0xe4f4a)
1c0021f0:	028dc210 	addi.w	$r16,$r16,880(0x370)
1c0021f4:	150902f1 	lu12i.w	$r17,-505833(0x84817)
1c0021f8:	02a09a31 	addi.w	$r17,$r17,-2010(0x826)
1c0021fc:	1400000a 	lu12i.w	$r10,0
1c002200:	1400000b 	lu12i.w	$r11,0
1c002204:	50001400 	b	20(0x14) # 1c002218 <n16_beq_test+0x1358>
1c002208:	15c9e94a 	lu12i.w	$r10,-110774(0xe4f4a)
1c00220c:	028dc14a 	addi.w	$r10,$r10,880(0x370)
1c002210:	580021ac 	beq	$r13,$r12,32(0x20) # 1c002230 <n16_beq_test+0x1370>
1c002214:	50002400 	b	36(0x24) # 1c002238 <n16_beq_test+0x1378>
1c002218:	142f508c 	lu12i.w	$r12,96900(0x17a84)
1c00221c:	02a8018c 	addi.w	$r12,$r12,-1536(0xa00)
1c002220:	1400000d 	lu12i.w	$r13,0
1c002224:	028001ad 	addi.w	$r13,$r13,0
1c002228:	5bffe18d 	beq	$r12,$r13,-32(0x3ffe0) # 1c002208 <n16_beq_test+0x1348>
1c00222c:	50000c00 	b	12(0xc) # 1c002238 <n16_beq_test+0x1378>
1c002230:	150902eb 	lu12i.w	$r11,-505833(0x84817)
1c002234:	02a0996b 	addi.w	$r11,$r11,-2010(0x826)
1c002238:	1400001c 	lu12i.w	$r28,0
1c00223c:	0280039c 	addi.w	$r28,$r28,0
1c002240:	1400001d 	lu12i.w	$r29,0
1c002244:	028003bd 	addi.w	$r29,$r29,0
1c002248:	5c02695c 	bne	$r10,$r28,616(0x268) # 1c0024b0 <inst_error>
1c00224c:	5c02657d 	bne	$r11,$r29,612(0x264) # 1c0024b0 <inst_error>
1c002250:	15d80cd0 	lu12i.w	$r16,-81818(0xec066)
1c002254:	02adc210 	addi.w	$r16,$r16,-1168(0xb70)
1c002258:	147b9351 	lu12i.w	$r17,253082(0x3dc9a)
1c00225c:	02a0e231 	addi.w	$r17,$r17,-1992(0x838)
1c002260:	1400000a 	lu12i.w	$r10,0
1c002264:	1400000b 	lu12i.w	$r11,0
1c002268:	50001400 	b	20(0x14) # 1c00227c <n16_beq_test+0x13bc>
1c00226c:	15d80cca 	lu12i.w	$r10,-81818(0xec066)
1c002270:	02adc14a 	addi.w	$r10,$r10,-1168(0xb70)
1c002274:	580021ac 	beq	$r13,$r12,32(0x20) # 1c002294 <n16_beq_test+0x13d4>
1c002278:	50002400 	b	36(0x24) # 1c00229c <n16_beq_test+0x13dc>
1c00227c:	14e9a5cc 	lu12i.w	$r12,478510(0x74d2e)
1c002280:	02b4ed8c 	addi.w	$r12,$r12,-709(0xd3b)
1c002284:	1400000d 	lu12i.w	$r13,0
1c002288:	028001ad 	addi.w	$r13,$r13,0
1c00228c:	5bffe18d 	beq	$r12,$r13,-32(0x3ffe0) # 1c00226c <n16_beq_test+0x13ac>
1c002290:	50000c00 	b	12(0xc) # 1c00229c <n16_beq_test+0x13dc>
1c002294:	147b934b 	lu12i.w	$r11,253082(0x3dc9a)
1c002298:	02a0e16b 	addi.w	$r11,$r11,-1992(0x838)
1c00229c:	1400001c 	lu12i.w	$r28,0
1c0022a0:	0280039c 	addi.w	$r28,$r28,0
1c0022a4:	1400001d 	lu12i.w	$r29,0
1c0022a8:	028003bd 	addi.w	$r29,$r29,0
1c0022ac:	5c02055c 	bne	$r10,$r28,516(0x204) # 1c0024b0 <inst_error>
1c0022b0:	5c02017d 	bne	$r11,$r29,512(0x200) # 1c0024b0 <inst_error>
1c0022b4:	14d7aad0 	lu12i.w	$r16,441686(0x6bd56)
1c0022b8:	02bf1610 	addi.w	$r16,$r16,-59(0xfc5)
1c0022bc:	15ddc051 	lu12i.w	$r17,-70142(0xeee02)
1c0022c0:	029a4231 	addi.w	$r17,$r17,1680(0x690)
1c0022c4:	1400000a 	lu12i.w	$r10,0
1c0022c8:	1400000b 	lu12i.w	$r11,0
1c0022cc:	50001400 	b	20(0x14) # 1c0022e0 <n16_beq_test+0x1420>
1c0022d0:	14d7aaca 	lu12i.w	$r10,441686(0x6bd56)
1c0022d4:	02bf154a 	addi.w	$r10,$r10,-59(0xfc5)
1c0022d8:	580021ac 	beq	$r13,$r12,32(0x20) # 1c0022f8 <n16_beq_test+0x1438>
1c0022dc:	50002400 	b	36(0x24) # 1c002300 <n16_beq_test+0x1440>
1c0022e0:	1559890c 	lu12i.w	$r12,-340920(0xacc48)
1c0022e4:	0280898c 	addi.w	$r12,$r12,34(0x22)
1c0022e8:	1400000d 	lu12i.w	$r13,0
1c0022ec:	028001ad 	addi.w	$r13,$r13,0
1c0022f0:	5bffe18d 	beq	$r12,$r13,-32(0x3ffe0) # 1c0022d0 <n16_beq_test+0x1410>
1c0022f4:	50000c00 	b	12(0xc) # 1c002300 <n16_beq_test+0x1440>
1c0022f8:	15ddc04b 	lu12i.w	$r11,-70142(0xeee02)
1c0022fc:	029a416b 	addi.w	$r11,$r11,1680(0x690)
1c002300:	1400001c 	lu12i.w	$r28,0
1c002304:	0280039c 	addi.w	$r28,$r28,0
1c002308:	1400001d 	lu12i.w	$r29,0
1c00230c:	028003bd 	addi.w	$r29,$r29,0
1c002310:	5c01a15c 	bne	$r10,$r28,416(0x1a0) # 1c0024b0 <inst_error>
1c002314:	5c019d7d 	bne	$r11,$r29,412(0x19c) # 1c0024b0 <inst_error>
1c002318:	15bef8f0 	lu12i.w	$r16,-133177(0xdf7c7)
1c00231c:	029fea10 	addi.w	$r16,$r16,2042(0x7fa)
1c002320:	14c8a4f1 	lu12i.w	$r17,410919(0x64527)
1c002324:	0288e231 	addi.w	$r17,$r17,568(0x238)
1c002328:	1400000a 	lu12i.w	$r10,0
1c00232c:	1400000b 	lu12i.w	$r11,0
1c002330:	50001400 	b	20(0x14) # 1c002344 <n16_beq_test+0x1484>
1c002334:	15bef8ea 	lu12i.w	$r10,-133177(0xdf7c7)
1c002338:	029fe94a 	addi.w	$r10,$r10,2042(0x7fa)
1c00233c:	580021ac 	beq	$r13,$r12,32(0x20) # 1c00235c <n16_beq_test+0x149c>
1c002340:	50002400 	b	36(0x24) # 1c002364 <n16_beq_test+0x14a4>
1c002344:	1400000c 	lu12i.w	$r12,0
1c002348:	0280018c 	addi.w	$r12,$r12,0
1c00234c:	14ef8eed 	lu12i.w	$r13,490615(0x77c77)
1c002350:	029561ad 	addi.w	$r13,$r13,1368(0x558)
1c002354:	5bffe18d 	beq	$r12,$r13,-32(0x3ffe0) # 1c002334 <n16_beq_test+0x1474>
1c002358:	50000c00 	b	12(0xc) # 1c002364 <n16_beq_test+0x14a4>
1c00235c:	14c8a4eb 	lu12i.w	$r11,410919(0x64527)
1c002360:	0288e16b 	addi.w	$r11,$r11,568(0x238)
1c002364:	1400001c 	lu12i.w	$r28,0
1c002368:	0280039c 	addi.w	$r28,$r28,0
1c00236c:	1400001d 	lu12i.w	$r29,0
1c002370:	028003bd 	addi.w	$r29,$r29,0
1c002374:	5c013d5c 	bne	$r10,$r28,316(0x13c) # 1c0024b0 <inst_error>
1c002378:	5c01397d 	bne	$r11,$r29,312(0x138) # 1c0024b0 <inst_error>
1c00237c:	15a51290 	lu12i.w	$r16,-186220(0xd2894)
1c002380:	02959a10 	addi.w	$r16,$r16,1382(0x566)
1c002384:	140f0611 	lu12i.w	$r17,30768(0x7830)
1c002388:	02845231 	addi.w	$r17,$r17,276(0x114)
1c00238c:	1400000a 	lu12i.w	$r10,0
1c002390:	1400000b 	lu12i.w	$r11,0
1c002394:	50001400 	b	20(0x14) # 1c0023a8 <n16_beq_test+0x14e8>
1c002398:	15a5128a 	lu12i.w	$r10,-186220(0xd2894)
1c00239c:	0295994a 	addi.w	$r10,$r10,1382(0x566)
1c0023a0:	580021ac 	beq	$r13,$r12,32(0x20) # 1c0023c0 <n16_beq_test+0x1500>
1c0023a4:	50002400 	b	36(0x24) # 1c0023c8 <n16_beq_test+0x1508>
1c0023a8:	1400000c 	lu12i.w	$r12,0
1c0023ac:	0280018c 	addi.w	$r12,$r12,0
1c0023b0:	1449246d 	lu12i.w	$r13,149795(0x24923)
1c0023b4:	02b5f1ad 	addi.w	$r13,$r13,-644(0xd7c)
1c0023b8:	5bffe18d 	beq	$r12,$r13,-32(0x3ffe0) # 1c002398 <n16_beq_test+0x14d8>
1c0023bc:	50000c00 	b	12(0xc) # 1c0023c8 <n16_beq_test+0x1508>
1c0023c0:	140f060b 	lu12i.w	$r11,30768(0x7830)
1c0023c4:	0284516b 	addi.w	$r11,$r11,276(0x114)
1c0023c8:	1400001c 	lu12i.w	$r28,0
1c0023cc:	0280039c 	addi.w	$r28,$r28,0
1c0023d0:	1400001d 	lu12i.w	$r29,0
1c0023d4:	028003bd 	addi.w	$r29,$r29,0
1c0023d8:	5c00d95c 	bne	$r10,$r28,216(0xd8) # 1c0024b0 <inst_error>
1c0023dc:	5c00d57d 	bne	$r11,$r29,212(0xd4) # 1c0024b0 <inst_error>
1c0023e0:	15b787f0 	lu12i.w	$r16,-148417(0xdbc3f)
1c0023e4:	0289a210 	addi.w	$r16,$r16,616(0x268)
1c0023e8:	141489b1 	lu12i.w	$r17,42061(0xa44d)
1c0023ec:	02abe231 	addi.w	$r17,$r17,-1288(0xaf8)
1c0023f0:	1400000a 	lu12i.w	$r10,0
1c0023f4:	1400000b 	lu12i.w	$r11,0
1c0023f8:	50001400 	b	20(0x14) # 1c00240c <n16_beq_test+0x154c>
1c0023fc:	15b787ea 	lu12i.w	$r10,-148417(0xdbc3f)
1c002400:	0289a14a 	addi.w	$r10,$r10,616(0x268)
1c002404:	580021ac 	beq	$r13,$r12,32(0x20) # 1c002424 <n16_beq_test+0x1564>
1c002408:	50002400 	b	36(0x24) # 1c00242c <n16_beq_test+0x156c>
1c00240c:	1400000c 	lu12i.w	$r12,0
1c002410:	0280018c 	addi.w	$r12,$r12,0
1c002414:	14d724cd 	lu12i.w	$r13,440614(0x6b926)
1c002418:	029e0dad 	addi.w	$r13,$r13,1923(0x783)
1c00241c:	5bffe18d 	beq	$r12,$r13,-32(0x3ffe0) # 1c0023fc <n16_beq_test+0x153c>
1c002420:	50000c00 	b	12(0xc) # 1c00242c <n16_beq_test+0x156c>
1c002424:	141489ab 	lu12i.w	$r11,42061(0xa44d)
1c002428:	02abe16b 	addi.w	$r11,$r11,-1288(0xaf8)
1c00242c:	1400001c 	lu12i.w	$r28,0
1c002430:	0280039c 	addi.w	$r28,$r28,0
1c002434:	1400001d 	lu12i.w	$r29,0
1c002438:	028003bd 	addi.w	$r29,$r29,0
1c00243c:	5c00755c 	bne	$r10,$r28,116(0x74) # 1c0024b0 <inst_error>
1c002440:	5c00717d 	bne	$r11,$r29,112(0x70) # 1c0024b0 <inst_error>
1c002444:	15f931b0 	lu12i.w	$r16,-13939(0xfc98d)
1c002448:	02954a10 	addi.w	$r16,$r16,1362(0x552)
1c00244c:	15952111 	lu12i.w	$r17,-218872(0xca908)
1c002450:	029fb231 	addi.w	$r17,$r17,2028(0x7ec)
1c002454:	1400000a 	lu12i.w	$r10,0
1c002458:	1400000b 	lu12i.w	$r11,0
1c00245c:	50001400 	b	20(0x14) # 1c002470 <n16_beq_test+0x15b0>
1c002460:	15f931aa 	lu12i.w	$r10,-13939(0xfc98d)
1c002464:	0295494a 	addi.w	$r10,$r10,1362(0x552)
1c002468:	580021ac 	beq	$r13,$r12,32(0x20) # 1c002488 <n16_beq_test+0x15c8>
1c00246c:	50002400 	b	36(0x24) # 1c002490 <n16_beq_test+0x15d0>
1c002470:	1400000c 	lu12i.w	$r12,0
1c002474:	0280018c 	addi.w	$r12,$r12,0
1c002478:	1400000d 	lu12i.w	$r13,0
1c00247c:	028001ad 	addi.w	$r13,$r13,0
1c002480:	5bffe18d 	beq	$r12,$r13,-32(0x3ffe0) # 1c002460 <n16_beq_test+0x15a0>
1c002484:	50000c00 	b	12(0xc) # 1c002490 <n16_beq_test+0x15d0>
1c002488:	1595210b 	lu12i.w	$r11,-218872(0xca908)
1c00248c:	029fb16b 	addi.w	$r11,$r11,2028(0x7ec)
1c002490:	15f931bc 	lu12i.w	$r28,-13939(0xfc98d)
1c002494:	02954b9c 	addi.w	$r28,$r28,1362(0x552)
1c002498:	1595211d 	lu12i.w	$r29,-218872(0xca908)
1c00249c:	029fb3bd 	addi.w	$r29,$r29,2028(0x7ec)
1c0024a0:	5c00115c 	bne	$r10,$r28,16(0x10) # 1c0024b0 <inst_error>
1c0024a4:	5c000d7d 	bne	$r11,$r29,12(0xc) # 1c0024b0 <inst_error>
1c0024a8:	5c000b20 	bne	$r25,$r0,8(0x8) # 1c0024b0 <inst_error>
1c0024ac:	0280075a 	addi.w	$r26,$r26,1(0x1)

1c0024b0 <inst_error>:
1c0024b0:	0040e2ed 	slli.w	$r13,$r23,0x18
1c0024b4:	001569ac 	or	$r12,$r13,$r26
1c0024b8:	2980030c 	st.w	$r12,$r24,0
1c0024bc:	4c000020 	jirl	$r0,$r1,0

1c0024c0 <n7_and_test>:
n7_and_test():
1c0024c0:	028006f7 	addi.w	$r23,$r23,1(0x1)
1c0024c4:	00150019 	move	$r25,$r0
1c0024c8:	14b92b2c 	lu12i.w	$r12,379225(0x5c959)
1c0024cc:	0294698c 	addi.w	$r12,$r12,1306(0x51a)
1c0024d0:	1594018d 	lu12i.w	$r13,-221172(0xca00c)
1c0024d4:	029051ad 	addi.w	$r13,$r13,1044(0x414)
1c0024d8:	1490010b 	lu12i.w	$r11,294920(0x48008)
1c0024dc:	0290416b 	addi.w	$r11,$r11,1040(0x410)
1c0024e0:	0014b58a 	and	$r10,$r12,$r13
1c0024e4:	5c064d4b 	bne	$r10,$r11,1612(0x64c) # 1c002b30 <inst_error>
1c0024e8:	1537518c 	lu12i.w	$r12,-410996(0x9ba8c)
1c0024ec:	02a9c18c 	addi.w	$r12,$r12,-1424(0xa70)
1c0024f0:	15d33fad 	lu12i.w	$r13,-91651(0xe99fd)
1c0024f4:	02b8e1ad 	addi.w	$r13,$r13,-456(0xe38)
1c0024f8:	1513112b 	lu12i.w	$r11,-485239(0x89889)
1c0024fc:	02a8c16b 	addi.w	$r11,$r11,-1488(0xa30)
1c002500:	0014b58a 	and	$r10,$r12,$r13
1c002504:	5c062d4b 	bne	$r10,$r11,1580(0x62c) # 1c002b30 <inst_error>
1c002508:	15a6064c 	lu12i.w	$r12,-184270(0xd3032)
1c00250c:	02a7818c 	addi.w	$r12,$r12,-1568(0x9e0)
1c002510:	141749ad 	lu12i.w	$r13,47693(0xba4d)
1c002514:	02bfd9ad 	addi.w	$r13,$r13,-10(0xff6)
1c002518:	1406002b 	lu12i.w	$r11,12289(0x3001)
1c00251c:	02a7816b 	addi.w	$r11,$r11,-1568(0x9e0)
1c002520:	0014b58a 	and	$r10,$r12,$r13
1c002524:	5c060d4b 	bne	$r10,$r11,1548(0x60c) # 1c002b30 <inst_error>
1c002528:	159cd22c 	lu12i.w	$r12,-203119(0xce691)
1c00252c:	028ba18c 	addi.w	$r12,$r12,744(0x2e8)
1c002530:	14cced6d 	lu12i.w	$r13,419691(0x6676b)
1c002534:	028839ad 	addi.w	$r13,$r13,526(0x20e)
1c002538:	148cc02b 	lu12i.w	$r11,288257(0x46601)
1c00253c:	0288216b 	addi.w	$r11,$r11,520(0x208)
1c002540:	0014b58a 	and	$r10,$r12,$r13
1c002544:	5c05ed4b 	bne	$r10,$r11,1516(0x5ec) # 1c002b30 <inst_error>
1c002548:	143a670c 	lu12i.w	$r12,119608(0x1d338)
1c00254c:	02a5818c 	addi.w	$r12,$r12,-1696(0x960)
1c002550:	14e89bad 	lu12i.w	$r13,476381(0x744dd)
1c002554:	028a01ad 	addi.w	$r13,$r13,640(0x280)
1c002558:	142802ab 	lu12i.w	$r11,81941(0x14015)
1c00255c:	0280016b 	addi.w	$r11,$r11,0
1c002560:	0014b58a 	and	$r10,$r12,$r13
1c002564:	5c05cd4b 	bne	$r10,$r11,1484(0x5cc) # 1c002b30 <inst_error>
1c002568:	14f2accc 	lu12i.w	$r12,496998(0x79566)
1c00256c:	02a0898c 	addi.w	$r12,$r12,-2014(0x822)
1c002570:	15ab14ed 	lu12i.w	$r13,-173913(0xd58a7)
1c002574:	028f1dad 	addi.w	$r13,$r13,967(0x3c7)
1c002578:	14a204ab 	lu12i.w	$r11,331813(0x51025)
1c00257c:	0280096b 	addi.w	$r11,$r11,2(0x2)
1c002580:	0014b58a 	and	$r10,$r12,$r13
1c002584:	5c05ad4b 	bne	$r10,$r11,1452(0x5ac) # 1c002b30 <inst_error>
1c002588:	14a927ac 	lu12i.w	$r12,346429(0x5493d)
1c00258c:	02b9658c 	addi.w	$r12,$r12,-423(0xe59)
1c002590:	154fd2ad 	lu12i.w	$r13,-360811(0xa7e95)
1c002594:	0298c1ad 	addi.w	$r13,$r13,1584(0x630)
1c002598:	1409028b 	lu12i.w	$r11,18452(0x4814)
1c00259c:	0298416b 	addi.w	$r11,$r11,1552(0x610)
1c0025a0:	0014b58a 	and	$r10,$r12,$r13
1c0025a4:	5c058d4b 	bne	$r10,$r11,1420(0x58c) # 1c002b30 <inst_error>
1c0025a8:	149521ec 	lu12i.w	$r12,305423(0x4a90f)
1c0025ac:	0291e18c 	addi.w	$r12,$r12,1144(0x478)
1c0025b0:	15bd42cd 	lu12i.w	$r13,-136682(0xdea16)
1c0025b4:	029991ad 	addi.w	$r13,$r13,1636(0x664)
1c0025b8:	149500cb 	lu12i.w	$r11,305158(0x4a806)
1c0025bc:	0291816b 	addi.w	$r11,$r11,1120(0x460)
1c0025c0:	0014b58a 	and	$r10,$r12,$r13
1c0025c4:	5c056d4b 	bne	$r10,$r11,1388(0x56c) # 1c002b30 <inst_error>
1c0025c8:	15225dcc 	lu12i.w	$r12,-453906(0x912ee)
1c0025cc:	02ae4d8c 	addi.w	$r12,$r12,-1133(0xb93)
1c0025d0:	151e974d 	lu12i.w	$r13,-461638(0x8f4ba)
1c0025d4:	02a1c1ad 	addi.w	$r13,$r13,-1936(0x870)
1c0025d8:	1502154b 	lu12i.w	$r11,-520022(0x810aa)
1c0025dc:	02a0416b 	addi.w	$r11,$r11,-2032(0x810)
1c0025e0:	0014b58a 	and	$r10,$r12,$r13
1c0025e4:	5c054d4b 	bne	$r10,$r11,1356(0x54c) # 1c002b30 <inst_error>
1c0025e8:	1410082c 	lu12i.w	$r12,32833(0x8041)
1c0025ec:	02ae118c 	addi.w	$r12,$r12,-1148(0xb84)
1c0025f0:	15f52fed 	lu12i.w	$r13,-22145(0xfa97f)
1c0025f4:	02a421ad 	addi.w	$r13,$r13,-1784(0x908)
1c0025f8:	1410082b 	lu12i.w	$r11,32833(0x8041)
1c0025fc:	02a4016b 	addi.w	$r11,$r11,-1792(0x900)
1c002600:	0014b58a 	and	$r10,$r12,$r13
1c002604:	5c052d4b 	bne	$r10,$r11,1324(0x52c) # 1c002b30 <inst_error>
1c002608:	1430f42c 	lu12i.w	$r12,100257(0x187a1)
1c00260c:	029c218c 	addi.w	$r12,$r12,1800(0x708)
1c002610:	15ff08ed 	lu12i.w	$r13,-1977(0xff847)
1c002614:	028529ad 	addi.w	$r13,$r13,330(0x14a)
1c002618:	1430002b 	lu12i.w	$r11,98305(0x18001)
1c00261c:	0284216b 	addi.w	$r11,$r11,264(0x108)
1c002620:	0014b58a 	and	$r10,$r12,$r13
1c002624:	5c050d4b 	bne	$r10,$r11,1292(0x50c) # 1c002b30 <inst_error>
1c002628:	156273ec 	lu12i.w	$r12,-322657(0xb139f)
1c00262c:	02bcf58c 	addi.w	$r12,$r12,-195(0xf3d)
1c002630:	140011cd 	lu12i.w	$r13,142(0x8e)
1c002634:	02a5c1ad 	addi.w	$r13,$r13,-1680(0x970)
1c002638:	140011ab 	lu12i.w	$r11,141(0x8d)
1c00263c:	02a4c16b 	addi.w	$r11,$r11,-1744(0x930)
1c002640:	0014b58a 	and	$r10,$r12,$r13
1c002644:	5c04ed4b 	bne	$r10,$r11,1260(0x4ec) # 1c002b30 <inst_error>
1c002648:	154ae4ec 	lu12i.w	$r12,-370905(0xa5727)
1c00264c:	0287018c 	addi.w	$r12,$r12,448(0x1c0)
1c002650:	1545dd4d 	lu12i.w	$r13,-381206(0xa2eea)
1c002654:	02ae11ad 	addi.w	$r13,$r13,-1148(0xb84)
1c002658:	1540c42b 	lu12i.w	$r11,-391647(0xa0621)
1c00265c:	0286016b 	addi.w	$r11,$r11,384(0x180)
1c002660:	0014b58a 	and	$r10,$r12,$r13
1c002664:	5c04cd4b 	bne	$r10,$r11,1228(0x4cc) # 1c002b30 <inst_error>
1c002668:	1508080c 	lu12i.w	$r12,-507840(0x84040)
1c00266c:	02ad018c 	addi.w	$r12,$r12,-1216(0xb40)
1c002670:	1400000d 	lu12i.w	$r13,0
1c002674:	028001ad 	addi.w	$r13,$r13,0
1c002678:	1400000b 	lu12i.w	$r11,0
1c00267c:	0280016b 	addi.w	$r11,$r11,0
1c002680:	0014b58a 	and	$r10,$r12,$r13
1c002684:	5c04ad4b 	bne	$r10,$r11,1196(0x4ac) # 1c002b30 <inst_error>
1c002688:	1580d34c 	lu12i.w	$r12,-260454(0xc069a)
1c00268c:	02a0898c 	addi.w	$r12,$r12,-2014(0x822)
1c002690:	1400000d 	lu12i.w	$r13,0
1c002694:	028001ad 	addi.w	$r13,$r13,0
1c002698:	1400000b 	lu12i.w	$r11,0
1c00269c:	0280016b 	addi.w	$r11,$r11,0
1c0026a0:	0014b58a 	and	$r10,$r12,$r13
1c0026a4:	5c048d4b 	bne	$r10,$r11,1164(0x48c) # 1c002b30 <inst_error>
1c0026a8:	1481390c 	lu12i.w	$r12,264648(0x409c8)
1c0026ac:	02a5b98c 	addi.w	$r12,$r12,-1682(0x96e)
1c0026b0:	1400000d 	lu12i.w	$r13,0
1c0026b4:	028001ad 	addi.w	$r13,$r13,0
1c0026b8:	1400000b 	lu12i.w	$r11,0
1c0026bc:	0280016b 	addi.w	$r11,$r11,0
1c0026c0:	0014b58a 	and	$r10,$r12,$r13
1c0026c4:	5c046d4b 	bne	$r10,$r11,1132(0x46c) # 1c002b30 <inst_error>
1c0026c8:	154f478c 	lu12i.w	$r12,-361924(0xa7a3c)
1c0026cc:	02a5718c 	addi.w	$r12,$r12,-1700(0x95c)
1c0026d0:	1400000d 	lu12i.w	$r13,0
1c0026d4:	028001ad 	addi.w	$r13,$r13,0
1c0026d8:	1400000b 	lu12i.w	$r11,0
1c0026dc:	0280016b 	addi.w	$r11,$r11,0
1c0026e0:	0014b58a 	and	$r10,$r12,$r13
1c0026e4:	5c044d4b 	bne	$r10,$r11,1100(0x44c) # 1c002b30 <inst_error>
1c0026e8:	15b3f26c 	lu12i.w	$r12,-155757(0xd9f93)
1c0026ec:	02bfb98c 	addi.w	$r12,$r12,-18(0xfee)
1c0026f0:	1400000d 	lu12i.w	$r13,0
1c0026f4:	028001ad 	addi.w	$r13,$r13,0
1c0026f8:	1400000b 	lu12i.w	$r11,0
1c0026fc:	0280016b 	addi.w	$r11,$r11,0
1c002700:	0014b58a 	and	$r10,$r12,$r13
1c002704:	5c042d4b 	bne	$r10,$r11,1068(0x42c) # 1c002b30 <inst_error>
1c002708:	1411eccc 	lu12i.w	$r12,36710(0x8f66)
1c00270c:	028ef98c 	addi.w	$r12,$r12,958(0x3be)
1c002710:	1400000d 	lu12i.w	$r13,0
1c002714:	028001ad 	addi.w	$r13,$r13,0
1c002718:	1400000b 	lu12i.w	$r11,0
1c00271c:	0280016b 	addi.w	$r11,$r11,0
1c002720:	0014b58a 	and	$r10,$r12,$r13
1c002724:	5c040d4b 	bne	$r10,$r11,1036(0x40c) # 1c002b30 <inst_error>
1c002728:	1438e9ec 	lu12i.w	$r12,116559(0x1c74f)
1c00272c:	028e618c 	addi.w	$r12,$r12,920(0x398)
1c002730:	1400000d 	lu12i.w	$r13,0
1c002734:	028001ad 	addi.w	$r13,$r13,0
1c002738:	1400000b 	lu12i.w	$r11,0
1c00273c:	0280016b 	addi.w	$r11,$r11,0
1c002740:	0014b58a 	and	$r10,$r12,$r13
1c002744:	5c03ed4b 	bne	$r10,$r11,1004(0x3ec) # 1c002b30 <inst_error>
1c002748:	146d3bcc 	lu12i.w	$r12,223710(0x369de)
1c00274c:	02b2a18c 	addi.w	$r12,$r12,-856(0xca8)
1c002750:	1400000d 	lu12i.w	$r13,0
1c002754:	028001ad 	addi.w	$r13,$r13,0
1c002758:	1400000b 	lu12i.w	$r11,0
1c00275c:	0280016b 	addi.w	$r11,$r11,0
1c002760:	0014b58a 	and	$r10,$r12,$r13
1c002764:	5c03cd4b 	bne	$r10,$r11,972(0x3cc) # 1c002b30 <inst_error>
1c002768:	15c98f6c 	lu12i.w	$r12,-111493(0xe4c7b)
1c00276c:	02a9f18c 	addi.w	$r12,$r12,-1412(0xa7c)
1c002770:	1400000d 	lu12i.w	$r13,0
1c002774:	028001ad 	addi.w	$r13,$r13,0
1c002778:	1400000b 	lu12i.w	$r11,0
1c00277c:	0280016b 	addi.w	$r11,$r11,0
1c002780:	0014b58a 	and	$r10,$r12,$r13
1c002784:	5c03ad4b 	bne	$r10,$r11,940(0x3ac) # 1c002b30 <inst_error>
1c002788:	1448062c 	lu12i.w	$r12,147505(0x24031)
1c00278c:	02a1098c 	addi.w	$r12,$r12,-1982(0x842)
1c002790:	1400000d 	lu12i.w	$r13,0
1c002794:	028001ad 	addi.w	$r13,$r13,0
1c002798:	1400000b 	lu12i.w	$r11,0
1c00279c:	0280016b 	addi.w	$r11,$r11,0
1c0027a0:	0014b58a 	and	$r10,$r12,$r13
1c0027a4:	5c038d4b 	bne	$r10,$r11,908(0x38c) # 1c002b30 <inst_error>
1c0027a8:	150c444c 	lu12i.w	$r12,-499166(0x86222)
1c0027ac:	02bc018c 	addi.w	$r12,$r12,-256(0xf00)
1c0027b0:	1400000d 	lu12i.w	$r13,0
1c0027b4:	028001ad 	addi.w	$r13,$r13,0
1c0027b8:	1400000b 	lu12i.w	$r11,0
1c0027bc:	0280016b 	addi.w	$r11,$r11,0
1c0027c0:	0014b58a 	and	$r10,$r12,$r13
1c0027c4:	5c036d4b 	bne	$r10,$r11,876(0x36c) # 1c002b30 <inst_error>
1c0027c8:	140327cc 	lu12i.w	$r12,6462(0x193e)
1c0027cc:	02ae998c 	addi.w	$r12,$r12,-1114(0xba6)
1c0027d0:	1400000d 	lu12i.w	$r13,0
1c0027d4:	028001ad 	addi.w	$r13,$r13,0
1c0027d8:	1400000b 	lu12i.w	$r11,0
1c0027dc:	0280016b 	addi.w	$r11,$r11,0
1c0027e0:	0014b58a 	and	$r10,$r12,$r13
1c0027e4:	5c034d4b 	bne	$r10,$r11,844(0x34c) # 1c002b30 <inst_error>
1c0027e8:	15b345cc 	lu12i.w	$r12,-157138(0xd9a2e)
1c0027ec:	0292818c 	addi.w	$r12,$r12,1184(0x4a0)
1c0027f0:	1400000d 	lu12i.w	$r13,0
1c0027f4:	028001ad 	addi.w	$r13,$r13,0
1c0027f8:	1400000b 	lu12i.w	$r11,0
1c0027fc:	0280016b 	addi.w	$r11,$r11,0
1c002800:	0014b58a 	and	$r10,$r12,$r13
1c002804:	5c032d4b 	bne	$r10,$r11,812(0x32c) # 1c002b30 <inst_error>
1c002808:	15ee76ec 	lu12i.w	$r12,-35913(0xf73b7)
1c00280c:	02aa218c 	addi.w	$r12,$r12,-1400(0xa88)
1c002810:	1400000d 	lu12i.w	$r13,0
1c002814:	028001ad 	addi.w	$r13,$r13,0
1c002818:	1400000b 	lu12i.w	$r11,0
1c00281c:	0280016b 	addi.w	$r11,$r11,0
1c002820:	0014b58a 	and	$r10,$r12,$r13
1c002824:	5c030d4b 	bne	$r10,$r11,780(0x30c) # 1c002b30 <inst_error>
1c002828:	154c536c 	lu12i.w	$r12,-367973(0xa629b)
1c00282c:	02a1418c 	addi.w	$r12,$r12,-1968(0x850)
1c002830:	1400000d 	lu12i.w	$r13,0
1c002834:	028001ad 	addi.w	$r13,$r13,0
1c002838:	1400000b 	lu12i.w	$r11,0
1c00283c:	0280016b 	addi.w	$r11,$r11,0
1c002840:	0014b58a 	and	$r10,$r12,$r13
1c002844:	5c02ed4b 	bne	$r10,$r11,748(0x2ec) # 1c002b30 <inst_error>
1c002848:	15b2ea0c 	lu12i.w	$r12,-157872(0xd9750)
1c00284c:	0293b98c 	addi.w	$r12,$r12,1262(0x4ee)
1c002850:	1400000d 	lu12i.w	$r13,0
1c002854:	028001ad 	addi.w	$r13,$r13,0
1c002858:	1400000b 	lu12i.w	$r11,0
1c00285c:	0280016b 	addi.w	$r11,$r11,0
1c002860:	0014b58a 	and	$r10,$r12,$r13
1c002864:	5c02cd4b 	bne	$r10,$r11,716(0x2cc) # 1c002b30 <inst_error>
1c002868:	15ad6aac 	lu12i.w	$r12,-169131(0xd6b55)
1c00286c:	028bd58c 	addi.w	$r12,$r12,757(0x2f5)
1c002870:	1400000d 	lu12i.w	$r13,0
1c002874:	028001ad 	addi.w	$r13,$r13,0
1c002878:	1400000b 	lu12i.w	$r11,0
1c00287c:	0280016b 	addi.w	$r11,$r11,0
1c002880:	0014b58a 	and	$r10,$r12,$r13
1c002884:	5c02ad4b 	bne	$r10,$r11,684(0x2ac) # 1c002b30 <inst_error>
1c002888:	14fc18ec 	lu12i.w	$r12,516295(0x7e0c7)
1c00288c:	02b4118c 	addi.w	$r12,$r12,-764(0xd04)
1c002890:	1400000d 	lu12i.w	$r13,0
1c002894:	028001ad 	addi.w	$r13,$r13,0
1c002898:	1400000b 	lu12i.w	$r11,0
1c00289c:	0280016b 	addi.w	$r11,$r11,0
1c0028a0:	0014b58a 	and	$r10,$r12,$r13
1c0028a4:	5c028d4b 	bne	$r10,$r11,652(0x28c) # 1c002b30 <inst_error>
1c0028a8:	14aecbac 	lu12i.w	$r12,357981(0x5765d)
1c0028ac:	0288bd8c 	addi.w	$r12,$r12,559(0x22f)
1c0028b0:	1400000d 	lu12i.w	$r13,0
1c0028b4:	028001ad 	addi.w	$r13,$r13,0
1c0028b8:	1400000b 	lu12i.w	$r11,0
1c0028bc:	0280016b 	addi.w	$r11,$r11,0
1c0028c0:	0014b58a 	and	$r10,$r12,$r13
1c0028c4:	5c026d4b 	bne	$r10,$r11,620(0x26c) # 1c002b30 <inst_error>
1c0028c8:	14c6664c 	lu12i.w	$r12,406322(0x63332)
1c0028cc:	0291298c 	addi.w	$r12,$r12,1098(0x44a)
1c0028d0:	1400000d 	lu12i.w	$r13,0
1c0028d4:	028001ad 	addi.w	$r13,$r13,0
1c0028d8:	1400000b 	lu12i.w	$r11,0
1c0028dc:	0280016b 	addi.w	$r11,$r11,0
1c0028e0:	0014b58a 	and	$r10,$r12,$r13
1c0028e4:	5c024d4b 	bne	$r10,$r11,588(0x24c) # 1c002b30 <inst_error>
1c0028e8:	15d9084c 	lu12i.w	$r12,-79806(0xec842)
1c0028ec:	0291698c 	addi.w	$r12,$r12,1114(0x45a)
1c0028f0:	1400000d 	lu12i.w	$r13,0
1c0028f4:	028001ad 	addi.w	$r13,$r13,0
1c0028f8:	1400000b 	lu12i.w	$r11,0
1c0028fc:	0280016b 	addi.w	$r11,$r11,0
1c002900:	0014b58a 	and	$r10,$r12,$r13
1c002904:	5c022d4b 	bne	$r10,$r11,556(0x22c) # 1c002b30 <inst_error>
1c002908:	1545b64c 	lu12i.w	$r12,-381518(0xa2db2)
1c00290c:	02bb618c 	addi.w	$r12,$r12,-296(0xed8)
1c002910:	1400000d 	lu12i.w	$r13,0
1c002914:	028001ad 	addi.w	$r13,$r13,0
1c002918:	1400000b 	lu12i.w	$r11,0
1c00291c:	0280016b 	addi.w	$r11,$r11,0
1c002920:	0014b58a 	and	$r10,$r12,$r13
1c002924:	5c020d4b 	bne	$r10,$r11,524(0x20c) # 1c002b30 <inst_error>
1c002928:	147453ac 	lu12i.w	$r12,238237(0x3a29d)
1c00292c:	0280018c 	addi.w	$r12,$r12,0
1c002930:	1400000d 	lu12i.w	$r13,0
1c002934:	028001ad 	addi.w	$r13,$r13,0
1c002938:	1400000b 	lu12i.w	$r11,0
1c00293c:	0280016b 	addi.w	$r11,$r11,0
1c002940:	0014b58a 	and	$r10,$r12,$r13
1c002944:	5c01ed4b 	bne	$r10,$r11,492(0x1ec) # 1c002b30 <inst_error>
1c002948:	14d6c76c 	lu12i.w	$r12,439867(0x6b63b)
1c00294c:	02a0018c 	addi.w	$r12,$r12,-2048(0x800)
1c002950:	1400000d 	lu12i.w	$r13,0
1c002954:	028001ad 	addi.w	$r13,$r13,0
1c002958:	1400000b 	lu12i.w	$r11,0
1c00295c:	0280016b 	addi.w	$r11,$r11,0
1c002960:	0014b58a 	and	$r10,$r12,$r13
1c002964:	5c01cd4b 	bne	$r10,$r11,460(0x1cc) # 1c002b30 <inst_error>
1c002968:	15ed4fac 	lu12i.w	$r12,-38275(0xf6a7d)
1c00296c:	0284c18c 	addi.w	$r12,$r12,304(0x130)
1c002970:	1400000d 	lu12i.w	$r13,0
1c002974:	028001ad 	addi.w	$r13,$r13,0
1c002978:	1400000b 	lu12i.w	$r11,0
1c00297c:	0280016b 	addi.w	$r11,$r11,0
1c002980:	0014b58a 	and	$r10,$r12,$r13
1c002984:	5c01ad4b 	bne	$r10,$r11,428(0x1ac) # 1c002b30 <inst_error>
1c002988:	14006bac 	lu12i.w	$r12,861(0x35d)
1c00298c:	02bdfd8c 	addi.w	$r12,$r12,-129(0xf7f)
1c002990:	1400000d 	lu12i.w	$r13,0
1c002994:	028001ad 	addi.w	$r13,$r13,0
1c002998:	1400000b 	lu12i.w	$r11,0
1c00299c:	0280016b 	addi.w	$r11,$r11,0
1c0029a0:	0014b58a 	and	$r10,$r12,$r13
1c0029a4:	5c018d4b 	bne	$r10,$r11,396(0x18c) # 1c002b30 <inst_error>
1c0029a8:	1403f0ec 	lu12i.w	$r12,8071(0x1f87)
1c0029ac:	02a5818c 	addi.w	$r12,$r12,-1696(0x960)
1c0029b0:	1400000d 	lu12i.w	$r13,0
1c0029b4:	028001ad 	addi.w	$r13,$r13,0
1c0029b8:	1400000b 	lu12i.w	$r11,0
1c0029bc:	0280016b 	addi.w	$r11,$r11,0
1c0029c0:	0014b58a 	and	$r10,$r12,$r13
1c0029c4:	5c016d4b 	bne	$r10,$r11,364(0x16c) # 1c002b30 <inst_error>
1c0029c8:	140551ac 	lu12i.w	$r12,10893(0x2a8d)
1c0029cc:	02a1418c 	addi.w	$r12,$r12,-1968(0x850)
1c0029d0:	1400000d 	lu12i.w	$r13,0
1c0029d4:	028001ad 	addi.w	$r13,$r13,0
1c0029d8:	1400000b 	lu12i.w	$r11,0
1c0029dc:	0280016b 	addi.w	$r11,$r11,0
1c0029e0:	0014b58a 	and	$r10,$r12,$r13
1c0029e4:	5c014d4b 	bne	$r10,$r11,332(0x14c) # 1c002b30 <inst_error>
1c0029e8:	15ff602c 	lu12i.w	$r12,-1279(0xffb01)
1c0029ec:	02afc18c 	addi.w	$r12,$r12,-1040(0xbf0)
1c0029f0:	1400000d 	lu12i.w	$r13,0
1c0029f4:	028001ad 	addi.w	$r13,$r13,0
1c0029f8:	1400000b 	lu12i.w	$r11,0
1c0029fc:	0280016b 	addi.w	$r11,$r11,0
1c002a00:	0014b58a 	and	$r10,$r12,$r13
1c002a04:	5c012d4b 	bne	$r10,$r11,300(0x12c) # 1c002b30 <inst_error>
1c002a08:	146d122c 	lu12i.w	$r12,223377(0x36891)
1c002a0c:	02b5a98c 	addi.w	$r12,$r12,-662(0xd6a)
1c002a10:	1400000d 	lu12i.w	$r13,0
1c002a14:	028001ad 	addi.w	$r13,$r13,0
1c002a18:	1400000b 	lu12i.w	$r11,0
1c002a1c:	0280016b 	addi.w	$r11,$r11,0
1c002a20:	0014b58a 	and	$r10,$r12,$r13
1c002a24:	5c010d4b 	bne	$r10,$r11,268(0x10c) # 1c002b30 <inst_error>
1c002a28:	141a3e6c 	lu12i.w	$r12,53747(0xd1f3)
1c002a2c:	02b2f98c 	addi.w	$r12,$r12,-834(0xcbe)
1c002a30:	1400000d 	lu12i.w	$r13,0
1c002a34:	028001ad 	addi.w	$r13,$r13,0
1c002a38:	1400000b 	lu12i.w	$r11,0
1c002a3c:	0280016b 	addi.w	$r11,$r11,0
1c002a40:	0014b58a 	and	$r10,$r12,$r13
1c002a44:	5c00ed4b 	bne	$r10,$r11,236(0xec) # 1c002b30 <inst_error>
1c002a48:	149c406c 	lu12i.w	$r12,320003(0x4e203)
1c002a4c:	02b1e18c 	addi.w	$r12,$r12,-904(0xc78)
1c002a50:	1400000d 	lu12i.w	$r13,0
1c002a54:	028001ad 	addi.w	$r13,$r13,0
1c002a58:	1400000b 	lu12i.w	$r11,0
1c002a5c:	0280016b 	addi.w	$r11,$r11,0
1c002a60:	0014b58a 	and	$r10,$r12,$r13
1c002a64:	5c00cd4b 	bne	$r10,$r11,204(0xcc) # 1c002b30 <inst_error>
1c002a68:	15dfd6ac 	lu12i.w	$r12,-65867(0xefeb5)
1c002a6c:	0288a98c 	addi.w	$r12,$r12,554(0x22a)
1c002a70:	1400000d 	lu12i.w	$r13,0
1c002a74:	028001ad 	addi.w	$r13,$r13,0
1c002a78:	1400000b 	lu12i.w	$r11,0
1c002a7c:	0280016b 	addi.w	$r11,$r11,0
1c002a80:	0014b58a 	and	$r10,$r12,$r13
1c002a84:	5c00ad4b 	bne	$r10,$r11,172(0xac) # 1c002b30 <inst_error>
1c002a88:	151fbc2c 	lu12i.w	$r12,-459295(0x8fde1)
1c002a8c:	0285b98c 	addi.w	$r12,$r12,366(0x16e)
1c002a90:	1400000d 	lu12i.w	$r13,0
1c002a94:	028001ad 	addi.w	$r13,$r13,0
1c002a98:	1400000b 	lu12i.w	$r11,0
1c002a9c:	0280016b 	addi.w	$r11,$r11,0
1c002aa0:	0014b58a 	and	$r10,$r12,$r13
1c002aa4:	5c008d4b 	bne	$r10,$r11,140(0x8c) # 1c002b30 <inst_error>
1c002aa8:	145d69ec 	lu12i.w	$r12,191311(0x2eb4f)
1c002aac:	029d618c 	addi.w	$r12,$r12,1880(0x758)
1c002ab0:	1400000d 	lu12i.w	$r13,0
1c002ab4:	028001ad 	addi.w	$r13,$r13,0
1c002ab8:	1400000b 	lu12i.w	$r11,0
1c002abc:	0280016b 	addi.w	$r11,$r11,0
1c002ac0:	0014b58a 	and	$r10,$r12,$r13
1c002ac4:	5c006d4b 	bne	$r10,$r11,108(0x6c) # 1c002b30 <inst_error>
1c002ac8:	1400000c 	lu12i.w	$r12,0
1c002acc:	0280018c 	addi.w	$r12,$r12,0
1c002ad0:	144768cd 	lu12i.w	$r13,146246(0x23b46)
1c002ad4:	02b8b1ad 	addi.w	$r13,$r13,-468(0xe2c)
1c002ad8:	1400000b 	lu12i.w	$r11,0
1c002adc:	0280016b 	addi.w	$r11,$r11,0
1c002ae0:	0014b58a 	and	$r10,$r12,$r13
1c002ae4:	5c004d4b 	bne	$r10,$r11,76(0x4c) # 1c002b30 <inst_error>
1c002ae8:	1400000c 	lu12i.w	$r12,0
1c002aec:	0280018c 	addi.w	$r12,$r12,0
1c002af0:	1429726d 	lu12i.w	$r13,84883(0x14b93)
1c002af4:	02adb1ad 	addi.w	$r13,$r13,-1172(0xb6c)
1c002af8:	1400000b 	lu12i.w	$r11,0
1c002afc:	0280016b 	addi.w	$r11,$r11,0
1c002b00:	0014b58a 	and	$r10,$r12,$r13
1c002b04:	5c002d4b 	bne	$r10,$r11,44(0x2c) # 1c002b30 <inst_error>
1c002b08:	1400000c 	lu12i.w	$r12,0
1c002b0c:	0280018c 	addi.w	$r12,$r12,0
1c002b10:	1400000d 	lu12i.w	$r13,0
1c002b14:	028001ad 	addi.w	$r13,$r13,0
1c002b18:	1400000b 	lu12i.w	$r11,0
1c002b1c:	0280016b 	addi.w	$r11,$r11,0
1c002b20:	0014b58a 	and	$r10,$r12,$r13
1c002b24:	5c000d4b 	bne	$r10,$r11,12(0xc) # 1c002b30 <inst_error>
1c002b28:	5c000b20 	bne	$r25,$r0,8(0x8) # 1c002b30 <inst_error>
1c002b2c:	0280075a 	addi.w	$r26,$r26,1(0x1)

1c002b30 <inst_error>:
1c002b30:	0040e2ed 	slli.w	$r13,$r23,0x18
1c002b34:	001569ac 	or	$r12,$r13,$r26
1c002b38:	2980030c 	st.w	$r12,$r24,0
1c002b3c:	4c000020 	jirl	$r0,$r1,0

1c002b40 <n4_sub_w_test>:
n4_sub_w_test():
1c002b40:	028006f7 	addi.w	$r23,$r23,1(0x1)
1c002b44:	00150019 	move	$r25,$r0
1c002b48:	15adf80c 	lu12i.w	$r12,-168000(0xd6fc0)
1c002b4c:	0296118c 	addi.w	$r12,$r12,1412(0x584)
1c002b50:	14bf2ecd 	lu12i.w	$r13,391542(0x5f976)
1c002b54:	0296a1ad 	addi.w	$r13,$r13,1448(0x5a8)
1c002b58:	14eec94b 	lu12i.w	$r11,489034(0x7764a)
1c002b5c:	02bf716b 	addi.w	$r11,$r11,-36(0xfdc)
1c002b60:	0011358a 	sub.w	$r10,$r12,$r13
1c002b64:	5c0acd4b 	bne	$r10,$r11,2764(0xacc) # 1c003630 <inst_error>
1c002b68:	157f392c 	lu12i.w	$r12,-263735(0xbf9c9)
1c002b6c:	0297098c 	addi.w	$r12,$r12,1474(0x5c2)
1c002b70:	1466d12d 	lu12i.w	$r13,210569(0x33689)
1c002b74:	02a439ad 	addi.w	$r13,$r13,-1778(0x90e)
1c002b78:	1518682b 	lu12i.w	$r11,-474303(0x8c341)
1c002b7c:	02b2d16b 	addi.w	$r11,$r11,-844(0xcb4)
1c002b80:	0011358a 	sub.w	$r10,$r12,$r13
1c002b84:	5c0aad4b 	bne	$r10,$r11,2732(0xaac) # 1c003630 <inst_error>
1c002b88:	15b4cf6c 	lu12i.w	$r12,-153989(0xda67b)
1c002b8c:	02a2218c 	addi.w	$r12,$r12,-1912(0x888)
1c002b90:	154e4f8d 	lu12i.w	$r13,-363908(0xa727c)
1c002b94:	02a0c1ad 	addi.w	$r13,$r13,-2000(0x830)
1c002b98:	14667feb 	lu12i.w	$r11,209919(0x333ff)
1c002b9c:	0281616b 	addi.w	$r11,$r11,88(0x58)
1c002ba0:	0011358a 	sub.w	$r10,$r12,$r13
1c002ba4:	5c0a8d4b 	bne	$r10,$r11,2700(0xa8c) # 1c003630 <inst_error>
1c002ba8:	14470b2c 	lu12i.w	$r12,145497(0x23859)
1c002bac:	02a0218c 	addi.w	$r12,$r12,-2040(0x808)
1c002bb0:	14caf54d 	lu12i.w	$r13,415658(0x657aa)
1c002bb4:	02a2f1ad 	addi.w	$r13,$r13,-1860(0x8bc)
1c002bb8:	157c15eb 	lu12i.w	$r11,-270161(0xbe0af)
1c002bbc:	02bd316b 	addi.w	$r11,$r11,-180(0xf4c)
1c002bc0:	0011358a 	sub.w	$r10,$r12,$r13
1c002bc4:	5c0a6d4b 	bne	$r10,$r11,2668(0xa6c) # 1c003630 <inst_error>
1c002bc8:	140815cc 	lu12i.w	$r12,16558(0x40ae)
1c002bcc:	0287c18c 	addi.w	$r12,$r12,496(0x1f0)
1c002bd0:	149dfe2d 	lu12i.w	$r13,323569(0x4eff1)
1c002bd4:	02bfa1ad 	addi.w	$r13,$r13,-24(0xfe8)
1c002bd8:	156a17ab 	lu12i.w	$r11,-307011(0xb50bd)
1c002bdc:	0288216b 	addi.w	$r11,$r11,520(0x208)
1c002be0:	0011358a 	sub.w	$r10,$r12,$r13
1c002be4:	5c0a4d4b 	bne	$r10,$r11,2636(0xa4c) # 1c003630 <inst_error>
1c002be8:	148b93ec 	lu12i.w	$r12,285855(0x45c9f)
1c002bec:	02a5a18c 	addi.w	$r12,$r12,-1688(0x968)
1c002bf0:	1575d9ad 	lu12i.w	$r13,-282931(0xbaecd)
1c002bf4:	02a861ad 	addi.w	$r13,$r13,-1512(0xa18)
1c002bf8:	1515ba4b 	lu12i.w	$r11,-479790(0x8add2)
1c002bfc:	02bd416b 	addi.w	$r11,$r11,-176(0xf50)
1c002c00:	0011358a 	sub.w	$r10,$r12,$r13
1c002c04:	5c0a2d4b 	bne	$r10,$r11,2604(0xa2c) # 1c003630 <inst_error>
1c002c08:	14a837ac 	lu12i.w	$r12,344509(0x541bd)
1c002c0c:	02b9b18c 	addi.w	$r12,$r12,-404(0xe6c)
1c002c10:	15c7dd6d 	lu12i.w	$r13,-114965(0xe3eeb)
1c002c14:	028061ad 	addi.w	$r13,$r13,24(0x18)
1c002c18:	14e05a4b 	lu12i.w	$r11,459474(0x702d2)
1c002c1c:	02b9516b 	addi.w	$r11,$r11,-428(0xe54)
1c002c20:	0011358a 	sub.w	$r10,$r12,$r13
1c002c24:	5c0a0d4b 	bne	$r10,$r11,2572(0xa0c) # 1c003630 <inst_error>
1c002c28:	140504ac 	lu12i.w	$r12,10277(0x2825)
1c002c2c:	0281a18c 	addi.w	$r12,$r12,104(0x68)
1c002c30:	1543bd2d 	lu12i.w	$r13,-385559(0xa1de9)
1c002c34:	029ce9ad 	addi.w	$r13,$r13,1850(0x73a)
1c002c38:	14c1478b 	lu12i.w	$r11,395836(0x60a3c)
1c002c3c:	02a4b96b 	addi.w	$r11,$r11,-1746(0x92e)
1c002c40:	0011358a 	sub.w	$r10,$r12,$r13
1c002c44:	5c09ed4b 	bne	$r10,$r11,2540(0x9ec) # 1c003630 <inst_error>
1c002c48:	15f1822c 	lu12i.w	$r12,-29679(0xf8c11)
1c002c4c:	028f018c 	addi.w	$r12,$r12,960(0x3c0)
1c002c50:	140a59cd 	lu12i.w	$r13,21198(0x52ce)
1c002c54:	029141ad 	addi.w	$r13,$r13,1104(0x450)
1c002c58:	15e7286b 	lu12i.w	$r11,-50877(0xf3943)
1c002c5c:	02bdc16b 	addi.w	$r11,$r11,-144(0xf70)
1c002c60:	0011358a 	sub.w	$r10,$r12,$r13
1c002c64:	5c09cd4b 	bne	$r10,$r11,2508(0x9cc) # 1c003630 <inst_error>
1c002c68:	152d0d0c 	lu12i.w	$r12,-432024(0x96868)
1c002c6c:	029e498c 	addi.w	$r12,$r12,1938(0x792)
1c002c70:	15a2120d 	lu12i.w	$r13,-192368(0xd1090)
1c002c74:	029471ad 	addi.w	$r13,$r13,1308(0x51c)
1c002c78:	158afb0b 	lu12i.w	$r11,-239656(0xc57d8)
1c002c7c:	0289d96b 	addi.w	$r11,$r11,630(0x276)
1c002c80:	0011358a 	sub.w	$r10,$r12,$r13
1c002c84:	5c09ad4b 	bne	$r10,$r11,2476(0x9ac) # 1c003630 <inst_error>
1c002c88:	15ea78ec 	lu12i.w	$r12,-44089(0xf53c7)
1c002c8c:	02b5a18c 	addi.w	$r12,$r12,-664(0xd68)
1c002c90:	158388cd 	lu12i.w	$r13,-254906(0xc1c46)
1c002c94:	029621ad 	addi.w	$r13,$r13,1416(0x588)
1c002c98:	1466f00b 	lu12i.w	$r11,210816(0x33780)
1c002c9c:	029f816b 	addi.w	$r11,$r11,2016(0x7e0)
1c002ca0:	0011358a 	sub.w	$r10,$r12,$r13
1c002ca4:	5c098d4b 	bne	$r10,$r11,2444(0x98c) # 1c003630 <inst_error>
1c002ca8:	142bf36c 	lu12i.w	$r12,90011(0x15f9b)
1c002cac:	029e418c 	addi.w	$r12,$r12,1936(0x790)
1c002cb0:	15a5c42d 	lu12i.w	$r13,-184799(0xd2e21)
1c002cb4:	02b49dad 	addi.w	$r13,$r13,-729(0xd27)
1c002cb8:	14862f6b 	lu12i.w	$r11,274811(0x4317b)
1c002cbc:	02a9a56b 	addi.w	$r11,$r11,-1431(0xa69)
1c002cc0:	0011358a 	sub.w	$r10,$r12,$r13
1c002cc4:	5c096d4b 	bne	$r10,$r11,2412(0x96c) # 1c003630 <inst_error>
1c002cc8:	15bb148c 	lu12i.w	$r12,-141148(0xdd8a4)
1c002ccc:	02888d8c 	addi.w	$r12,$r12,547(0x223)
1c002cd0:	146a1a2d 	lu12i.w	$r13,217297(0x350d1)
1c002cd4:	029701ad 	addi.w	$r13,$r13,1472(0x5c0)
1c002cd8:	1550fa6b 	lu12i.w	$r11,-358445(0xa87d3)
1c002cdc:	02b18d6b 	addi.w	$r11,$r11,-925(0xc63)
1c002ce0:	0011358a 	sub.w	$r10,$r12,$r13
1c002ce4:	5c094d4b 	bne	$r10,$r11,2380(0x94c) # 1c003630 <inst_error>
1c002ce8:	151e638c 	lu12i.w	$r12,-462052(0x8f31c)
1c002cec:	028a198c 	addi.w	$r12,$r12,646(0x286)
1c002cf0:	1459d5cd 	lu12i.w	$r13,183982(0x2ceae)
1c002cf4:	028941ad 	addi.w	$r13,$r13,592(0x250)
1c002cf8:	14c48dcb 	lu12i.w	$r11,402542(0x6246e)
1c002cfc:	0280d96b 	addi.w	$r11,$r11,54(0x36)
1c002d00:	0011358a 	sub.w	$r10,$r12,$r13
1c002d04:	5c092d4b 	bne	$r10,$r11,2348(0x92c) # 1c003630 <inst_error>
1c002d08:	14eb906c 	lu12i.w	$r12,482435(0x75c83)
1c002d0c:	0298018c 	addi.w	$r12,$r12,1536(0x600)
1c002d10:	1465f28d 	lu12i.w	$r13,208788(0x32f94)
1c002d14:	028951ad 	addi.w	$r13,$r13,596(0x254)
1c002d18:	14859deb 	lu12i.w	$r11,273647(0x42cef)
1c002d1c:	028eb16b 	addi.w	$r11,$r11,940(0x3ac)
1c002d20:	0011358a 	sub.w	$r10,$r12,$r13
1c002d24:	5c090d4b 	bne	$r10,$r11,2316(0x90c) # 1c003630 <inst_error>
1c002d28:	14846e4c 	lu12i.w	$r12,271218(0x42372)
1c002d2c:	028f118c 	addi.w	$r12,$r12,964(0x3c4)
1c002d30:	14f542cd 	lu12i.w	$r13,502294(0x7aa16)
1c002d34:	029741ad 	addi.w	$r13,$r13,1488(0x5d0)
1c002d38:	158f2b8b 	lu12i.w	$r11,-231076(0xc795c)
1c002d3c:	02b7d16b 	addi.w	$r11,$r11,-524(0xdf4)
1c002d40:	0011358a 	sub.w	$r10,$r12,$r13
1c002d44:	5c08ed4b 	bne	$r10,$r11,2284(0x8ec) # 1c003630 <inst_error>
1c002d48:	1465caec 	lu12i.w	$r12,208471(0x32e57)
1c002d4c:	0287c18c 	addi.w	$r12,$r12,496(0x1f0)
1c002d50:	1575d98d 	lu12i.w	$r13,-282932(0xbaecc)
1c002d54:	0286b1ad 	addi.w	$r13,$r13,428(0x1ac)
1c002d58:	14eff16b 	lu12i.w	$r11,491403(0x77f8b)
1c002d5c:	0281116b 	addi.w	$r11,$r11,68(0x44)
1c002d60:	0011358a 	sub.w	$r10,$r12,$r13
1c002d64:	5c08cd4b 	bne	$r10,$r11,2252(0x8cc) # 1c003630 <inst_error>
1c002d68:	158ba0cc 	lu12i.w	$r12,-238330(0xc5d06)
1c002d6c:	0298018c 	addi.w	$r12,$r12,1536(0x600)
1c002d70:	1522c24d 	lu12i.w	$r13,-453102(0x91612)
1c002d74:	02baa1ad 	addi.w	$r13,$r13,-344(0xea8)
1c002d78:	1468de8b 	lu12i.w	$r11,214772(0x346f4)
1c002d7c:	029d616b 	addi.w	$r11,$r11,1880(0x758)
1c002d80:	0011358a 	sub.w	$r10,$r12,$r13
1c002d84:	5c08ad4b 	bne	$r10,$r11,2220(0x8ac) # 1c003630 <inst_error>
1c002d88:	14018c0c 	lu12i.w	$r12,3168(0xc60)
1c002d8c:	0290c98c 	addi.w	$r12,$r12,1074(0x432)
1c002d90:	153164ad 	lu12i.w	$r13,-423131(0x98b25)
1c002d94:	028d59ad 	addi.w	$r13,$r13,854(0x356)
1c002d98:	14d0276b 	lu12i.w	$r11,426299(0x6813b)
1c002d9c:	0283716b 	addi.w	$r11,$r11,220(0xdc)
1c002da0:	0011358a 	sub.w	$r10,$r12,$r13
1c002da4:	5c088d4b 	bne	$r10,$r11,2188(0x88c) # 1c003630 <inst_error>
1c002da8:	1431424c 	lu12i.w	$r12,100882(0x18a12)
1c002dac:	02be858c 	addi.w	$r12,$r12,-95(0xfa1)
1c002db0:	15bbd22d 	lu12i.w	$r13,-139631(0xdde91)
1c002db4:	029f91ad 	addi.w	$r13,$r13,2020(0x7e4)
1c002db8:	1475700b 	lu12i.w	$r11,240512(0x3ab80)
1c002dbc:	029ef56b 	addi.w	$r11,$r11,1981(0x7bd)
1c002dc0:	0011358a 	sub.w	$r10,$r12,$r13
1c002dc4:	5c086d4b 	bne	$r10,$r11,2156(0x86c) # 1c003630 <inst_error>
1c002dc8:	158a00cc 	lu12i.w	$r12,-241658(0xc5006)
1c002dcc:	02bf218c 	addi.w	$r12,$r12,-56(0xfc8)
1c002dd0:	15c2658d 	lu12i.w	$r13,-126164(0xe132c)
1c002dd4:	029555ad 	addi.w	$r13,$r13,1365(0x555)
1c002dd8:	15c79b4b 	lu12i.w	$r11,-115494(0xe3cda)
1c002ddc:	02a9cd6b 	addi.w	$r11,$r11,-1421(0xa73)
1c002de0:	0011358a 	sub.w	$r10,$r12,$r13
1c002de4:	5c084d4b 	bne	$r10,$r11,2124(0x84c) # 1c003630 <inst_error>
1c002de8:	1566e32c 	lu12i.w	$r12,-313575(0xb3719)
1c002dec:	0280018c 	addi.w	$r12,$r12,0
1c002df0:	146d332d 	lu12i.w	$r13,223641(0x36999)
1c002df4:	02968dad 	addi.w	$r13,$r13,1443(0x5a3)
1c002df8:	14f9b00b 	lu12i.w	$r11,511360(0x7cd80)
1c002dfc:	02a9756b 	addi.w	$r11,$r11,-1443(0xa5d)
1c002e00:	0011358a 	sub.w	$r10,$r12,$r13
1c002e04:	5c082d4b 	bne	$r10,$r11,2092(0x82c) # 1c003630 <inst_error>
1c002e08:	1586698c 	lu12i.w	$r12,-249012(0xc334c)
1c002e0c:	0281b18c 	addi.w	$r12,$r12,108(0x6c)
1c002e10:	152bd0ad 	lu12i.w	$r13,-434555(0x95e85)
1c002e14:	02a5e1ad 	addi.w	$r13,$r13,-1672(0x978)
1c002e18:	145a98eb 	lu12i.w	$r11,185543(0x2d4c7)
1c002e1c:	029bd16b 	addi.w	$r11,$r11,1780(0x6f4)
1c002e20:	0011358a 	sub.w	$r10,$r12,$r13
1c002e24:	5c080d4b 	bne	$r10,$r11,2060(0x80c) # 1c003630 <inst_error>
1c002e28:	15d7be0c 	lu12i.w	$r12,-82448(0xebdf0)
1c002e2c:	0299418c 	addi.w	$r12,$r12,1616(0x650)
1c002e30:	15ec4a2d 	lu12i.w	$r13,-40367(0xf6251)
1c002e34:	029c01ad 	addi.w	$r13,$r13,1792(0x700)
1c002e38:	15eb73eb 	lu12i.w	$r11,-42081(0xf5b9f)
1c002e3c:	02bd416b 	addi.w	$r11,$r11,-176(0xf50)
1c002e40:	0011358a 	sub.w	$r10,$r12,$r13
1c002e44:	5c07ed4b 	bne	$r10,$r11,2028(0x7ec) # 1c003630 <inst_error>
1c002e48:	1506874c 	lu12i.w	$r12,-510918(0x8343a)
1c002e4c:	0297418c 	addi.w	$r12,$r12,1488(0x5d0)
1c002e50:	14b50fad 	lu12i.w	$r13,370813(0x5a87d)
1c002e54:	02a111ad 	addi.w	$r13,$r13,-1980(0x844)
1c002e58:	145177cb 	lu12i.w	$r11,166846(0x28bbe)
1c002e5c:	02b6316b 	addi.w	$r11,$r11,-628(0xd8c)
1c002e60:	0011358a 	sub.w	$r10,$r12,$r13
1c002e64:	5c07cd4b 	bne	$r10,$r11,1996(0x7cc) # 1c003630 <inst_error>
1c002e68:	14d6a7ec 	lu12i.w	$r12,439615(0x6b53f)
1c002e6c:	02b0018c 	addi.w	$r12,$r12,-1024(0xc00)
1c002e70:	141f1a6d 	lu12i.w	$r13,63699(0xf8d3)
1c002e74:	029e4dad 	addi.w	$r13,$r13,1939(0x793)
1c002e78:	14b78d6b 	lu12i.w	$r11,375915(0x5bc6b)
1c002e7c:	0291b56b 	addi.w	$r11,$r11,1133(0x46d)
1c002e80:	0011358a 	sub.w	$r10,$r12,$r13
1c002e84:	5c07ad4b 	bne	$r10,$r11,1964(0x7ac) # 1c003630 <inst_error>
1c002e88:	155fd68c 	lu12i.w	$r12,-328012(0xafeb4)
1c002e8c:	02a3098c 	addi.w	$r12,$r12,-1854(0x8c2)
1c002e90:	1495b32d 	lu12i.w	$r13,306585(0x4ad99)
1c002e94:	0281b1ad 	addi.w	$r13,$r13,108(0x6c)
1c002e98:	14ca236b 	lu12i.w	$r11,413979(0x6511b)
1c002e9c:	02a1596b 	addi.w	$r11,$r11,-1962(0x856)
1c002ea0:	0011358a 	sub.w	$r10,$r12,$r13
1c002ea4:	5c078d4b 	bne	$r10,$r11,1932(0x78c) # 1c003630 <inst_error>
1c002ea8:	15acee6c 	lu12i.w	$r12,-170125(0xd6773)
1c002eac:	02b1b18c 	addi.w	$r12,$r12,-916(0xc6c)
1c002eb0:	15439e4d 	lu12i.w	$r13,-385806(0xa1cf2)
1c002eb4:	029101ad 	addi.w	$r13,$r13,1088(0x440)
1c002eb8:	1469502b 	lu12i.w	$r11,215681(0x34a81)
1c002ebc:	02a0b16b 	addi.w	$r11,$r11,-2004(0x82c)
1c002ec0:	0011358a 	sub.w	$r10,$r12,$r13
1c002ec4:	5c076d4b 	bne	$r10,$r11,1900(0x76c) # 1c003630 <inst_error>
1c002ec8:	15ab276c 	lu12i.w	$r12,-173765(0xd593b)
1c002ecc:	02ba518c 	addi.w	$r12,$r12,-364(0xe94)
1c002ed0:	151c178d 	lu12i.w	$r13,-466756(0x8e0bc)
1c002ed4:	029c11ad 	addi.w	$r13,$r13,1796(0x704)
1c002ed8:	148f0fcb 	lu12i.w	$r11,292990(0x4787e)
1c002edc:	029e416b 	addi.w	$r11,$r11,1936(0x790)
1c002ee0:	0011358a 	sub.w	$r10,$r12,$r13
1c002ee4:	5c074d4b 	bne	$r10,$r11,1868(0x74c) # 1c003630 <inst_error>
1c002ee8:	14fc854c 	lu12i.w	$r12,517162(0x7e42a)
1c002eec:	02b4218c 	addi.w	$r12,$r12,-760(0xd08)
1c002ef0:	14663bad 	lu12i.w	$r13,209373(0x331dd)
1c002ef4:	028001ad 	addi.w	$r13,$r13,0
1c002ef8:	149649ab 	lu12i.w	$r11,307789(0x4b24d)
1c002efc:	02b4216b 	addi.w	$r11,$r11,-760(0xd08)
1c002f00:	0011358a 	sub.w	$r10,$r12,$r13
1c002f04:	5c072d4b 	bne	$r10,$r11,1836(0x72c) # 1c003630 <inst_error>
1c002f08:	141f020c 	lu12i.w	$r12,63504(0xf810)
1c002f0c:	02ae498c 	addi.w	$r12,$r12,-1134(0xb92)
1c002f10:	15d268ad 	lu12i.w	$r13,-93371(0xe9345)
1c002f14:	02b981ad 	addi.w	$r13,$r13,-416(0xe60)
1c002f18:	144c996b 	lu12i.w	$r11,156875(0x264cb)
1c002f1c:	02b4c96b 	addi.w	$r11,$r11,-718(0xd32)
1c002f20:	0011358a 	sub.w	$r10,$r12,$r13
1c002f24:	5c070d4b 	bne	$r10,$r11,1804(0x70c) # 1c003630 <inst_error>
1c002f28:	15d0ebcc 	lu12i.w	$r12,-96418(0xe875e)
1c002f2c:	0288d18c 	addi.w	$r12,$r12,564(0x234)
1c002f30:	141a3d2d 	lu12i.w	$r13,53737(0xd1e9)
1c002f34:	02a171ad 	addi.w	$r13,$r13,-1956(0x85c)
1c002f38:	15b6aecb 	lu12i.w	$r11,-150154(0xdb576)
1c002f3c:	02a7616b 	addi.w	$r11,$r11,-1576(0x9d8)
1c002f40:	0011358a 	sub.w	$r10,$r12,$r13
1c002f44:	5c06ed4b 	bne	$r10,$r11,1772(0x6ec) # 1c003630 <inst_error>
1c002f48:	14debf2c 	lu12i.w	$r12,456185(0x6f5f9)
1c002f4c:	02b75d8c 	addi.w	$r12,$r12,-553(0xdd7)
1c002f50:	14cb262d 	lu12i.w	$r13,416049(0x65931)
1c002f54:	0295e1ad 	addi.w	$r13,$r13,1400(0x578)
1c002f58:	1413990b 	lu12i.w	$r11,40136(0x9cc8)
1c002f5c:	02a17d6b 	addi.w	$r11,$r11,-1953(0x85f)
1c002f60:	0011358a 	sub.w	$r10,$r12,$r13
1c002f64:	5c06cd4b 	bne	$r10,$r11,1740(0x6cc) # 1c003630 <inst_error>
1c002f68:	14eceb8c 	lu12i.w	$r12,485212(0x7675c)
1c002f6c:	0290a18c 	addi.w	$r12,$r12,1064(0x428)
1c002f70:	15217c0d 	lu12i.w	$r13,-455712(0x90be0)
1c002f74:	02aec1ad 	addi.w	$r13,$r13,-1104(0xbb0)
1c002f78:	15cb6fab 	lu12i.w	$r11,-107651(0xe5b7d)
1c002f7c:	02a1e16b 	addi.w	$r11,$r11,-1928(0x878)
1c002f80:	0011358a 	sub.w	$r10,$r12,$r13
1c002f84:	5c06ad4b 	bne	$r10,$r11,1708(0x6ac) # 1c003630 <inst_error>
1c002f88:	15522b8c 	lu12i.w	$r12,-356004(0xa915c)
1c002f8c:	02a8bd8c 	addi.w	$r12,$r12,-1489(0xa2f)
1c002f90:	14122f8d 	lu12i.w	$r13,37244(0x917c)
1c002f94:	028021ad 	addi.w	$r13,$r13,8(0x8)
1c002f98:	153ffc0b 	lu12i.w	$r11,-393248(0x9ffe0)
1c002f9c:	02a89d6b 	addi.w	$r11,$r11,-1497(0xa27)
1c002fa0:	0011358a 	sub.w	$r10,$r12,$r13
1c002fa4:	5c068d4b 	bne	$r10,$r11,1676(0x68c) # 1c003630 <inst_error>
1c002fa8:	152329cc 	lu12i.w	$r12,-452274(0x9194e)
1c002fac:	02bb618c 	addi.w	$r12,$r12,-296(0xed8)
1c002fb0:	14f994cd 	lu12i.w	$r13,511142(0x7cca6)
1c002fb4:	0280f1ad 	addi.w	$r13,$r13,60(0x3c)
1c002fb8:	1429950b 	lu12i.w	$r11,85160(0x14ca8)
1c002fbc:	02ba716b 	addi.w	$r11,$r11,-356(0xe9c)
1c002fc0:	0011358a 	sub.w	$r10,$r12,$r13
1c002fc4:	5c066d4b 	bne	$r10,$r11,1644(0x66c) # 1c003630 <inst_error>
1c002fc8:	1432688c 	lu12i.w	$r12,103236(0x19344)
1c002fcc:	028a018c 	addi.w	$r12,$r12,640(0x280)
1c002fd0:	15243b6d 	lu12i.w	$r13,-450085(0x921db)
1c002fd4:	029349ad 	addi.w	$r13,$r13,1234(0x4d2)
1c002fd8:	150e2d2b 	lu12i.w	$r11,-495255(0x87169)
1c002fdc:	02b6b96b 	addi.w	$r11,$r11,-594(0xdae)
1c002fe0:	0011358a 	sub.w	$r10,$r12,$r13
1c002fe4:	5c064d4b 	bne	$r10,$r11,1612(0x64c) # 1c003630 <inst_error>
1c002fe8:	1562f86c 	lu12i.w	$r12,-321597(0xb17c3)
1c002fec:	028fb18c 	addi.w	$r12,$r12,1004(0x3ec)
1c002ff0:	1531cfed 	lu12i.w	$r13,-422273(0x98e7f)
1c002ff4:	028721ad 	addi.w	$r13,$r13,456(0x1c8)
1c002ff8:	1431288b 	lu12i.w	$r11,100676(0x18944)
1c002ffc:	0288916b 	addi.w	$r11,$r11,548(0x224)
1c003000:	0011358a 	sub.w	$r10,$r12,$r13
1c003004:	5c062d4b 	bne	$r10,$r11,1580(0x62c) # 1c003630 <inst_error>
1c003008:	15e0bbec 	lu12i.w	$r12,-64033(0xf05df)
1c00300c:	02b1818c 	addi.w	$r12,$r12,-928(0xc60)
1c003010:	15a7a0cd 	lu12i.w	$r13,-180986(0xd3d06)
1c003014:	02ac01ad 	addi.w	$r13,$r13,-1280(0xb00)
1c003018:	14391b2b 	lu12i.w	$r11,116953(0x1c8d9)
1c00301c:	0285816b 	addi.w	$r11,$r11,352(0x160)
1c003020:	0011358a 	sub.w	$r10,$r12,$r13
1c003024:	5c060d4b 	bne	$r10,$r11,1548(0x60c) # 1c003630 <inst_error>
1c003028:	1517c5ec 	lu12i.w	$r12,-475601(0x8be2f)
1c00302c:	02b1398c 	addi.w	$r12,$r12,-946(0xc4e)
1c003030:	145e3d2d 	lu12i.w	$r13,193001(0x2f1e9)
1c003034:	02bfd9ad 	addi.w	$r13,$r13,-10(0xff6)
1c003038:	14b988cb 	lu12i.w	$r11,379974(0x5cc46)
1c00303c:	02b1616b 	addi.w	$r11,$r11,-936(0xc58)
1c003040:	0011358a 	sub.w	$r10,$r12,$r13
1c003044:	5c05ed4b 	bne	$r10,$r11,1516(0x5ec) # 1c003630 <inst_error>
1c003048:	14bcd3cc 	lu12i.w	$r12,386718(0x5e69e)
1c00304c:	028a018c 	addi.w	$r12,$r12,640(0x280)
1c003050:	14d6396d 	lu12i.w	$r13,438731(0x6b1cb)
1c003054:	028d61ad 	addi.w	$r13,$r13,856(0x358)
1c003058:	15e69a6b 	lu12i.w	$r11,-52013(0xf34d3)
1c00305c:	02bca16b 	addi.w	$r11,$r11,-216(0xf28)
1c003060:	0011358a 	sub.w	$r10,$r12,$r13
1c003064:	5c05cd4b 	bne	$r10,$r11,1484(0x5cc) # 1c003630 <inst_error>
1c003068:	144769cc 	lu12i.w	$r12,146254(0x23b4e)
1c00306c:	0298f98c 	addi.w	$r12,$r12,1598(0x63e)
1c003070:	1403964d 	lu12i.w	$r13,7346(0x1cb2)
1c003074:	029ea1ad 	addi.w	$r13,$r13,1960(0x7a8)
1c003078:	1443d38b 	lu12i.w	$r11,138908(0x21e9c)
1c00307c:	02ba596b 	addi.w	$r11,$r11,-362(0xe96)
1c003080:	0011358a 	sub.w	$r10,$r12,$r13
1c003084:	5c05ad4b 	bne	$r10,$r11,1452(0x5ac) # 1c003630 <inst_error>
1c003088:	14e745ec 	lu12i.w	$r12,473647(0x73a2f)
1c00308c:	0294918c 	addi.w	$r12,$r12,1316(0x524)
1c003090:	142684ad 	lu12i.w	$r13,78885(0x13425)
1c003094:	02b3f5ad 	addi.w	$r13,$r13,-771(0xcfd)
1c003098:	14c0c16b 	lu12i.w	$r11,394763(0x6060b)
1c00309c:	02a09d6b 	addi.w	$r11,$r11,-2009(0x827)
1c0030a0:	0011358a 	sub.w	$r10,$r12,$r13
1c0030a4:	5c058d4b 	bne	$r10,$r11,1420(0x58c) # 1c003630 <inst_error>
1c0030a8:	155e5bcc 	lu12i.w	$r12,-331042(0xaf2de)
1c0030ac:	02af418c 	addi.w	$r12,$r12,-1072(0xbd0)
1c0030b0:	154f914d 	lu12i.w	$r13,-361334(0xa7c8a)
1c0030b4:	029621ad 	addi.w	$r13,$r13,1416(0x588)
1c0030b8:	140eca6b 	lu12i.w	$r11,30291(0x7653)
1c0030bc:	0299216b 	addi.w	$r11,$r11,1608(0x648)
1c0030c0:	0011358a 	sub.w	$r10,$r12,$r13
1c0030c4:	5c056d4b 	bne	$r10,$r11,1388(0x56c) # 1c003630 <inst_error>
1c0030c8:	148179ac 	lu12i.w	$r12,265165(0x40bcd)
1c0030cc:	02ac918c 	addi.w	$r12,$r12,-1244(0xb24)
1c0030d0:	15aa3d4d 	lu12i.w	$r13,-175638(0xd51ea)
1c0030d4:	0283a1ad 	addi.w	$r13,$r13,232(0xe8)
1c0030d8:	14d73c6b 	lu12i.w	$r11,440803(0x6b9e3)
1c0030dc:	02a8f16b 	addi.w	$r11,$r11,-1476(0xa3c)
1c0030e0:	0011358a 	sub.w	$r10,$r12,$r13
1c0030e4:	5c054d4b 	bne	$r10,$r11,1356(0x54c) # 1c003630 <inst_error>
1c0030e8:	15aabe4c 	lu12i.w	$r12,-174606(0xd55f2)
1c0030ec:	02b5618c 	addi.w	$r12,$r12,-680(0xd58)
1c0030f0:	15d797ed 	lu12i.w	$r13,-82753(0xebcbf)
1c0030f4:	028361ad 	addi.w	$r13,$r13,216(0xd8)
1c0030f8:	15d3266b 	lu12i.w	$r11,-91853(0xe9933)
1c0030fc:	02b2016b 	addi.w	$r11,$r11,-896(0xc80)
1c003100:	0011358a 	sub.w	$r10,$r12,$r13
1c003104:	5c052d4b 	bne	$r10,$r11,1324(0x52c) # 1c003630 <inst_error>
1c003108:	1480010c 	lu12i.w	$r12,262152(0x40008)
1c00310c:	02b4518c 	addi.w	$r12,$r12,-748(0xd14)
1c003110:	14e7680d 	lu12i.w	$r13,473920(0x73b40)
1c003114:	028889ad 	addi.w	$r13,$r13,546(0x222)
1c003118:	1598990b 	lu12i.w	$r11,-211768(0xcc4c8)
1c00311c:	02abc96b 	addi.w	$r11,$r11,-1294(0xaf2)
1c003120:	0011358a 	sub.w	$r10,$r12,$r13
1c003124:	5c050d4b 	bne	$r10,$r11,1292(0x50c) # 1c003630 <inst_error>
1c003128:	14991a6c 	lu12i.w	$r12,313555(0x4c8d3)
1c00312c:	028a818c 	addi.w	$r12,$r12,672(0x2a0)
1c003130:	15853e2d 	lu12i.w	$r13,-251407(0xc29f1)
1c003134:	0284b1ad 	addi.w	$r13,$r13,300(0x12c)
1c003138:	1513dc4b 	lu12i.w	$r11,-483614(0x89ee2)
1c00313c:	0285d16b 	addi.w	$r11,$r11,372(0x174)
1c003140:	0011358a 	sub.w	$r10,$r12,$r13
1c003144:	5c04ed4b 	bne	$r10,$r11,1260(0x4ec) # 1c003630 <inst_error>
1c003148:	14a321cc 	lu12i.w	$r12,334094(0x5190e)
1c00314c:	029a298c 	addi.w	$r12,$r12,1674(0x68a)
1c003150:	14f92d6d 	lu12i.w	$r13,510315(0x7c96b)
1c003154:	0284f1ad 	addi.w	$r13,$r13,316(0x13c)
1c003158:	15a9f46b 	lu12i.w	$r11,-176221(0xd4fa3)
1c00315c:	0295396b 	addi.w	$r11,$r11,1358(0x54e)
1c003160:	0011358a 	sub.w	$r10,$r12,$r13
1c003164:	5c04cd4b 	bne	$r10,$r11,1228(0x4cc) # 1c003630 <inst_error>
1c003168:	14d8cb2c 	lu12i.w	$r12,443993(0x6c659)
1c00316c:	0280d18c 	addi.w	$r12,$r12,52(0x34)
1c003170:	155dc16d 	lu12i.w	$r13,-332277(0xaee0b)
1c003174:	029f31ad 	addi.w	$r13,$r13,1996(0x7cc)
1c003178:	157b09cb 	lu12i.w	$r11,-272306(0xbd84e)
1c00317c:	02a1a16b 	addi.w	$r11,$r11,-1944(0x868)
1c003180:	0011358a 	sub.w	$r10,$r12,$r13
1c003184:	5c04ad4b 	bne	$r10,$r11,1196(0x4ac) # 1c003630 <inst_error>
1c003188:	157c720c 	lu12i.w	$r12,-269424(0xbe390)
1c00318c:	028f418c 	addi.w	$r12,$r12,976(0x3d0)
1c003190:	1406ebed 	lu12i.w	$r13,14175(0x375f)
1c003194:	02b549ad 	addi.w	$r13,$r13,-686(0xd52)
1c003198:	1575862b 	lu12i.w	$r11,-283599(0xbac31)
1c00319c:	0299f96b 	addi.w	$r11,$r11,1662(0x67e)
1c0031a0:	0011358a 	sub.w	$r10,$r12,$r13
1c0031a4:	5c048d4b 	bne	$r10,$r11,1164(0x48c) # 1c003630 <inst_error>
1c0031a8:	15f1d9ec 	lu12i.w	$r12,-28977(0xf8ecf)
1c0031ac:	02b2358c 	addi.w	$r12,$r12,-883(0xc8d)
1c0031b0:	14dd958d 	lu12i.w	$r13,453804(0x6ecac)
1c0031b4:	02b92dad 	addi.w	$r13,$r13,-437(0xe4b)
1c0031b8:	1514446b 	lu12i.w	$r11,-482781(0x8a223)
1c0031bc:	02b9096b 	addi.w	$r11,$r11,-446(0xe42)
1c0031c0:	0011358a 	sub.w	$r10,$r12,$r13
1c0031c4:	5c046d4b 	bne	$r10,$r11,1132(0x46c) # 1c003630 <inst_error>
1c0031c8:	14306d6c 	lu12i.w	$r12,99179(0x1836b)
1c0031cc:	02b8c18c 	addi.w	$r12,$r12,-464(0xe30)
1c0031d0:	1523c7ad 	lu12i.w	$r13,-451011(0x91e3d)
1c0031d4:	0280e1ad 	addi.w	$r13,$r13,56(0x38)
1c0031d8:	150ca5cb 	lu12i.w	$r11,-498386(0x8652e)
1c0031dc:	02b7e16b 	addi.w	$r11,$r11,-520(0xdf8)
1c0031e0:	0011358a 	sub.w	$r10,$r12,$r13
1c0031e4:	5c044d4b 	bne	$r10,$r11,1100(0x44c) # 1c003630 <inst_error>
1c0031e8:	155aa56c 	lu12i.w	$r12,-338645(0xad52b)
1c0031ec:	02bd518c 	addi.w	$r12,$r12,-172(0xf54)
1c0031f0:	151b708d 	lu12i.w	$r13,-468092(0x8db84)
1c0031f4:	028d81ad 	addi.w	$r13,$r13,864(0x360)
1c0031f8:	143f34eb 	lu12i.w	$r11,129447(0x1f9a7)
1c0031fc:	02afd16b 	addi.w	$r11,$r11,-1036(0xbf4)
1c003200:	0011358a 	sub.w	$r10,$r12,$r13
1c003204:	5c042d4b 	bne	$r10,$r11,1068(0x42c) # 1c003630 <inst_error>
1c003208:	14822fec 	lu12i.w	$r12,266623(0x4117f)
1c00320c:	02a9418c 	addi.w	$r12,$r12,-1456(0xa50)
1c003210:	15ab6d8d 	lu12i.w	$r13,-173204(0xd5b6c)
1c003214:	02be41ad 	addi.w	$r13,$r13,-112(0xf90)
1c003218:	14d6c26b 	lu12i.w	$r11,439827(0x6b613)
1c00321c:	02ab016b 	addi.w	$r11,$r11,-1344(0xac0)
1c003220:	0011358a 	sub.w	$r10,$r12,$r13
1c003224:	5c040d4b 	bne	$r10,$r11,1036(0x40c) # 1c003630 <inst_error>
1c003228:	14d6282c 	lu12i.w	$r12,438593(0x6b141)
1c00322c:	02ae798c 	addi.w	$r12,$r12,-1122(0xb9e)
1c003230:	1413aa6d 	lu12i.w	$r13,40275(0x9d53)
1c003234:	029d01ad 	addi.w	$r13,$r13,1856(0x740)
1c003238:	14c27dab 	lu12i.w	$r11,398317(0x613ed)
1c00323c:	0291796b 	addi.w	$r11,$r11,1118(0x45e)
1c003240:	0011358a 	sub.w	$r10,$r12,$r13
1c003244:	5c03ed4b 	bne	$r10,$r11,1004(0x3ec) # 1c003630 <inst_error>
1c003248:	148ba76c 	lu12i.w	$r12,286011(0x45d3b)
1c00324c:	0295558c 	addi.w	$r12,$r12,1365(0x555)
1c003250:	15dd3e4d 	lu12i.w	$r13,-71182(0xee9f2)
1c003254:	02ad01ad 	addi.w	$r13,$r13,-1216(0xb40)
1c003258:	14ae694b 	lu12i.w	$r11,357194(0x5734a)
1c00325c:	02a8556b 	addi.w	$r11,$r11,-1515(0xa15)
1c003260:	0011358a 	sub.w	$r10,$r12,$r13
1c003264:	5c03cd4b 	bne	$r10,$r11,972(0x3cc) # 1c003630 <inst_error>
1c003268:	14d1f1ec 	lu12i.w	$r12,429967(0x68f8f)
1c00326c:	02b96d8c 	addi.w	$r12,$r12,-421(0xe5b)
1c003270:	145641ad 	lu12i.w	$r13,176653(0x2b20d)
1c003274:	02a459ad 	addi.w	$r13,$r13,-1770(0x916)
1c003278:	147bb04b 	lu12i.w	$r11,253314(0x3dd82)
1c00327c:	0295156b 	addi.w	$r11,$r11,1349(0x545)
1c003280:	0011358a 	sub.w	$r10,$r12,$r13
1c003284:	5c03ad4b 	bne	$r10,$r11,940(0x3ac) # 1c003630 <inst_error>
1c003288:	15594e0c 	lu12i.w	$r12,-341392(0xaca70)
1c00328c:	028b998c 	addi.w	$r12,$r12,742(0x2e6)
1c003290:	141d1e0d 	lu12i.w	$r13,59632(0xe8f0)
1c003294:	0285c1ad 	addi.w	$r13,$r13,368(0x170)
1c003298:	153c300b 	lu12i.w	$r11,-401024(0x9e180)
1c00329c:	0285d96b 	addi.w	$r11,$r11,374(0x176)
1c0032a0:	0011358a 	sub.w	$r10,$r12,$r13
1c0032a4:	5c038d4b 	bne	$r10,$r11,908(0x38c) # 1c003630 <inst_error>
1c0032a8:	14b641ec 	lu12i.w	$r12,373263(0x5b20f)
1c0032ac:	02be518c 	addi.w	$r12,$r12,-108(0xf94)
1c0032b0:	1429ec6d 	lu12i.w	$r13,85859(0x14f63)
1c0032b4:	02b1a5ad 	addi.w	$r13,$r13,-919(0xc69)
1c0032b8:	148c558b 	lu12i.w	$r11,287404(0x462ac)
1c0032bc:	028cad6b 	addi.w	$r11,$r11,811(0x32b)
1c0032c0:	0011358a 	sub.w	$r10,$r12,$r13
1c0032c4:	5c036d4b 	bne	$r10,$r11,876(0x36c) # 1c003630 <inst_error>
1c0032c8:	1492272c 	lu12i.w	$r12,299321(0x49139)
1c0032cc:	0284018c 	addi.w	$r12,$r12,256(0x100)
1c0032d0:	147e796d 	lu12i.w	$r13,259019(0x3f3cb)
1c0032d4:	0298c1ad 	addi.w	$r13,$r13,1584(0x630)
1c0032d8:	1413adcb 	lu12i.w	$r11,40302(0x9d6e)
1c0032dc:	02ab416b 	addi.w	$r11,$r11,-1328(0xad0)
1c0032e0:	0011358a 	sub.w	$r10,$r12,$r13
1c0032e4:	5c034d4b 	bne	$r10,$r11,844(0x34c) # 1c003630 <inst_error>
1c0032e8:	15dc882c 	lu12i.w	$r12,-72639(0xee441)
1c0032ec:	02bcf18c 	addi.w	$r12,$r12,-196(0xf3c)
1c0032f0:	15bb0bcd 	lu12i.w	$r13,-141218(0xdd85e)
1c0032f4:	028cd1ad 	addi.w	$r13,$r13,820(0x334)
1c0032f8:	14217c6b 	lu12i.w	$r11,68579(0x10be3)
1c0032fc:	02b0216b 	addi.w	$r11,$r11,-1016(0xc08)
1c003300:	0011358a 	sub.w	$r10,$r12,$r13
1c003304:	5c032d4b 	bne	$r10,$r11,812(0x32c) # 1c003630 <inst_error>
1c003308:	15e89f2c 	lu12i.w	$r12,-47879(0xf44f9)
1c00330c:	02ab818c 	addi.w	$r12,$r12,-1312(0xae0)
1c003310:	153ecd6d 	lu12i.w	$r13,-395669(0x9f66b)
1c003314:	02b001ad 	addi.w	$r13,$r13,-1024(0xc00)
1c003318:	14a9d1cb 	lu12i.w	$r11,347790(0x54e8e)
1c00331c:	02bb816b 	addi.w	$r11,$r11,-288(0xee0)
1c003320:	0011358a 	sub.w	$r10,$r12,$r13
1c003324:	5c030d4b 	bne	$r10,$r11,780(0x30c) # 1c003630 <inst_error>
1c003328:	14b1fe2c 	lu12i.w	$r12,364529(0x58ff1)
1c00332c:	02af418c 	addi.w	$r12,$r12,-1072(0xbd0)
1c003330:	158cf14d 	lu12i.w	$r13,-235638(0xc678a)
1c003334:	02a961ad 	addi.w	$r13,$r13,-1448(0xa58)
1c003338:	15250ceb 	lu12i.w	$r11,-448409(0x92867)
1c00333c:	0285e16b 	addi.w	$r11,$r11,376(0x178)
1c003340:	0011358a 	sub.w	$r10,$r12,$r13
1c003344:	5c02ed4b 	bne	$r10,$r11,748(0x2ec) # 1c003630 <inst_error>
1c003348:	1474d4cc 	lu12i.w	$r12,239270(0x3a6a6)
1c00334c:	02a7758c 	addi.w	$r12,$r12,-1571(0x9dd)
1c003350:	1550aecd 	lu12i.w	$r13,-359050(0xa8576)
1c003354:	02a7d1ad 	addi.w	$r13,$r13,-1548(0x9f4)
1c003358:	1524260b 	lu12i.w	$r11,-450256(0x92130)
1c00335c:	02bfa56b 	addi.w	$r11,$r11,-23(0xfe9)
1c003360:	0011358a 	sub.w	$r10,$r12,$r13
1c003364:	5c02cd4b 	bne	$r10,$r11,716(0x2cc) # 1c003630 <inst_error>
1c003368:	14e414cc 	lu12i.w	$r12,467110(0x720a6)
1c00336c:	0299118c 	addi.w	$r12,$r12,1604(0x644)
1c003370:	15b4b68d 	lu12i.w	$r13,-154188(0xda5b4)
1c003374:	02a929ad 	addi.w	$r13,$r13,-1462(0xa4a)
1c003378:	152f5e6b 	lu12i.w	$r11,-427277(0x97af3)
1c00337c:	02afe96b 	addi.w	$r11,$r11,-1030(0xbfa)
1c003380:	0011358a 	sub.w	$r10,$r12,$r13
1c003384:	5c02ad4b 	bne	$r10,$r11,684(0x2ac) # 1c003630 <inst_error>
1c003388:	14964d8c 	lu12i.w	$r12,307820(0x4b26c)
1c00338c:	02b6818c 	addi.w	$r12,$r12,-608(0xda0)
1c003390:	15cf448d 	lu12i.w	$r13,-99804(0xe7a24)
1c003394:	02b0e1ad 	addi.w	$r13,$r13,-968(0xc38)
1c003398:	14c7090b 	lu12i.w	$r11,407624(0x63848)
1c00339c:	0285a16b 	addi.w	$r11,$r11,360(0x168)
1c0033a0:	0011358a 	sub.w	$r10,$r12,$r13
1c0033a4:	5c028d4b 	bne	$r10,$r11,652(0x28c) # 1c003630 <inst_error>
1c0033a8:	14a9920c 	lu12i.w	$r12,347280(0x54c90)
1c0033ac:	028c018c 	addi.w	$r12,$r12,768(0x300)
1c0033b0:	14b379cd 	lu12i.w	$r13,367566(0x59bce)
1c0033b4:	02b14dad 	addi.w	$r13,$r13,-941(0xc53)
1c0033b8:	15f6184b 	lu12i.w	$r11,-20286(0xfb0c2)
1c0033bc:	029ab56b 	addi.w	$r11,$r11,1709(0x6ad)
1c0033c0:	0011358a 	sub.w	$r10,$r12,$r13
1c0033c4:	5c026d4b 	bne	$r10,$r11,620(0x26c) # 1c003630 <inst_error>
1c0033c8:	14b0e22c 	lu12i.w	$r12,362257(0x58711)
1c0033cc:	028be18c 	addi.w	$r12,$r12,760(0x2f8)
1c0033d0:	1442d50d 	lu12i.w	$r13,136872(0x216a8)
1c0033d4:	02be29ad 	addi.w	$r13,$r13,-118(0xf8a)
1c0033d8:	146e0d2b 	lu12i.w	$r11,225385(0x37069)
1c0033dc:	028db96b 	addi.w	$r11,$r11,878(0x36e)
1c0033e0:	0011358a 	sub.w	$r10,$r12,$r13
1c0033e4:	5c024d4b 	bne	$r10,$r11,588(0x24c) # 1c003630 <inst_error>
1c0033e8:	14556aac 	lu12i.w	$r12,174933(0x2ab55)
1c0033ec:	02b4398c 	addi.w	$r12,$r12,-754(0xd0e)
1c0033f0:	1521ef8d 	lu12i.w	$r13,-454788(0x90f7c)
1c0033f4:	029951ad 	addi.w	$r13,$r13,1620(0x654)
1c0033f8:	15337b0b 	lu12i.w	$r11,-418856(0x99bd8)
1c0033fc:	029ae96b 	addi.w	$r11,$r11,1722(0x6ba)
1c003400:	0011358a 	sub.w	$r10,$r12,$r13
1c003404:	5c022d4b 	bne	$r10,$r11,556(0x22c) # 1c003630 <inst_error>
1c003408:	1527ecac 	lu12i.w	$r12,-442523(0x93f65)
1c00340c:	02a1818c 	addi.w	$r12,$r12,-1952(0x860)
1c003410:	15dd556d 	lu12i.w	$r13,-70997(0xeeaab)
1c003414:	02a001ad 	addi.w	$r13,$r13,-2048(0x800)
1c003418:	154a974b 	lu12i.w	$r11,-371526(0xa54ba)
1c00341c:	0281816b 	addi.w	$r11,$r11,96(0x60)
1c003420:	0011358a 	sub.w	$r10,$r12,$r13
1c003424:	5c020d4b 	bne	$r10,$r11,524(0x20c) # 1c003630 <inst_error>
1c003428:	1528fc8c 	lu12i.w	$r12,-440348(0x947e4)
1c00342c:	02af018c 	addi.w	$r12,$r12,-1088(0xbc0)
1c003430:	15a202ed 	lu12i.w	$r13,-192489(0xd1017)
1c003434:	028871ad 	addi.w	$r13,$r13,540(0x21c)
1c003438:	1586f9ab 	lu12i.w	$r11,-247859(0xc37cd)
1c00343c:	02a6916b 	addi.w	$r11,$r11,-1628(0x9a4)
1c003440:	0011358a 	sub.w	$r10,$r12,$r13
1c003444:	5c01ed4b 	bne	$r10,$r11,492(0x1ec) # 1c003630 <inst_error>
1c003448:	141160ac 	lu12i.w	$r12,35589(0x8b05)
1c00344c:	0288618c 	addi.w	$r12,$r12,536(0x218)
1c003450:	15efbe2d 	lu12i.w	$r13,-33295(0xf7df1)
1c003454:	029301ad 	addi.w	$r13,$r13,1216(0x4c0)
1c003458:	1421a28b 	lu12i.w	$r11,68884(0x10d14)
1c00345c:	02b5616b 	addi.w	$r11,$r11,-680(0xd58)
1c003460:	0011358a 	sub.w	$r10,$r12,$r13
1c003464:	5c01cd4b 	bne	$r10,$r11,460(0x1cc) # 1c003630 <inst_error>
1c003468:	1517320c 	lu12i.w	$r12,-476784(0x8b990)
1c00346c:	0296098c 	addi.w	$r12,$r12,1410(0x582)
1c003470:	1568bdad 	lu12i.w	$r13,-309779(0xb45ed)
1c003474:	02aa21ad 	addi.w	$r13,$r13,-1400(0xa88)
1c003478:	15ae748b 	lu12i.w	$r11,-167004(0xd73a4)
1c00347c:	02abe96b 	addi.w	$r11,$r11,-1286(0xafa)
1c003480:	0011358a 	sub.w	$r10,$r12,$r13
1c003484:	5c01ad4b 	bne	$r10,$r11,428(0x1ac) # 1c003630 <inst_error>
1c003488:	14a9414c 	lu12i.w	$r12,346634(0x54a0a)
1c00348c:	02b1818c 	addi.w	$r12,$r12,-928(0xc60)
1c003490:	15e0cc0d 	lu12i.w	$r13,-63904(0xf0660)
1c003494:	02bd65ad 	addi.w	$r13,$r13,-167(0xf59)
1c003498:	14c8754b 	lu12i.w	$r11,410538(0x643aa)
1c00349c:	02b41d6b 	addi.w	$r11,$r11,-761(0xd07)
1c0034a0:	0011358a 	sub.w	$r10,$r12,$r13
1c0034a4:	5c018d4b 	bne	$r10,$r11,396(0x18c) # 1c003630 <inst_error>
1c0034a8:	140549cc 	lu12i.w	$r12,10830(0x2a4e)
1c0034ac:	028f498c 	addi.w	$r12,$r12,978(0x3d2)
1c0034b0:	14b94ecd 	lu12i.w	$r13,379510(0x5ca76)
1c0034b4:	02a001ad 	addi.w	$r13,$r13,-2048(0x800)
1c0034b8:	154bfb2b 	lu12i.w	$r11,-368679(0xa5fd9)
1c0034bc:	02af496b 	addi.w	$r11,$r11,-1070(0xbd2)
1c0034c0:	0011358a 	sub.w	$r10,$r12,$r13
1c0034c4:	5c016d4b 	bne	$r10,$r11,364(0x16c) # 1c003630 <inst_error>
1c0034c8:	14e2058c 	lu12i.w	$r12,462892(0x7102c)
1c0034cc:	02940d8c 	addi.w	$r12,$r12,1283(0x503)
1c0034d0:	148b1ded 	lu12i.w	$r13,284911(0x458ef)
1c0034d4:	02aafdad 	addi.w	$r13,$r13,-1345(0xabf)
1c0034d8:	1456e7cb 	lu12i.w	$r11,177982(0x2b73e)
1c0034dc:	02a9116b 	addi.w	$r11,$r11,-1468(0xa44)
1c0034e0:	0011358a 	sub.w	$r10,$r12,$r13
1c0034e4:	5c014d4b 	bne	$r10,$r11,332(0x14c) # 1c003630 <inst_error>
1c0034e8:	1509262c 	lu12i.w	$r12,-505551(0x84931)
1c0034ec:	02b0018c 	addi.w	$r12,$r12,-1024(0xc00)
1c0034f0:	15eb808d 	lu12i.w	$r13,-41980(0xf5c04)
1c0034f4:	028891ad 	addi.w	$r13,$r13,548(0x224)
1c0034f8:	151da5ab 	lu12i.w	$r11,-463571(0x8ed2d)
1c0034fc:	02a7716b 	addi.w	$r11,$r11,-1572(0x9dc)
1c003500:	0011358a 	sub.w	$r10,$r12,$r13
1c003504:	5c012d4b 	bne	$r10,$r11,300(0x12c) # 1c003630 <inst_error>
1c003508:	15c3eaac 	lu12i.w	$r12,-123051(0xe1f55)
1c00350c:	029c098c 	addi.w	$r12,$r12,1794(0x702)
1c003510:	1483f86d 	lu12i.w	$r13,270275(0x41fc3)
1c003514:	02a9a1ad 	addi.w	$r13,$r13,-1432(0xa68)
1c003518:	153ff26b 	lu12i.w	$r11,-393325(0x9ff93)
1c00351c:	02b2696b 	addi.w	$r11,$r11,-870(0xc9a)
1c003520:	0011358a 	sub.w	$r10,$r12,$r13
1c003524:	5c010d4b 	bne	$r10,$r11,268(0x10c) # 1c003630 <inst_error>
1c003528:	15fc36ac 	lu12i.w	$r12,-7755(0xfe1b5)
1c00352c:	0297898c 	addi.w	$r12,$r12,1506(0x5e2)
1c003530:	1489a96d 	lu12i.w	$r13,281931(0x44d4b)
1c003534:	029e11ad 	addi.w	$r13,$r13,1924(0x784)
1c003538:	15728d4b 	lu12i.w	$r11,-289686(0xb946a)
1c00353c:	02b9796b 	addi.w	$r11,$r11,-418(0xe5e)
1c003540:	0011358a 	sub.w	$r10,$r12,$r13
1c003544:	5c00ed4b 	bne	$r10,$r11,236(0xec) # 1c003630 <inst_error>
1c003548:	15518d4c 	lu12i.w	$r12,-357270(0xa8c6a)
1c00354c:	02a7e18c 	addi.w	$r12,$r12,-1544(0x9f8)
1c003550:	1480ad8d 	lu12i.w	$r13,263532(0x4056c)
1c003554:	028ea1ad 	addi.w	$r13,$r13,936(0x3a8)
1c003558:	14d0dfab 	lu12i.w	$r11,427773(0x686fd)
1c00355c:	0299416b 	addi.w	$r11,$r11,1616(0x650)
1c003560:	0011358a 	sub.w	$r10,$r12,$r13
1c003564:	5c00cd4b 	bne	$r10,$r11,204(0xcc) # 1c003630 <inst_error>
1c003568:	15cdcd6c 	lu12i.w	$r12,-102805(0xe6e6b)
1c00356c:	02b4098c 	addi.w	$r12,$r12,-766(0xd02)
1c003570:	140d880d 	lu12i.w	$r13,27712(0x6c40)
1c003574:	02a2f1ad 	addi.w	$r13,$r13,-1860(0x8bc)
1c003578:	15c0456b 	lu12i.w	$r11,-130517(0xe022b)
1c00357c:	0291196b 	addi.w	$r11,$r11,1094(0x446)
1c003580:	0011358a 	sub.w	$r10,$r12,$r13
1c003584:	5c00ad4b 	bne	$r10,$r11,172(0xac) # 1c003630 <inst_error>
1c003588:	15e60aec 	lu12i.w	$r12,-53161(0xf3057)
1c00358c:	0283018c 	addi.w	$r12,$r12,192(0xc0)
1c003590:	145fb0ed 	lu12i.w	$r13,195975(0x2fd87)
1c003594:	02b001ad 	addi.w	$r13,$r13,-1024(0xc00)
1c003598:	15865a0b 	lu12i.w	$r11,-249136(0xc32d0)
1c00359c:	0293016b 	addi.w	$r11,$r11,1216(0x4c0)
1c0035a0:	0011358a 	sub.w	$r10,$r12,$r13
1c0035a4:	5c008d4b 	bne	$r10,$r11,140(0x8c) # 1c003630 <inst_error>
1c0035a8:	14d5bb6c 	lu12i.w	$r12,437723(0x6addb)
1c0035ac:	0280018c 	addi.w	$r12,$r12,0
1c0035b0:	14e5bbed 	lu12i.w	$r13,470495(0x72ddf)
1c0035b4:	028459ad 	addi.w	$r13,$r13,278(0x116)
1c0035b8:	15efff8b 	lu12i.w	$r11,-32772(0xf7ffc)
1c0035bc:	02bba96b 	addi.w	$r11,$r11,-278(0xeea)
1c0035c0:	0011358a 	sub.w	$r10,$r12,$r13
1c0035c4:	5c006d4b 	bne	$r10,$r11,108(0x6c) # 1c003630 <inst_error>
1c0035c8:	1400b48c 	lu12i.w	$r12,1444(0x5a4)
1c0035cc:	0299998c 	addi.w	$r12,$r12,1638(0x666)
1c0035d0:	150f542d 	lu12i.w	$r13,-492895(0x87aa1)
1c0035d4:	02a399ad 	addi.w	$r13,$r13,-1818(0x8e6)
1c0035d8:	14f1608b 	lu12i.w	$r11,494340(0x78b04)
1c0035dc:	02b6016b 	addi.w	$r11,$r11,-640(0xd80)
1c0035e0:	0011358a 	sub.w	$r10,$r12,$r13
1c0035e4:	5c004d4b 	bne	$r10,$r11,76(0x4c) # 1c003630 <inst_error>
1c0035e8:	152586ac 	lu12i.w	$r12,-447435(0x92c35)
1c0035ec:	02bf718c 	addi.w	$r12,$r12,-36(0xfdc)
1c0035f0:	15dda2ad 	lu12i.w	$r13,-70379(0xeed15)
1c0035f4:	028561ad 	addi.w	$r13,$r13,344(0x158)
1c0035f8:	1547e40b 	lu12i.w	$r11,-377056(0xa3f20)
1c0035fc:	02ba116b 	addi.w	$r11,$r11,-380(0xe84)
1c003600:	0011358a 	sub.w	$r10,$r12,$r13
1c003604:	5c002d4b 	bne	$r10,$r11,44(0x2c) # 1c003630 <inst_error>
1c003608:	1400000c 	lu12i.w	$r12,0
1c00360c:	0280018c 	addi.w	$r12,$r12,0
1c003610:	1400000d 	lu12i.w	$r13,0
1c003614:	028001ad 	addi.w	$r13,$r13,0
1c003618:	1400000b 	lu12i.w	$r11,0
1c00361c:	0280016b 	addi.w	$r11,$r11,0
1c003620:	0011358a 	sub.w	$r10,$r12,$r13
1c003624:	5c000d4b 	bne	$r10,$r11,12(0xc) # 1c003630 <inst_error>
1c003628:	5c000b20 	bne	$r25,$r0,8(0x8) # 1c003630 <inst_error>
1c00362c:	0280075a 	addi.w	$r26,$r26,1(0x1)

1c003630 <inst_error>:
1c003630:	0040e2ed 	slli.w	$r13,$r23,0x18
1c003634:	001569ac 	or	$r12,$r13,$r26
1c003638:	2980030c 	st.w	$r12,$r24,0
1c00363c:	4c000020 	jirl	$r0,$r1,0

1c003640 <n17_bne_test>:
n17_bne_test():
1c003640:	028006f7 	addi.w	$r23,$r23,1(0x1)
1c003644:	00150019 	move	$r25,$r0
1c003648:	1446bfd0 	lu12i.w	$r16,144894(0x235fe)
1c00364c:	02b80210 	addi.w	$r16,$r16,-512(0xe00)
1c003650:	15bab311 	lu12i.w	$r17,-141928(0xdd598)
1c003654:	02b77a31 	addi.w	$r17,$r17,-546(0xdde)
1c003658:	1400000a 	lu12i.w	$r10,0
1c00365c:	1400000b 	lu12i.w	$r11,0
1c003660:	50001400 	b	20(0x14) # 1c003674 <n17_bne_test+0x34>
1c003664:	1446bfca 	lu12i.w	$r10,144894(0x235fe)
1c003668:	02b8014a 	addi.w	$r10,$r10,-512(0xe00)
1c00366c:	5c0021ac 	bne	$r13,$r12,32(0x20) # 1c00368c <n17_bne_test+0x4c>
1c003670:	50002400 	b	36(0x24) # 1c003694 <n17_bne_test+0x54>
1c003674:	1579558c 	lu12i.w	$r12,-275796(0xbcaac)
1c003678:	02b49d8c 	addi.w	$r12,$r12,-729(0xd27)
1c00367c:	15054f0d 	lu12i.w	$r13,-513416(0x82a78)
1c003680:	02aa75ad 	addi.w	$r13,$r13,-1379(0xa9d)
1c003684:	5fffe18d 	bne	$r12,$r13,-32(0x3ffe0) # 1c003664 <n17_bne_test+0x24>
1c003688:	50000c00 	b	12(0xc) # 1c003694 <n17_bne_test+0x54>
1c00368c:	15bab30b 	lu12i.w	$r11,-141928(0xdd598)
1c003690:	02b7796b 	addi.w	$r11,$r11,-546(0xdde)
1c003694:	1446bfdc 	lu12i.w	$r28,144894(0x235fe)
1c003698:	02b8039c 	addi.w	$r28,$r28,-512(0xe00)
1c00369c:	15bab31d 	lu12i.w	$r29,-141928(0xdd598)
1c0036a0:	02b77bbd 	addi.w	$r29,$r29,-546(0xdde)
1c0036a4:	5c0e215c 	bne	$r10,$r28,3616(0xe20) # 1c0044c4 <inst_error>
1c0036a8:	5c0e1d7d 	bne	$r11,$r29,3612(0xe1c) # 1c0044c4 <inst_error>
1c0036ac:	1528cd10 	lu12i.w	$r16,-440728(0x94668)
1c0036b0:	02800210 	addi.w	$r16,$r16,0
1c0036b4:	15c72731 	lu12i.w	$r17,-116423(0xe3939)
1c0036b8:	0295a231 	addi.w	$r17,$r17,1384(0x568)
1c0036bc:	1400000a 	lu12i.w	$r10,0
1c0036c0:	1400000b 	lu12i.w	$r11,0
1c0036c4:	50001400 	b	20(0x14) # 1c0036d8 <n17_bne_test+0x98>
1c0036c8:	1528cd0a 	lu12i.w	$r10,-440728(0x94668)
1c0036cc:	0280014a 	addi.w	$r10,$r10,0
1c0036d0:	5c0021ac 	bne	$r13,$r12,32(0x20) # 1c0036f0 <n17_bne_test+0xb0>
1c0036d4:	50002400 	b	36(0x24) # 1c0036f8 <n17_bne_test+0xb8>
1c0036d8:	15b670cc 	lu12i.w	$r12,-150650(0xdb386)
1c0036dc:	0281098c 	addi.w	$r12,$r12,66(0x42)
1c0036e0:	149eda0d 	lu12i.w	$r13,325328(0x4f6d0)
1c0036e4:	028d7dad 	addi.w	$r13,$r13,863(0x35f)
1c0036e8:	5fffe18d 	bne	$r12,$r13,-32(0x3ffe0) # 1c0036c8 <n17_bne_test+0x88>
1c0036ec:	50000c00 	b	12(0xc) # 1c0036f8 <n17_bne_test+0xb8>
1c0036f0:	15c7272b 	lu12i.w	$r11,-116423(0xe3939)
1c0036f4:	0295a16b 	addi.w	$r11,$r11,1384(0x568)
1c0036f8:	1528cd1c 	lu12i.w	$r28,-440728(0x94668)
1c0036fc:	0280039c 	addi.w	$r28,$r28,0
1c003700:	15c7273d 	lu12i.w	$r29,-116423(0xe3939)
1c003704:	0295a3bd 	addi.w	$r29,$r29,1384(0x568)
1c003708:	5c0dbd5c 	bne	$r10,$r28,3516(0xdbc) # 1c0044c4 <inst_error>
1c00370c:	5c0db97d 	bne	$r11,$r29,3512(0xdb8) # 1c0044c4 <inst_error>
1c003710:	153afcb0 	lu12i.w	$r16,-403483(0x9d7e5)
1c003714:	028a6210 	addi.w	$r16,$r16,664(0x298)
1c003718:	15bb5651 	lu12i.w	$r17,-140622(0xddab2)
1c00371c:	028ce231 	addi.w	$r17,$r17,824(0x338)
1c003720:	1400000a 	lu12i.w	$r10,0
1c003724:	1400000b 	lu12i.w	$r11,0
1c003728:	50001400 	b	20(0x14) # 1c00373c <n17_bne_test+0xfc>
1c00372c:	153afcaa 	lu12i.w	$r10,-403483(0x9d7e5)
1c003730:	028a614a 	addi.w	$r10,$r10,664(0x298)
1c003734:	5c0021ac 	bne	$r13,$r12,32(0x20) # 1c003754 <n17_bne_test+0x114>
1c003738:	50002400 	b	36(0x24) # 1c00375c <n17_bne_test+0x11c>
1c00373c:	149b0c0c 	lu12i.w	$r12,317536(0x4d860)
1c003740:	0288318c 	addi.w	$r12,$r12,524(0x20c)
1c003744:	154e3f0d 	lu12i.w	$r13,-364040(0xa71f8)
1c003748:	02b601ad 	addi.w	$r13,$r13,-640(0xd80)
1c00374c:	5fffe18d 	bne	$r12,$r13,-32(0x3ffe0) # 1c00372c <n17_bne_test+0xec>
1c003750:	50000c00 	b	12(0xc) # 1c00375c <n17_bne_test+0x11c>
1c003754:	15bb564b 	lu12i.w	$r11,-140622(0xddab2)
1c003758:	028ce16b 	addi.w	$r11,$r11,824(0x338)
1c00375c:	153afcbc 	lu12i.w	$r28,-403483(0x9d7e5)
1c003760:	028a639c 	addi.w	$r28,$r28,664(0x298)
1c003764:	15bb565d 	lu12i.w	$r29,-140622(0xddab2)
1c003768:	028ce3bd 	addi.w	$r29,$r29,824(0x338)
1c00376c:	5c0d595c 	bne	$r10,$r28,3416(0xd58) # 1c0044c4 <inst_error>
1c003770:	5c0d557d 	bne	$r11,$r29,3412(0xd54) # 1c0044c4 <inst_error>
1c003774:	15142c70 	lu12i.w	$r16,-482973(0x8a163)
1c003778:	02bf0210 	addi.w	$r16,$r16,-64(0xfc0)
1c00377c:	15bdcd91 	lu12i.w	$r17,-135572(0xdee6c)
1c003780:	028d2231 	addi.w	$r17,$r17,840(0x348)
1c003784:	1400000a 	lu12i.w	$r10,0
1c003788:	1400000b 	lu12i.w	$r11,0
1c00378c:	50001400 	b	20(0x14) # 1c0037a0 <n17_bne_test+0x160>
1c003790:	15142c6a 	lu12i.w	$r10,-482973(0x8a163)
1c003794:	02bf014a 	addi.w	$r10,$r10,-64(0xfc0)
1c003798:	5c0021ac 	bne	$r13,$r12,32(0x20) # 1c0037b8 <n17_bne_test+0x178>
1c00379c:	50002400 	b	36(0x24) # 1c0037c0 <n17_bne_test+0x180>
1c0037a0:	15aa440c 	lu12i.w	$r12,-175584(0xd5220)
1c0037a4:	0297218c 	addi.w	$r12,$r12,1480(0x5c8)
1c0037a8:	14c1d66d 	lu12i.w	$r13,396979(0x60eb3)
1c0037ac:	02bc0dad 	addi.w	$r13,$r13,-253(0xf03)
1c0037b0:	5fffe18d 	bne	$r12,$r13,-32(0x3ffe0) # 1c003790 <n17_bne_test+0x150>
1c0037b4:	50000c00 	b	12(0xc) # 1c0037c0 <n17_bne_test+0x180>
1c0037b8:	15bdcd8b 	lu12i.w	$r11,-135572(0xdee6c)
1c0037bc:	028d216b 	addi.w	$r11,$r11,840(0x348)
1c0037c0:	15142c7c 	lu12i.w	$r28,-482973(0x8a163)
1c0037c4:	02bf039c 	addi.w	$r28,$r28,-64(0xfc0)
1c0037c8:	15bdcd9d 	lu12i.w	$r29,-135572(0xdee6c)
1c0037cc:	028d23bd 	addi.w	$r29,$r29,840(0x348)
1c0037d0:	5c0cf55c 	bne	$r10,$r28,3316(0xcf4) # 1c0044c4 <inst_error>
1c0037d4:	5c0cf17d 	bne	$r11,$r29,3312(0xcf0) # 1c0044c4 <inst_error>
1c0037d8:	14c03350 	lu12i.w	$r16,393626(0x6019a)
1c0037dc:	02ab9210 	addi.w	$r16,$r16,-1308(0xae4)
1c0037e0:	14660ef1 	lu12i.w	$r17,209015(0x33077)
1c0037e4:	02855231 	addi.w	$r17,$r17,340(0x154)
1c0037e8:	1400000a 	lu12i.w	$r10,0
1c0037ec:	1400000b 	lu12i.w	$r11,0
1c0037f0:	50001400 	b	20(0x14) # 1c003804 <n17_bne_test+0x1c4>
1c0037f4:	14c0334a 	lu12i.w	$r10,393626(0x6019a)
1c0037f8:	02ab914a 	addi.w	$r10,$r10,-1308(0xae4)
1c0037fc:	5c0021ac 	bne	$r13,$r12,32(0x20) # 1c00381c <n17_bne_test+0x1dc>
1c003800:	50002400 	b	36(0x24) # 1c003824 <n17_bne_test+0x1e4>
1c003804:	15d2b42c 	lu12i.w	$r12,-92767(0xe95a1)
1c003808:	02a6958c 	addi.w	$r12,$r12,-1627(0x9a5)
1c00380c:	142f73cd 	lu12i.w	$r13,97182(0x17b9e)
1c003810:	028201ad 	addi.w	$r13,$r13,128(0x80)
1c003814:	5fffe18d 	bne	$r12,$r13,-32(0x3ffe0) # 1c0037f4 <n17_bne_test+0x1b4>
1c003818:	50000c00 	b	12(0xc) # 1c003824 <n17_bne_test+0x1e4>
1c00381c:	14660eeb 	lu12i.w	$r11,209015(0x33077)
1c003820:	0285516b 	addi.w	$r11,$r11,340(0x154)
1c003824:	14c0335c 	lu12i.w	$r28,393626(0x6019a)
1c003828:	02ab939c 	addi.w	$r28,$r28,-1308(0xae4)
1c00382c:	14660efd 	lu12i.w	$r29,209015(0x33077)
1c003830:	028553bd 	addi.w	$r29,$r29,340(0x154)
1c003834:	5c0c915c 	bne	$r10,$r28,3216(0xc90) # 1c0044c4 <inst_error>
1c003838:	5c0c8d7d 	bne	$r11,$r29,3212(0xc8c) # 1c0044c4 <inst_error>
1c00383c:	14108110 	lu12i.w	$r16,33800(0x8408)
1c003840:	0283e210 	addi.w	$r16,$r16,248(0xf8)
1c003844:	14c89a91 	lu12i.w	$r17,410836(0x644d4)
1c003848:	02b8a231 	addi.w	$r17,$r17,-472(0xe28)
1c00384c:	1400000a 	lu12i.w	$r10,0
1c003850:	1400000b 	lu12i.w	$r11,0
1c003854:	50001400 	b	20(0x14) # 1c003868 <n17_bne_test+0x228>
1c003858:	1410810a 	lu12i.w	$r10,33800(0x8408)
1c00385c:	0283e14a 	addi.w	$r10,$r10,248(0xf8)
1c003860:	5c0021ac 	bne	$r13,$r12,32(0x20) # 1c003880 <n17_bne_test+0x240>
1c003864:	50002400 	b	36(0x24) # 1c003888 <n17_bne_test+0x248>
1c003868:	15a1aaec 	lu12i.w	$r12,-193193(0xd0d57)
1c00386c:	02a0498c 	addi.w	$r12,$r12,-2030(0x812)
1c003870:	151ea50d 	lu12i.w	$r13,-461528(0x8f528)
1c003874:	02b381ad 	addi.w	$r13,$r13,-800(0xce0)
1c003878:	5fffe18d 	bne	$r12,$r13,-32(0x3ffe0) # 1c003858 <n17_bne_test+0x218>
1c00387c:	50000c00 	b	12(0xc) # 1c003888 <n17_bne_test+0x248>
1c003880:	14c89a8b 	lu12i.w	$r11,410836(0x644d4)
1c003884:	02b8a16b 	addi.w	$r11,$r11,-472(0xe28)
1c003888:	1410811c 	lu12i.w	$r28,33800(0x8408)
1c00388c:	0283e39c 	addi.w	$r28,$r28,248(0xf8)
1c003890:	14c89a9d 	lu12i.w	$r29,410836(0x644d4)
1c003894:	02b8a3bd 	addi.w	$r29,$r29,-472(0xe28)
1c003898:	5c0c2d5c 	bne	$r10,$r28,3116(0xc2c) # 1c0044c4 <inst_error>
1c00389c:	5c0c297d 	bne	$r11,$r29,3112(0xc28) # 1c0044c4 <inst_error>
1c0038a0:	15ff9290 	lu12i.w	$r16,-876(0xffc94)
1c0038a4:	02af9210 	addi.w	$r16,$r16,-1052(0xbe4)
1c0038a8:	15b6f8f1 	lu12i.w	$r17,-149561(0xdb7c7)
1c0038ac:	02af9231 	addi.w	$r17,$r17,-1052(0xbe4)
1c0038b0:	1400000a 	lu12i.w	$r10,0
1c0038b4:	1400000b 	lu12i.w	$r11,0
1c0038b8:	50001400 	b	20(0x14) # 1c0038cc <n17_bne_test+0x28c>
1c0038bc:	15ff928a 	lu12i.w	$r10,-876(0xffc94)
1c0038c0:	02af914a 	addi.w	$r10,$r10,-1052(0xbe4)
1c0038c4:	5c0021ac 	bne	$r13,$r12,32(0x20) # 1c0038e4 <n17_bne_test+0x2a4>
1c0038c8:	50002400 	b	36(0x24) # 1c0038ec <n17_bne_test+0x2ac>
1c0038cc:	1475646c 	lu12i.w	$r12,240419(0x3ab23)
1c0038d0:	02a4c18c 	addi.w	$r12,$r12,-1744(0x930)
1c0038d4:	1540104d 	lu12i.w	$r13,-393086(0xa0082)
1c0038d8:	02a401ad 	addi.w	$r13,$r13,-1792(0x900)
1c0038dc:	5fffe18d 	bne	$r12,$r13,-32(0x3ffe0) # 1c0038bc <n17_bne_test+0x27c>
1c0038e0:	50000c00 	b	12(0xc) # 1c0038ec <n17_bne_test+0x2ac>
1c0038e4:	15b6f8eb 	lu12i.w	$r11,-149561(0xdb7c7)
1c0038e8:	02af916b 	addi.w	$r11,$r11,-1052(0xbe4)
1c0038ec:	15ff929c 	lu12i.w	$r28,-876(0xffc94)
1c0038f0:	02af939c 	addi.w	$r28,$r28,-1052(0xbe4)
1c0038f4:	15b6f8fd 	lu12i.w	$r29,-149561(0xdb7c7)
1c0038f8:	02af93bd 	addi.w	$r29,$r29,-1052(0xbe4)
1c0038fc:	5c0bc95c 	bne	$r10,$r28,3016(0xbc8) # 1c0044c4 <inst_error>
1c003900:	5c0bc57d 	bne	$r11,$r29,3012(0xbc4) # 1c0044c4 <inst_error>
1c003904:	14a68610 	lu12i.w	$r16,341040(0x53430)
1c003908:	029d0210 	addi.w	$r16,$r16,1856(0x740)
1c00390c:	147ae491 	lu12i.w	$r17,251684(0x3d724)
1c003910:	029cce31 	addi.w	$r17,$r17,1843(0x733)
1c003914:	1400000a 	lu12i.w	$r10,0
1c003918:	1400000b 	lu12i.w	$r11,0
1c00391c:	50001400 	b	20(0x14) # 1c003930 <n17_bne_test+0x2f0>
1c003920:	14a6860a 	lu12i.w	$r10,341040(0x53430)
1c003924:	029d014a 	addi.w	$r10,$r10,1856(0x740)
1c003928:	5c0021ac 	bne	$r13,$r12,32(0x20) # 1c003948 <n17_bne_test+0x308>
1c00392c:	50002400 	b	36(0x24) # 1c003950 <n17_bne_test+0x310>
1c003930:	1451348c 	lu12i.w	$r12,166308(0x289a4)
1c003934:	0298e18c 	addi.w	$r12,$r12,1592(0x638)
1c003938:	146037ed 	lu12i.w	$r13,197055(0x301bf)
1c00393c:	02908dad 	addi.w	$r13,$r13,1059(0x423)
1c003940:	5fffe18d 	bne	$r12,$r13,-32(0x3ffe0) # 1c003920 <n17_bne_test+0x2e0>
1c003944:	50000c00 	b	12(0xc) # 1c003950 <n17_bne_test+0x310>
1c003948:	147ae48b 	lu12i.w	$r11,251684(0x3d724)
1c00394c:	029ccd6b 	addi.w	$r11,$r11,1843(0x733)
1c003950:	14a6861c 	lu12i.w	$r28,341040(0x53430)
1c003954:	029d039c 	addi.w	$r28,$r28,1856(0x740)
1c003958:	147ae49d 	lu12i.w	$r29,251684(0x3d724)
1c00395c:	029ccfbd 	addi.w	$r29,$r29,1843(0x733)
1c003960:	5c0b655c 	bne	$r10,$r28,2916(0xb64) # 1c0044c4 <inst_error>
1c003964:	5c0b617d 	bne	$r11,$r29,2912(0xb60) # 1c0044c4 <inst_error>
1c003968:	1590eeb0 	lu12i.w	$r16,-227467(0xc8775)
1c00396c:	029b6e10 	addi.w	$r16,$r16,1755(0x6db)
1c003970:	14e09f91 	lu12i.w	$r17,460028(0x704fc)
1c003974:	0284e231 	addi.w	$r17,$r17,312(0x138)
1c003978:	1400000a 	lu12i.w	$r10,0
1c00397c:	1400000b 	lu12i.w	$r11,0
1c003980:	50001400 	b	20(0x14) # 1c003994 <n17_bne_test+0x354>
1c003984:	1590eeaa 	lu12i.w	$r10,-227467(0xc8775)
1c003988:	029b6d4a 	addi.w	$r10,$r10,1755(0x6db)
1c00398c:	5c0021ac 	bne	$r13,$r12,32(0x20) # 1c0039ac <n17_bne_test+0x36c>
1c003990:	50002400 	b	36(0x24) # 1c0039b4 <n17_bne_test+0x374>
1c003994:	156f930c 	lu12i.w	$r12,-295784(0xb7c98)
1c003998:	02bc258c 	addi.w	$r12,$r12,-247(0xf09)
1c00399c:	1594422d 	lu12i.w	$r13,-220655(0xca211)
1c0039a0:	02adc1ad 	addi.w	$r13,$r13,-1168(0xb70)
1c0039a4:	5fffe18d 	bne	$r12,$r13,-32(0x3ffe0) # 1c003984 <n17_bne_test+0x344>
1c0039a8:	50000c00 	b	12(0xc) # 1c0039b4 <n17_bne_test+0x374>
1c0039ac:	14e09f8b 	lu12i.w	$r11,460028(0x704fc)
1c0039b0:	0284e16b 	addi.w	$r11,$r11,312(0x138)
1c0039b4:	1590eebc 	lu12i.w	$r28,-227467(0xc8775)
1c0039b8:	029b6f9c 	addi.w	$r28,$r28,1755(0x6db)
1c0039bc:	14e09f9d 	lu12i.w	$r29,460028(0x704fc)
1c0039c0:	0284e3bd 	addi.w	$r29,$r29,312(0x138)
1c0039c4:	5c0b015c 	bne	$r10,$r28,2816(0xb00) # 1c0044c4 <inst_error>
1c0039c8:	5c0afd7d 	bne	$r11,$r29,2812(0xafc) # 1c0044c4 <inst_error>
1c0039cc:	147eabb0 	lu12i.w	$r16,259421(0x3f55d)
1c0039d0:	028dc210 	addi.w	$r16,$r16,880(0x370)
1c0039d4:	15bed571 	lu12i.w	$r17,-133461(0xdf6ab)
1c0039d8:	02906231 	addi.w	$r17,$r17,1048(0x418)
1c0039dc:	1400000a 	lu12i.w	$r10,0
1c0039e0:	1400000b 	lu12i.w	$r11,0
1c0039e4:	50001400 	b	20(0x14) # 1c0039f8 <n17_bne_test+0x3b8>
1c0039e8:	147eabaa 	lu12i.w	$r10,259421(0x3f55d)
1c0039ec:	028dc14a 	addi.w	$r10,$r10,880(0x370)
1c0039f0:	5c0021ac 	bne	$r13,$r12,32(0x20) # 1c003a10 <n17_bne_test+0x3d0>
1c0039f4:	50002400 	b	36(0x24) # 1c003a18 <n17_bne_test+0x3d8>
1c0039f8:	14a68c4c 	lu12i.w	$r12,341090(0x53462)
1c0039fc:	02a17d8c 	addi.w	$r12,$r12,-1953(0x85f)
1c003a00:	15bad10d 	lu12i.w	$r13,-141688(0xdd688)
1c003a04:	0281b1ad 	addi.w	$r13,$r13,108(0x6c)
1c003a08:	5fffe18d 	bne	$r12,$r13,-32(0x3ffe0) # 1c0039e8 <n17_bne_test+0x3a8>
1c003a0c:	50000c00 	b	12(0xc) # 1c003a18 <n17_bne_test+0x3d8>
1c003a10:	15bed56b 	lu12i.w	$r11,-133461(0xdf6ab)
1c003a14:	0290616b 	addi.w	$r11,$r11,1048(0x418)
1c003a18:	147eabbc 	lu12i.w	$r28,259421(0x3f55d)
1c003a1c:	028dc39c 	addi.w	$r28,$r28,880(0x370)
1c003a20:	15bed57d 	lu12i.w	$r29,-133461(0xdf6ab)
1c003a24:	029063bd 	addi.w	$r29,$r29,1048(0x418)
1c003a28:	5c0a9d5c 	bne	$r10,$r28,2716(0xa9c) # 1c0044c4 <inst_error>
1c003a2c:	5c0a997d 	bne	$r11,$r29,2712(0xa98) # 1c0044c4 <inst_error>
1c003a30:	14d4d1f0 	lu12i.w	$r16,435855(0x6a68f)
1c003a34:	02945210 	addi.w	$r16,$r16,1300(0x514)
1c003a38:	15efd5b1 	lu12i.w	$r17,-33107(0xf7ead)
1c003a3c:	028b8231 	addi.w	$r17,$r17,736(0x2e0)
1c003a40:	1400000a 	lu12i.w	$r10,0
1c003a44:	1400000b 	lu12i.w	$r11,0
1c003a48:	50001400 	b	20(0x14) # 1c003a5c <n17_bne_test+0x41c>
1c003a4c:	14d4d1ea 	lu12i.w	$r10,435855(0x6a68f)
1c003a50:	0294514a 	addi.w	$r10,$r10,1300(0x514)
1c003a54:	5c0021ac 	bne	$r13,$r12,32(0x20) # 1c003a74 <n17_bne_test+0x434>
1c003a58:	50002400 	b	36(0x24) # 1c003a7c <n17_bne_test+0x43c>
1c003a5c:	15eae74c 	lu12i.w	$r12,-43206(0xf573a)
1c003a60:	028e2d8c 	addi.w	$r12,$r12,907(0x38b)
1c003a64:	1472eacd 	lu12i.w	$r13,235350(0x39756)
1c003a68:	02bcb1ad 	addi.w	$r13,$r13,-212(0xf2c)
1c003a6c:	5fffe18d 	bne	$r12,$r13,-32(0x3ffe0) # 1c003a4c <n17_bne_test+0x40c>
1c003a70:	50000c00 	b	12(0xc) # 1c003a7c <n17_bne_test+0x43c>
1c003a74:	15efd5ab 	lu12i.w	$r11,-33107(0xf7ead)
1c003a78:	028b816b 	addi.w	$r11,$r11,736(0x2e0)
1c003a7c:	14d4d1fc 	lu12i.w	$r28,435855(0x6a68f)
1c003a80:	0294539c 	addi.w	$r28,$r28,1300(0x514)
1c003a84:	15efd5bd 	lu12i.w	$r29,-33107(0xf7ead)
1c003a88:	028b83bd 	addi.w	$r29,$r29,736(0x2e0)
1c003a8c:	5c0a395c 	bne	$r10,$r28,2616(0xa38) # 1c0044c4 <inst_error>
1c003a90:	5c0a357d 	bne	$r11,$r29,2612(0xa34) # 1c0044c4 <inst_error>
1c003a94:	147ba8f0 	lu12i.w	$r16,253255(0x3dd47)
1c003a98:	02891210 	addi.w	$r16,$r16,580(0x244)
1c003a9c:	14a9f771 	lu12i.w	$r17,348091(0x54fbb)
1c003aa0:	02b32a31 	addi.w	$r17,$r17,-822(0xcca)
1c003aa4:	1400000a 	lu12i.w	$r10,0
1c003aa8:	1400000b 	lu12i.w	$r11,0
1c003aac:	50001400 	b	20(0x14) # 1c003ac0 <n17_bne_test+0x480>
1c003ab0:	147ba8ea 	lu12i.w	$r10,253255(0x3dd47)
1c003ab4:	0289114a 	addi.w	$r10,$r10,580(0x244)
1c003ab8:	5c0021ac 	bne	$r13,$r12,32(0x20) # 1c003ad8 <n17_bne_test+0x498>
1c003abc:	50002400 	b	36(0x24) # 1c003ae0 <n17_bne_test+0x4a0>
1c003ac0:	1495d3ac 	lu12i.w	$r12,306845(0x4ae9d)
1c003ac4:	02940d8c 	addi.w	$r12,$r12,1283(0x503)
1c003ac8:	152c3bed 	lu12i.w	$r13,-433697(0x961df)
1c003acc:	028091ad 	addi.w	$r13,$r13,36(0x24)
1c003ad0:	5fffe18d 	bne	$r12,$r13,-32(0x3ffe0) # 1c003ab0 <n17_bne_test+0x470>
1c003ad4:	50000c00 	b	12(0xc) # 1c003ae0 <n17_bne_test+0x4a0>
1c003ad8:	14a9f76b 	lu12i.w	$r11,348091(0x54fbb)
1c003adc:	02b3296b 	addi.w	$r11,$r11,-822(0xcca)
1c003ae0:	147ba8fc 	lu12i.w	$r28,253255(0x3dd47)
1c003ae4:	0289139c 	addi.w	$r28,$r28,580(0x244)
1c003ae8:	14a9f77d 	lu12i.w	$r29,348091(0x54fbb)
1c003aec:	02b32bbd 	addi.w	$r29,$r29,-822(0xcca)
1c003af0:	5c09d55c 	bne	$r10,$r28,2516(0x9d4) # 1c0044c4 <inst_error>
1c003af4:	5c09d17d 	bne	$r11,$r29,2512(0x9d0) # 1c0044c4 <inst_error>
1c003af8:	15a22190 	lu12i.w	$r16,-192244(0xd110c)
1c003afc:	02b30210 	addi.w	$r16,$r16,-832(0xcc0)
1c003b00:	15281b91 	lu12i.w	$r17,-442148(0x940dc)
1c003b04:	02a92231 	addi.w	$r17,$r17,-1464(0xa48)
1c003b08:	1400000a 	lu12i.w	$r10,0
1c003b0c:	1400000b 	lu12i.w	$r11,0
1c003b10:	50001400 	b	20(0x14) # 1c003b24 <n17_bne_test+0x4e4>
1c003b14:	15a2218a 	lu12i.w	$r10,-192244(0xd110c)
1c003b18:	02b3014a 	addi.w	$r10,$r10,-832(0xcc0)
1c003b1c:	5c0021ac 	bne	$r13,$r12,32(0x20) # 1c003b3c <n17_bne_test+0x4fc>
1c003b20:	50002400 	b	36(0x24) # 1c003b44 <n17_bne_test+0x504>
1c003b24:	146eddac 	lu12i.w	$r12,227053(0x376ed)
1c003b28:	0285e18c 	addi.w	$r12,$r12,376(0x178)
1c003b2c:	14711eed 	lu12i.w	$r13,231671(0x388f7)
1c003b30:	02a401ad 	addi.w	$r13,$r13,-1792(0x900)
1c003b34:	5fffe18d 	bne	$r12,$r13,-32(0x3ffe0) # 1c003b14 <n17_bne_test+0x4d4>
1c003b38:	50000c00 	b	12(0xc) # 1c003b44 <n17_bne_test+0x504>
1c003b3c:	15281b8b 	lu12i.w	$r11,-442148(0x940dc)
1c003b40:	02a9216b 	addi.w	$r11,$r11,-1464(0xa48)
1c003b44:	15a2219c 	lu12i.w	$r28,-192244(0xd110c)
1c003b48:	02b3039c 	addi.w	$r28,$r28,-832(0xcc0)
1c003b4c:	15281b9d 	lu12i.w	$r29,-442148(0x940dc)
1c003b50:	02a923bd 	addi.w	$r29,$r29,-1464(0xa48)
1c003b54:	5c09715c 	bne	$r10,$r28,2416(0x970) # 1c0044c4 <inst_error>
1c003b58:	5c096d7d 	bne	$r11,$r29,2412(0x96c) # 1c0044c4 <inst_error>
1c003b5c:	1469ad90 	lu12i.w	$r16,216428(0x34d6c)
1c003b60:	02804210 	addi.w	$r16,$r16,16(0x10)
1c003b64:	1577f0d1 	lu12i.w	$r17,-278650(0xbbf86)
1c003b68:	02b50231 	addi.w	$r17,$r17,-704(0xd40)
1c003b6c:	1400000a 	lu12i.w	$r10,0
1c003b70:	1400000b 	lu12i.w	$r11,0
1c003b74:	50001400 	b	20(0x14) # 1c003b88 <n17_bne_test+0x548>
1c003b78:	1469ad8a 	lu12i.w	$r10,216428(0x34d6c)
1c003b7c:	0280414a 	addi.w	$r10,$r10,16(0x10)
1c003b80:	5c0021ac 	bne	$r13,$r12,32(0x20) # 1c003ba0 <n17_bne_test+0x560>
1c003b84:	50002400 	b	36(0x24) # 1c003ba8 <n17_bne_test+0x568>
1c003b88:	14e4d16c 	lu12i.w	$r12,468619(0x7268b)
1c003b8c:	0283658c 	addi.w	$r12,$r12,217(0xd9)
1c003b90:	14948ecd 	lu12i.w	$r13,304246(0x4a476)
1c003b94:	02b44dad 	addi.w	$r13,$r13,-749(0xd13)
1c003b98:	5fffe18d 	bne	$r12,$r13,-32(0x3ffe0) # 1c003b78 <n17_bne_test+0x538>
1c003b9c:	50000c00 	b	12(0xc) # 1c003ba8 <n17_bne_test+0x568>
1c003ba0:	1577f0cb 	lu12i.w	$r11,-278650(0xbbf86)
1c003ba4:	02b5016b 	addi.w	$r11,$r11,-704(0xd40)
1c003ba8:	1469ad9c 	lu12i.w	$r28,216428(0x34d6c)
1c003bac:	0280439c 	addi.w	$r28,$r28,16(0x10)
1c003bb0:	1577f0dd 	lu12i.w	$r29,-278650(0xbbf86)
1c003bb4:	02b503bd 	addi.w	$r29,$r29,-704(0xd40)
1c003bb8:	5c090d5c 	bne	$r10,$r28,2316(0x90c) # 1c0044c4 <inst_error>
1c003bbc:	5c09097d 	bne	$r11,$r29,2312(0x908) # 1c0044c4 <inst_error>
1c003bc0:	15fcc8b0 	lu12i.w	$r16,-6587(0xfe645)
1c003bc4:	02a35a10 	addi.w	$r16,$r16,-1834(0x8d6)
1c003bc8:	14592a11 	lu12i.w	$r17,182608(0x2c950)
1c003bcc:	02801631 	addi.w	$r17,$r17,5(0x5)
1c003bd0:	1400000a 	lu12i.w	$r10,0
1c003bd4:	1400000b 	lu12i.w	$r11,0
1c003bd8:	50001400 	b	20(0x14) # 1c003bec <n17_bne_test+0x5ac>
1c003bdc:	15fcc8aa 	lu12i.w	$r10,-6587(0xfe645)
1c003be0:	02a3594a 	addi.w	$r10,$r10,-1834(0x8d6)
1c003be4:	5c0021ac 	bne	$r13,$r12,32(0x20) # 1c003c04 <n17_bne_test+0x5c4>
1c003be8:	50002400 	b	36(0x24) # 1c003c0c <n17_bne_test+0x5cc>
1c003bec:	1405efec 	lu12i.w	$r12,12159(0x2f7f)
1c003bf0:	02a3098c 	addi.w	$r12,$r12,-1854(0x8c2)
1c003bf4:	15f414cd 	lu12i.w	$r13,-24410(0xfa0a6)
1c003bf8:	02b229ad 	addi.w	$r13,$r13,-886(0xc8a)
1c003bfc:	5fffe18d 	bne	$r12,$r13,-32(0x3ffe0) # 1c003bdc <n17_bne_test+0x59c>
1c003c00:	50000c00 	b	12(0xc) # 1c003c0c <n17_bne_test+0x5cc>
1c003c04:	14592a0b 	lu12i.w	$r11,182608(0x2c950)
1c003c08:	0280156b 	addi.w	$r11,$r11,5(0x5)
1c003c0c:	15fcc8bc 	lu12i.w	$r28,-6587(0xfe645)
1c003c10:	02a35b9c 	addi.w	$r28,$r28,-1834(0x8d6)
1c003c14:	14592a1d 	lu12i.w	$r29,182608(0x2c950)
1c003c18:	028017bd 	addi.w	$r29,$r29,5(0x5)
1c003c1c:	5c08a95c 	bne	$r10,$r28,2216(0x8a8) # 1c0044c4 <inst_error>
1c003c20:	5c08a57d 	bne	$r11,$r29,2212(0x8a4) # 1c0044c4 <inst_error>
1c003c24:	14f9da30 	lu12i.w	$r16,511697(0x7ced1)
1c003c28:	02806210 	addi.w	$r16,$r16,24(0x18)
1c003c2c:	14a16d71 	lu12i.w	$r17,330603(0x50b6b)
1c003c30:	02a15631 	addi.w	$r17,$r17,-1963(0x855)
1c003c34:	1400000a 	lu12i.w	$r10,0
1c003c38:	1400000b 	lu12i.w	$r11,0
1c003c3c:	50001400 	b	20(0x14) # 1c003c50 <n17_bne_test+0x610>
1c003c40:	14f9da2a 	lu12i.w	$r10,511697(0x7ced1)
1c003c44:	0280614a 	addi.w	$r10,$r10,24(0x18)
1c003c48:	5c0021ac 	bne	$r13,$r12,32(0x20) # 1c003c68 <n17_bne_test+0x628>
1c003c4c:	50002400 	b	36(0x24) # 1c003c70 <n17_bne_test+0x630>
1c003c50:	1544e54c 	lu12i.w	$r12,-383190(0xa272a)
1c003c54:	02b5c98c 	addi.w	$r12,$r12,-654(0xd72)
1c003c58:	155d3e2d 	lu12i.w	$r13,-333327(0xae9f1)
1c003c5c:	02b2f1ad 	addi.w	$r13,$r13,-836(0xcbc)
1c003c60:	5fffe18d 	bne	$r12,$r13,-32(0x3ffe0) # 1c003c40 <n17_bne_test+0x600>
1c003c64:	50000c00 	b	12(0xc) # 1c003c70 <n17_bne_test+0x630>
1c003c68:	14a16d6b 	lu12i.w	$r11,330603(0x50b6b)
1c003c6c:	02a1556b 	addi.w	$r11,$r11,-1963(0x855)
1c003c70:	14f9da3c 	lu12i.w	$r28,511697(0x7ced1)
1c003c74:	0280639c 	addi.w	$r28,$r28,24(0x18)
1c003c78:	14a16d7d 	lu12i.w	$r29,330603(0x50b6b)
1c003c7c:	02a157bd 	addi.w	$r29,$r29,-1963(0x855)
1c003c80:	5c08455c 	bne	$r10,$r28,2116(0x844) # 1c0044c4 <inst_error>
1c003c84:	5c08417d 	bne	$r11,$r29,2112(0x840) # 1c0044c4 <inst_error>
1c003c88:	15e646b0 	lu12i.w	$r16,-52683(0xf3235)
1c003c8c:	02960210 	addi.w	$r16,$r16,1408(0x580)
1c003c90:	149133b1 	lu12i.w	$r17,297373(0x4899d)
1c003c94:	02a55231 	addi.w	$r17,$r17,-1708(0x954)
1c003c98:	1400000a 	lu12i.w	$r10,0
1c003c9c:	1400000b 	lu12i.w	$r11,0
1c003ca0:	50001400 	b	20(0x14) # 1c003cb4 <n17_bne_test+0x674>
1c003ca4:	15e646aa 	lu12i.w	$r10,-52683(0xf3235)
1c003ca8:	0296014a 	addi.w	$r10,$r10,1408(0x580)
1c003cac:	5c0021ac 	bne	$r13,$r12,32(0x20) # 1c003ccc <n17_bne_test+0x68c>
1c003cb0:	50002400 	b	36(0x24) # 1c003cd4 <n17_bne_test+0x694>
1c003cb4:	14a302ec 	lu12i.w	$r12,333847(0x51817)
1c003cb8:	02bc458c 	addi.w	$r12,$r12,-239(0xf11)
1c003cbc:	147158cd 	lu12i.w	$r13,232134(0x38ac6)
1c003cc0:	0296f5ad 	addi.w	$r13,$r13,1469(0x5bd)
1c003cc4:	5fffe18d 	bne	$r12,$r13,-32(0x3ffe0) # 1c003ca4 <n17_bne_test+0x664>
1c003cc8:	50000c00 	b	12(0xc) # 1c003cd4 <n17_bne_test+0x694>
1c003ccc:	149133ab 	lu12i.w	$r11,297373(0x4899d)
1c003cd0:	02a5516b 	addi.w	$r11,$r11,-1708(0x954)
1c003cd4:	15e646bc 	lu12i.w	$r28,-52683(0xf3235)
1c003cd8:	0296039c 	addi.w	$r28,$r28,1408(0x580)
1c003cdc:	149133bd 	lu12i.w	$r29,297373(0x4899d)
1c003ce0:	02a553bd 	addi.w	$r29,$r29,-1708(0x954)
1c003ce4:	5c07e15c 	bne	$r10,$r28,2016(0x7e0) # 1c0044c4 <inst_error>
1c003ce8:	5c07dd7d 	bne	$r11,$r29,2012(0x7dc) # 1c0044c4 <inst_error>
1c003cec:	15fceab0 	lu12i.w	$r16,-6315(0xfe755)
1c003cf0:	029a1210 	addi.w	$r16,$r16,1668(0x684)
1c003cf4:	151501f1 	lu12i.w	$r17,-481265(0x8a80f)
1c003cf8:	02acd631 	addi.w	$r17,$r17,-1227(0xb35)
1c003cfc:	1400000a 	lu12i.w	$r10,0
1c003d00:	1400000b 	lu12i.w	$r11,0
1c003d04:	50001400 	b	20(0x14) # 1c003d18 <n17_bne_test+0x6d8>
1c003d08:	15fceaaa 	lu12i.w	$r10,-6315(0xfe755)
1c003d0c:	029a114a 	addi.w	$r10,$r10,1668(0x684)
1c003d10:	5c0021ac 	bne	$r13,$r12,32(0x20) # 1c003d30 <n17_bne_test+0x6f0>
1c003d14:	50002400 	b	36(0x24) # 1c003d38 <n17_bne_test+0x6f8>
1c003d18:	14d7680c 	lu12i.w	$r12,441152(0x6bb40)
1c003d1c:	0282418c 	addi.w	$r12,$r12,144(0x90)
1c003d20:	14ea262d 	lu12i.w	$r13,479537(0x75131)
1c003d24:	02b401ad 	addi.w	$r13,$r13,-768(0xd00)
1c003d28:	5fffe18d 	bne	$r12,$r13,-32(0x3ffe0) # 1c003d08 <n17_bne_test+0x6c8>
1c003d2c:	50000c00 	b	12(0xc) # 1c003d38 <n17_bne_test+0x6f8>
1c003d30:	151501eb 	lu12i.w	$r11,-481265(0x8a80f)
1c003d34:	02acd56b 	addi.w	$r11,$r11,-1227(0xb35)
1c003d38:	15fceabc 	lu12i.w	$r28,-6315(0xfe755)
1c003d3c:	029a139c 	addi.w	$r28,$r28,1668(0x684)
1c003d40:	151501fd 	lu12i.w	$r29,-481265(0x8a80f)
1c003d44:	02acd7bd 	addi.w	$r29,$r29,-1227(0xb35)
1c003d48:	5c077d5c 	bne	$r10,$r28,1916(0x77c) # 1c0044c4 <inst_error>
1c003d4c:	5c07797d 	bne	$r11,$r29,1912(0x778) # 1c0044c4 <inst_error>
1c003d50:	14ec9ab0 	lu12i.w	$r16,484565(0x764d5)
1c003d54:	02944210 	addi.w	$r16,$r16,1296(0x510)
1c003d58:	156df5f1 	lu12i.w	$r17,-299089(0xb6faf)
1c003d5c:	02a88231 	addi.w	$r17,$r17,-1504(0xa20)
1c003d60:	1400000a 	lu12i.w	$r10,0
1c003d64:	1400000b 	lu12i.w	$r11,0
1c003d68:	50001400 	b	20(0x14) # 1c003d7c <n17_bne_test+0x73c>
1c003d6c:	14ec9aaa 	lu12i.w	$r10,484565(0x764d5)
1c003d70:	0294414a 	addi.w	$r10,$r10,1296(0x510)
1c003d74:	5c0021ac 	bne	$r13,$r12,32(0x20) # 1c003d94 <n17_bne_test+0x754>
1c003d78:	50002400 	b	36(0x24) # 1c003d9c <n17_bne_test+0x75c>
1c003d7c:	1589c3ec 	lu12i.w	$r12,-242145(0xc4e1f)
1c003d80:	028c818c 	addi.w	$r12,$r12,800(0x320)
1c003d84:	15eda0ed 	lu12i.w	$r13,-37625(0xf6d07)
1c003d88:	028081ad 	addi.w	$r13,$r13,32(0x20)
1c003d8c:	5fffe18d 	bne	$r12,$r13,-32(0x3ffe0) # 1c003d6c <n17_bne_test+0x72c>
1c003d90:	50000c00 	b	12(0xc) # 1c003d9c <n17_bne_test+0x75c>
1c003d94:	156df5eb 	lu12i.w	$r11,-299089(0xb6faf)
1c003d98:	02a8816b 	addi.w	$r11,$r11,-1504(0xa20)
1c003d9c:	14ec9abc 	lu12i.w	$r28,484565(0x764d5)
1c003da0:	0294439c 	addi.w	$r28,$r28,1296(0x510)
1c003da4:	156df5fd 	lu12i.w	$r29,-299089(0xb6faf)
1c003da8:	02a883bd 	addi.w	$r29,$r29,-1504(0xa20)
1c003dac:	5c07195c 	bne	$r10,$r28,1816(0x718) # 1c0044c4 <inst_error>
1c003db0:	5c07157d 	bne	$r11,$r29,1812(0x714) # 1c0044c4 <inst_error>
1c003db4:	151871d0 	lu12i.w	$r16,-474226(0x8c38e)
1c003db8:	02b78210 	addi.w	$r16,$r16,-544(0xde0)
1c003dbc:	15b04111 	lu12i.w	$r17,-163320(0xd8208)
1c003dc0:	0296a231 	addi.w	$r17,$r17,1448(0x5a8)
1c003dc4:	1400000a 	lu12i.w	$r10,0
1c003dc8:	1400000b 	lu12i.w	$r11,0
1c003dcc:	50001400 	b	20(0x14) # 1c003de0 <n17_bne_test+0x7a0>
1c003dd0:	151871ca 	lu12i.w	$r10,-474226(0x8c38e)
1c003dd4:	02b7814a 	addi.w	$r10,$r10,-544(0xde0)
1c003dd8:	5c0021ac 	bne	$r13,$r12,32(0x20) # 1c003df8 <n17_bne_test+0x7b8>
1c003ddc:	50002400 	b	36(0x24) # 1c003e00 <n17_bne_test+0x7c0>
1c003de0:	1436350c 	lu12i.w	$r12,111016(0x1b1a8)
1c003de4:	0283018c 	addi.w	$r12,$r12,192(0xc0)
1c003de8:	147f454d 	lu12i.w	$r13,260650(0x3fa2a)
1c003dec:	028211ad 	addi.w	$r13,$r13,132(0x84)
1c003df0:	5fffe18d 	bne	$r12,$r13,-32(0x3ffe0) # 1c003dd0 <n17_bne_test+0x790>
1c003df4:	50000c00 	b	12(0xc) # 1c003e00 <n17_bne_test+0x7c0>
1c003df8:	15b0410b 	lu12i.w	$r11,-163320(0xd8208)
1c003dfc:	0296a16b 	addi.w	$r11,$r11,1448(0x5a8)
1c003e00:	151871dc 	lu12i.w	$r28,-474226(0x8c38e)
1c003e04:	02b7839c 	addi.w	$r28,$r28,-544(0xde0)
1c003e08:	15b0411d 	lu12i.w	$r29,-163320(0xd8208)
1c003e0c:	0296a3bd 	addi.w	$r29,$r29,1448(0x5a8)
1c003e10:	5c06b55c 	bne	$r10,$r28,1716(0x6b4) # 1c0044c4 <inst_error>
1c003e14:	5c06b17d 	bne	$r11,$r29,1712(0x6b0) # 1c0044c4 <inst_error>
1c003e18:	14aaa9b0 	lu12i.w	$r16,349517(0x5554d)
1c003e1c:	02b02210 	addi.w	$r16,$r16,-1016(0xc08)
1c003e20:	15fdf3f1 	lu12i.w	$r17,-4193(0xfef9f)
1c003e24:	02af4231 	addi.w	$r17,$r17,-1072(0xbd0)
1c003e28:	1400000a 	lu12i.w	$r10,0
1c003e2c:	1400000b 	lu12i.w	$r11,0
1c003e30:	50001400 	b	20(0x14) # 1c003e44 <n17_bne_test+0x804>
1c003e34:	14aaa9aa 	lu12i.w	$r10,349517(0x5554d)
1c003e38:	02b0214a 	addi.w	$r10,$r10,-1016(0xc08)
1c003e3c:	5c0021ac 	bne	$r13,$r12,32(0x20) # 1c003e5c <n17_bne_test+0x81c>
1c003e40:	50002400 	b	36(0x24) # 1c003e64 <n17_bne_test+0x824>
1c003e44:	1425df4c 	lu12i.w	$r12,77562(0x12efa)
1c003e48:	028d318c 	addi.w	$r12,$r12,844(0x34c)
1c003e4c:	155fa4ad 	lu12i.w	$r13,-328411(0xafd25)
1c003e50:	02b1e9ad 	addi.w	$r13,$r13,-902(0xc7a)
1c003e54:	5fffe18d 	bne	$r12,$r13,-32(0x3ffe0) # 1c003e34 <n17_bne_test+0x7f4>
1c003e58:	50000c00 	b	12(0xc) # 1c003e64 <n17_bne_test+0x824>
1c003e5c:	15fdf3eb 	lu12i.w	$r11,-4193(0xfef9f)
1c003e60:	02af416b 	addi.w	$r11,$r11,-1072(0xbd0)
1c003e64:	14aaa9bc 	lu12i.w	$r28,349517(0x5554d)
1c003e68:	02b0239c 	addi.w	$r28,$r28,-1016(0xc08)
1c003e6c:	15fdf3fd 	lu12i.w	$r29,-4193(0xfef9f)
1c003e70:	02af43bd 	addi.w	$r29,$r29,-1072(0xbd0)
1c003e74:	5c06515c 	bne	$r10,$r28,1616(0x650) # 1c0044c4 <inst_error>
1c003e78:	5c064d7d 	bne	$r11,$r29,1612(0x64c) # 1c0044c4 <inst_error>
1c003e7c:	15b24e90 	lu12i.w	$r16,-159116(0xd9274)
1c003e80:	02bb4210 	addi.w	$r16,$r16,-304(0xed0)
1c003e84:	14a4f311 	lu12i.w	$r17,337816(0x52798)
1c003e88:	029b0231 	addi.w	$r17,$r17,1728(0x6c0)
1c003e8c:	1400000a 	lu12i.w	$r10,0
1c003e90:	1400000b 	lu12i.w	$r11,0
1c003e94:	50001400 	b	20(0x14) # 1c003ea8 <n17_bne_test+0x868>
1c003e98:	15b24e8a 	lu12i.w	$r10,-159116(0xd9274)
1c003e9c:	02bb414a 	addi.w	$r10,$r10,-304(0xed0)
1c003ea0:	5c0021ac 	bne	$r13,$r12,32(0x20) # 1c003ec0 <n17_bne_test+0x880>
1c003ea4:	50002400 	b	36(0x24) # 1c003ec8 <n17_bne_test+0x888>
1c003ea8:	14af38cc 	lu12i.w	$r12,358854(0x579c6)
1c003eac:	02a0018c 	addi.w	$r12,$r12,-2048(0x800)
1c003eb0:	15b40c0d 	lu12i.w	$r13,-155552(0xda060)
1c003eb4:	02b001ad 	addi.w	$r13,$r13,-1024(0xc00)
1c003eb8:	5fffe18d 	bne	$r12,$r13,-32(0x3ffe0) # 1c003e98 <n17_bne_test+0x858>
1c003ebc:	50000c00 	b	12(0xc) # 1c003ec8 <n17_bne_test+0x888>
1c003ec0:	14a4f30b 	lu12i.w	$r11,337816(0x52798)
1c003ec4:	029b016b 	addi.w	$r11,$r11,1728(0x6c0)
1c003ec8:	15b24e9c 	lu12i.w	$r28,-159116(0xd9274)
1c003ecc:	02bb439c 	addi.w	$r28,$r28,-304(0xed0)
1c003ed0:	14a4f31d 	lu12i.w	$r29,337816(0x52798)
1c003ed4:	029b03bd 	addi.w	$r29,$r29,1728(0x6c0)
1c003ed8:	5c05ed5c 	bne	$r10,$r28,1516(0x5ec) # 1c0044c4 <inst_error>
1c003edc:	5c05e97d 	bne	$r11,$r29,1512(0x5e8) # 1c0044c4 <inst_error>
1c003ee0:	15958310 	lu12i.w	$r16,-218088(0xcac18)
1c003ee4:	028ac210 	addi.w	$r16,$r16,688(0x2b0)
1c003ee8:	15e45251 	lu12i.w	$r17,-56686(0xf2292)
1c003eec:	02b27231 	addi.w	$r17,$r17,-868(0xc9c)
1c003ef0:	1400000a 	lu12i.w	$r10,0
1c003ef4:	1400000b 	lu12i.w	$r11,0
1c003ef8:	50001400 	b	20(0x14) # 1c003f0c <n17_bne_test+0x8cc>
1c003efc:	1595830a 	lu12i.w	$r10,-218088(0xcac18)
1c003f00:	028ac14a 	addi.w	$r10,$r10,688(0x2b0)
1c003f04:	5c0021ac 	bne	$r13,$r12,32(0x20) # 1c003f24 <n17_bne_test+0x8e4>
1c003f08:	50002400 	b	36(0x24) # 1c003f2c <n17_bne_test+0x8ec>
1c003f0c:	14ddad4c 	lu12i.w	$r12,453994(0x6ed6a)
1c003f10:	02b8018c 	addi.w	$r12,$r12,-512(0xe00)
1c003f14:	1593794d 	lu12i.w	$r13,-222262(0xc9bca)
1c003f18:	02b1d1ad 	addi.w	$r13,$r13,-908(0xc74)
1c003f1c:	5fffe18d 	bne	$r12,$r13,-32(0x3ffe0) # 1c003efc <n17_bne_test+0x8bc>
1c003f20:	50000c00 	b	12(0xc) # 1c003f2c <n17_bne_test+0x8ec>
1c003f24:	15e4524b 	lu12i.w	$r11,-56686(0xf2292)
1c003f28:	02b2716b 	addi.w	$r11,$r11,-868(0xc9c)
1c003f2c:	1595831c 	lu12i.w	$r28,-218088(0xcac18)
1c003f30:	028ac39c 	addi.w	$r28,$r28,688(0x2b0)
1c003f34:	15e4525d 	lu12i.w	$r29,-56686(0xf2292)
1c003f38:	02b273bd 	addi.w	$r29,$r29,-868(0xc9c)
1c003f3c:	5c05895c 	bne	$r10,$r28,1416(0x588) # 1c0044c4 <inst_error>
1c003f40:	5c05857d 	bne	$r11,$r29,1412(0x584) # 1c0044c4 <inst_error>
1c003f44:	14f936d0 	lu12i.w	$r16,510390(0x7c9b6)
1c003f48:	02aefa10 	addi.w	$r16,$r16,-1090(0xbbe)
1c003f4c:	14d0aa91 	lu12i.w	$r17,427348(0x68554)
1c003f50:	02800231 	addi.w	$r17,$r17,0
1c003f54:	1400000a 	lu12i.w	$r10,0
1c003f58:	1400000b 	lu12i.w	$r11,0
1c003f5c:	50001400 	b	20(0x14) # 1c003f70 <n17_bne_test+0x930>
1c003f60:	14f936ca 	lu12i.w	$r10,510390(0x7c9b6)
1c003f64:	02aef94a 	addi.w	$r10,$r10,-1090(0xbbe)
1c003f68:	5c0021ac 	bne	$r13,$r12,32(0x20) # 1c003f88 <n17_bne_test+0x948>
1c003f6c:	50002400 	b	36(0x24) # 1c003f90 <n17_bne_test+0x950>
1c003f70:	159462ac 	lu12i.w	$r12,-220395(0xca315)
1c003f74:	02b23d8c 	addi.w	$r12,$r12,-881(0xc8f)
1c003f78:	1411972d 	lu12i.w	$r13,36025(0x8cb9)
1c003f7c:	02b101ad 	addi.w	$r13,$r13,-960(0xc40)
1c003f80:	5fffe18d 	bne	$r12,$r13,-32(0x3ffe0) # 1c003f60 <n17_bne_test+0x920>
1c003f84:	50000c00 	b	12(0xc) # 1c003f90 <n17_bne_test+0x950>
1c003f88:	14d0aa8b 	lu12i.w	$r11,427348(0x68554)
1c003f8c:	0280016b 	addi.w	$r11,$r11,0
1c003f90:	14f936dc 	lu12i.w	$r28,510390(0x7c9b6)
1c003f94:	02aefb9c 	addi.w	$r28,$r28,-1090(0xbbe)
1c003f98:	14d0aa9d 	lu12i.w	$r29,427348(0x68554)
1c003f9c:	028003bd 	addi.w	$r29,$r29,0
1c003fa0:	5c05255c 	bne	$r10,$r28,1316(0x524) # 1c0044c4 <inst_error>
1c003fa4:	5c05217d 	bne	$r11,$r29,1312(0x520) # 1c0044c4 <inst_error>
1c003fa8:	151600d0 	lu12i.w	$r16,-479226(0x8b006)
1c003fac:	02b73210 	addi.w	$r16,$r16,-564(0xdcc)
1c003fb0:	1422f091 	lu12i.w	$r17,71556(0x11784)
1c003fb4:	028c2a31 	addi.w	$r17,$r17,778(0x30a)
1c003fb8:	1400000a 	lu12i.w	$r10,0
1c003fbc:	1400000b 	lu12i.w	$r11,0
1c003fc0:	50001400 	b	20(0x14) # 1c003fd4 <n17_bne_test+0x994>
1c003fc4:	151600ca 	lu12i.w	$r10,-479226(0x8b006)
1c003fc8:	02b7314a 	addi.w	$r10,$r10,-564(0xdcc)
1c003fcc:	5c0021ac 	bne	$r13,$r12,32(0x20) # 1c003fec <n17_bne_test+0x9ac>
1c003fd0:	50002400 	b	36(0x24) # 1c003ff4 <n17_bne_test+0x9b4>
1c003fd4:	14b68e0c 	lu12i.w	$r12,373872(0x5b470)
1c003fd8:	0298a18c 	addi.w	$r12,$r12,1576(0x628)
1c003fdc:	147fe74d 	lu12i.w	$r13,261946(0x3ff3a)
1c003fe0:	02bee1ad 	addi.w	$r13,$r13,-72(0xfb8)
1c003fe4:	5fffe18d 	bne	$r12,$r13,-32(0x3ffe0) # 1c003fc4 <n17_bne_test+0x984>
1c003fe8:	50000c00 	b	12(0xc) # 1c003ff4 <n17_bne_test+0x9b4>
1c003fec:	1422f08b 	lu12i.w	$r11,71556(0x11784)
1c003ff0:	028c296b 	addi.w	$r11,$r11,778(0x30a)
1c003ff4:	151600dc 	lu12i.w	$r28,-479226(0x8b006)
1c003ff8:	02b7339c 	addi.w	$r28,$r28,-564(0xdcc)
1c003ffc:	1422f09d 	lu12i.w	$r29,71556(0x11784)
1c004000:	028c2bbd 	addi.w	$r29,$r29,778(0x30a)
1c004004:	5c04c15c 	bne	$r10,$r28,1216(0x4c0) # 1c0044c4 <inst_error>
1c004008:	5c04bd7d 	bne	$r11,$r29,1212(0x4bc) # 1c0044c4 <inst_error>
1c00400c:	15c75ad0 	lu12i.w	$r16,-116010(0xe3ad6)
1c004010:	02932210 	addi.w	$r16,$r16,1224(0x4c8)
1c004014:	15ccdab1 	lu12i.w	$r17,-104747(0xe66d5)
1c004018:	028bf231 	addi.w	$r17,$r17,764(0x2fc)
1c00401c:	1400000a 	lu12i.w	$r10,0
1c004020:	1400000b 	lu12i.w	$r11,0
1c004024:	50001400 	b	20(0x14) # 1c004038 <n17_bne_test+0x9f8>
1c004028:	15c75aca 	lu12i.w	$r10,-116010(0xe3ad6)
1c00402c:	0293214a 	addi.w	$r10,$r10,1224(0x4c8)
1c004030:	5c0021ac 	bne	$r13,$r12,32(0x20) # 1c004050 <n17_bne_test+0xa10>
1c004034:	50002400 	b	36(0x24) # 1c004058 <n17_bne_test+0xa18>
1c004038:	14cc2f4c 	lu12i.w	$r12,418170(0x6617a)
1c00403c:	028f298c 	addi.w	$r12,$r12,970(0x3ca)
1c004040:	1496a8ed 	lu12i.w	$r13,308551(0x4b547)
1c004044:	02adc1ad 	addi.w	$r13,$r13,-1168(0xb70)
1c004048:	5fffe18d 	bne	$r12,$r13,-32(0x3ffe0) # 1c004028 <n17_bne_test+0x9e8>
1c00404c:	50000c00 	b	12(0xc) # 1c004058 <n17_bne_test+0xa18>
1c004050:	15ccdaab 	lu12i.w	$r11,-104747(0xe66d5)
1c004054:	028bf16b 	addi.w	$r11,$r11,764(0x2fc)
1c004058:	15c75adc 	lu12i.w	$r28,-116010(0xe3ad6)
1c00405c:	0293239c 	addi.w	$r28,$r28,1224(0x4c8)
1c004060:	15ccdabd 	lu12i.w	$r29,-104747(0xe66d5)
1c004064:	028bf3bd 	addi.w	$r29,$r29,764(0x2fc)
1c004068:	5c045d5c 	bne	$r10,$r28,1116(0x45c) # 1c0044c4 <inst_error>
1c00406c:	5c04597d 	bne	$r11,$r29,1112(0x458) # 1c0044c4 <inst_error>
1c004070:	15d91dd0 	lu12i.w	$r16,-79634(0xec8ee)
1c004074:	02a7fa10 	addi.w	$r16,$r16,-1538(0x9fe)
1c004078:	144accf1 	lu12i.w	$r17,153191(0x25667)
1c00407c:	02970231 	addi.w	$r17,$r17,1472(0x5c0)
1c004080:	1400000a 	lu12i.w	$r10,0
1c004084:	1400000b 	lu12i.w	$r11,0
1c004088:	50001400 	b	20(0x14) # 1c00409c <n17_bne_test+0xa5c>
1c00408c:	15d91dca 	lu12i.w	$r10,-79634(0xec8ee)
1c004090:	02a7f94a 	addi.w	$r10,$r10,-1538(0x9fe)
1c004094:	5c0021ac 	bne	$r13,$r12,32(0x20) # 1c0040b4 <n17_bne_test+0xa74>
1c004098:	50002400 	b	36(0x24) # 1c0040bc <n17_bne_test+0xa7c>
1c00409c:	158f37ac 	lu12i.w	$r12,-230979(0xc79bd)
1c0040a0:	02bc018c 	addi.w	$r12,$r12,-256(0xf00)
1c0040a4:	1544bd0d 	lu12i.w	$r13,-383512(0xa25e8)
1c0040a8:	02ae59ad 	addi.w	$r13,$r13,-1130(0xb96)
1c0040ac:	5fffe18d 	bne	$r12,$r13,-32(0x3ffe0) # 1c00408c <n17_bne_test+0xa4c>
1c0040b0:	50000c00 	b	12(0xc) # 1c0040bc <n17_bne_test+0xa7c>
1c0040b4:	144acceb 	lu12i.w	$r11,153191(0x25667)
1c0040b8:	0297016b 	addi.w	$r11,$r11,1472(0x5c0)
1c0040bc:	15d91ddc 	lu12i.w	$r28,-79634(0xec8ee)
1c0040c0:	02a7fb9c 	addi.w	$r28,$r28,-1538(0x9fe)
1c0040c4:	144accfd 	lu12i.w	$r29,153191(0x25667)
1c0040c8:	029703bd 	addi.w	$r29,$r29,1472(0x5c0)
1c0040cc:	5c03f95c 	bne	$r10,$r28,1016(0x3f8) # 1c0044c4 <inst_error>
1c0040d0:	5c03f57d 	bne	$r11,$r29,1012(0x3f4) # 1c0044c4 <inst_error>
1c0040d4:	15e16270 	lu12i.w	$r16,-62701(0xf0b13)
1c0040d8:	028c8210 	addi.w	$r16,$r16,800(0x320)
1c0040dc:	1464c031 	lu12i.w	$r17,206337(0x32601)
1c0040e0:	02a92231 	addi.w	$r17,$r17,-1464(0xa48)
1c0040e4:	1400000a 	lu12i.w	$r10,0
1c0040e8:	1400000b 	lu12i.w	$r11,0
1c0040ec:	50001400 	b	20(0x14) # 1c004100 <n17_bne_test+0xac0>
1c0040f0:	15e1626a 	lu12i.w	$r10,-62701(0xf0b13)
1c0040f4:	028c814a 	addi.w	$r10,$r10,800(0x320)
1c0040f8:	5c0021ac 	bne	$r13,$r12,32(0x20) # 1c004118 <n17_bne_test+0xad8>
1c0040fc:	50002400 	b	36(0x24) # 1c004120 <n17_bne_test+0xae0>
1c004100:	14c9f18c 	lu12i.w	$r12,413580(0x64f8c)
1c004104:	02b4f18c 	addi.w	$r12,$r12,-708(0xd3c)
1c004108:	15bb004d 	lu12i.w	$r13,-141310(0xdd802)
1c00410c:	02bb01ad 	addi.w	$r13,$r13,-320(0xec0)
1c004110:	5fffe18d 	bne	$r12,$r13,-32(0x3ffe0) # 1c0040f0 <n17_bne_test+0xab0>
1c004114:	50000c00 	b	12(0xc) # 1c004120 <n17_bne_test+0xae0>
1c004118:	1464c02b 	lu12i.w	$r11,206337(0x32601)
1c00411c:	02a9216b 	addi.w	$r11,$r11,-1464(0xa48)
1c004120:	15e1627c 	lu12i.w	$r28,-62701(0xf0b13)
1c004124:	028c839c 	addi.w	$r28,$r28,800(0x320)
1c004128:	1464c03d 	lu12i.w	$r29,206337(0x32601)
1c00412c:	02a923bd 	addi.w	$r29,$r29,-1464(0xa48)
1c004130:	5c03955c 	bne	$r10,$r28,916(0x394) # 1c0044c4 <inst_error>
1c004134:	5c03917d 	bne	$r11,$r29,912(0x390) # 1c0044c4 <inst_error>
1c004138:	1504edf0 	lu12i.w	$r16,-514193(0x8276f)
1c00413c:	02810210 	addi.w	$r16,$r16,64(0x40)
1c004140:	154a4291 	lu12i.w	$r17,-372204(0xa5214)
1c004144:	029d0631 	addi.w	$r17,$r17,1857(0x741)
1c004148:	1400000a 	lu12i.w	$r10,0
1c00414c:	1400000b 	lu12i.w	$r11,0
1c004150:	50001400 	b	20(0x14) # 1c004164 <n17_bne_test+0xb24>
1c004154:	1504edea 	lu12i.w	$r10,-514193(0x8276f)
1c004158:	0281014a 	addi.w	$r10,$r10,64(0x40)
1c00415c:	5c0021ac 	bne	$r13,$r12,32(0x20) # 1c00417c <n17_bne_test+0xb3c>
1c004160:	50002400 	b	36(0x24) # 1c004184 <n17_bne_test+0xb44>
1c004164:	14c00f6c 	lu12i.w	$r12,393339(0x6007b)
1c004168:	02b8c98c 	addi.w	$r12,$r12,-462(0xe32)
1c00416c:	15c4ac6d 	lu12i.w	$r13,-121501(0xe2563)
1c004170:	02bc95ad 	addi.w	$r13,$r13,-219(0xf25)
1c004174:	5fffe18d 	bne	$r12,$r13,-32(0x3ffe0) # 1c004154 <n17_bne_test+0xb14>
1c004178:	50000c00 	b	12(0xc) # 1c004184 <n17_bne_test+0xb44>
1c00417c:	154a428b 	lu12i.w	$r11,-372204(0xa5214)
1c004180:	029d056b 	addi.w	$r11,$r11,1857(0x741)
1c004184:	1504edfc 	lu12i.w	$r28,-514193(0x8276f)
1c004188:	0281039c 	addi.w	$r28,$r28,64(0x40)
1c00418c:	154a429d 	lu12i.w	$r29,-372204(0xa5214)
1c004190:	029d07bd 	addi.w	$r29,$r29,1857(0x741)
1c004194:	5c03315c 	bne	$r10,$r28,816(0x330) # 1c0044c4 <inst_error>
1c004198:	5c032d7d 	bne	$r11,$r29,812(0x32c) # 1c0044c4 <inst_error>
1c00419c:	15263930 	lu12i.w	$r16,-446007(0x931c9)
1c0041a0:	0296d210 	addi.w	$r16,$r16,1460(0x5b4)
1c0041a4:	1480aa11 	lu12i.w	$r17,263504(0x40550)
1c0041a8:	02a7c231 	addi.w	$r17,$r17,-1552(0x9f0)
1c0041ac:	1400000a 	lu12i.w	$r10,0
1c0041b0:	1400000b 	lu12i.w	$r11,0
1c0041b4:	50001400 	b	20(0x14) # 1c0041c8 <n17_bne_test+0xb88>
1c0041b8:	1526392a 	lu12i.w	$r10,-446007(0x931c9)
1c0041bc:	0296d14a 	addi.w	$r10,$r10,1460(0x5b4)
1c0041c0:	5c0021ac 	bne	$r13,$r12,32(0x20) # 1c0041e0 <n17_bne_test+0xba0>
1c0041c4:	50002400 	b	36(0x24) # 1c0041e8 <n17_bne_test+0xba8>
1c0041c8:	146f364c 	lu12i.w	$r12,227762(0x379b2)
1c0041cc:	028a558c 	addi.w	$r12,$r12,661(0x295)
1c0041d0:	1419f52d 	lu12i.w	$r13,53161(0xcfa9)
1c0041d4:	02b071ad 	addi.w	$r13,$r13,-996(0xc1c)
1c0041d8:	5fffe18d 	bne	$r12,$r13,-32(0x3ffe0) # 1c0041b8 <n17_bne_test+0xb78>
1c0041dc:	50000c00 	b	12(0xc) # 1c0041e8 <n17_bne_test+0xba8>
1c0041e0:	1480aa0b 	lu12i.w	$r11,263504(0x40550)
1c0041e4:	02a7c16b 	addi.w	$r11,$r11,-1552(0x9f0)
1c0041e8:	1526393c 	lu12i.w	$r28,-446007(0x931c9)
1c0041ec:	0296d39c 	addi.w	$r28,$r28,1460(0x5b4)
1c0041f0:	1480aa1d 	lu12i.w	$r29,263504(0x40550)
1c0041f4:	02a7c3bd 	addi.w	$r29,$r29,-1552(0x9f0)
1c0041f8:	5c02cd5c 	bne	$r10,$r28,716(0x2cc) # 1c0044c4 <inst_error>
1c0041fc:	5c02c97d 	bne	$r11,$r29,712(0x2c8) # 1c0044c4 <inst_error>
1c004200:	15b6ad70 	lu12i.w	$r16,-150165(0xdb56b)
1c004204:	029ea210 	addi.w	$r16,$r16,1960(0x7a8)
1c004208:	14936431 	lu12i.w	$r17,301857(0x49b21)
1c00420c:	0287c231 	addi.w	$r17,$r17,496(0x1f0)
1c004210:	1400000a 	lu12i.w	$r10,0
1c004214:	1400000b 	lu12i.w	$r11,0
1c004218:	50001400 	b	20(0x14) # 1c00422c <n17_bne_test+0xbec>
1c00421c:	15b6ad6a 	lu12i.w	$r10,-150165(0xdb56b)
1c004220:	029ea14a 	addi.w	$r10,$r10,1960(0x7a8)
1c004224:	5c0021ac 	bne	$r13,$r12,32(0x20) # 1c004244 <n17_bne_test+0xc04>
1c004228:	50002400 	b	36(0x24) # 1c00424c <n17_bne_test+0xc0c>
1c00422c:	1400000c 	lu12i.w	$r12,0
1c004230:	0280018c 	addi.w	$r12,$r12,0
1c004234:	142a616d 	lu12i.w	$r13,86795(0x1530b)
1c004238:	02a559ad 	addi.w	$r13,$r13,-1706(0x956)
1c00423c:	5fffe18d 	bne	$r12,$r13,-32(0x3ffe0) # 1c00421c <n17_bne_test+0xbdc>
1c004240:	50000c00 	b	12(0xc) # 1c00424c <n17_bne_test+0xc0c>
1c004244:	1493642b 	lu12i.w	$r11,301857(0x49b21)
1c004248:	0287c16b 	addi.w	$r11,$r11,496(0x1f0)
1c00424c:	15b6ad7c 	lu12i.w	$r28,-150165(0xdb56b)
1c004250:	029ea39c 	addi.w	$r28,$r28,1960(0x7a8)
1c004254:	1493643d 	lu12i.w	$r29,301857(0x49b21)
1c004258:	0287c3bd 	addi.w	$r29,$r29,496(0x1f0)
1c00425c:	5c02695c 	bne	$r10,$r28,616(0x268) # 1c0044c4 <inst_error>
1c004260:	5c02657d 	bne	$r11,$r29,612(0x264) # 1c0044c4 <inst_error>
1c004264:	14715790 	lu12i.w	$r16,232124(0x38abc)
1c004268:	028d9210 	addi.w	$r16,$r16,868(0x364)
1c00426c:	154ee951 	lu12i.w	$r17,-362678(0xa774a)
1c004270:	0284d631 	addi.w	$r17,$r17,309(0x135)
1c004274:	1400000a 	lu12i.w	$r10,0
1c004278:	1400000b 	lu12i.w	$r11,0
1c00427c:	50001400 	b	20(0x14) # 1c004290 <n17_bne_test+0xc50>
1c004280:	1471578a 	lu12i.w	$r10,232124(0x38abc)
1c004284:	028d914a 	addi.w	$r10,$r10,868(0x364)
1c004288:	5c0021ac 	bne	$r13,$r12,32(0x20) # 1c0042a8 <n17_bne_test+0xc68>
1c00428c:	50002400 	b	36(0x24) # 1c0042b0 <n17_bne_test+0xc70>
1c004290:	1400000c 	lu12i.w	$r12,0
1c004294:	0280018c 	addi.w	$r12,$r12,0
1c004298:	15c6862d 	lu12i.w	$r13,-117711(0xe3431)
1c00429c:	029fd9ad 	addi.w	$r13,$r13,2038(0x7f6)
1c0042a0:	5fffe18d 	bne	$r12,$r13,-32(0x3ffe0) # 1c004280 <n17_bne_test+0xc40>
1c0042a4:	50000c00 	b	12(0xc) # 1c0042b0 <n17_bne_test+0xc70>
1c0042a8:	154ee94b 	lu12i.w	$r11,-362678(0xa774a)
1c0042ac:	0284d56b 	addi.w	$r11,$r11,309(0x135)
1c0042b0:	1471579c 	lu12i.w	$r28,232124(0x38abc)
1c0042b4:	028d939c 	addi.w	$r28,$r28,868(0x364)
1c0042b8:	154ee95d 	lu12i.w	$r29,-362678(0xa774a)
1c0042bc:	0284d7bd 	addi.w	$r29,$r29,309(0x135)
1c0042c0:	5c02055c 	bne	$r10,$r28,516(0x204) # 1c0044c4 <inst_error>
1c0042c4:	5c02017d 	bne	$r11,$r29,512(0x200) # 1c0044c4 <inst_error>
1c0042c8:	1564f7b0 	lu12i.w	$r16,-317507(0xb27bd)
1c0042cc:	029c3210 	addi.w	$r16,$r16,1804(0x70c)
1c0042d0:	156ce5f1 	lu12i.w	$r17,-301265(0xb672f)
1c0042d4:	02b78231 	addi.w	$r17,$r17,-544(0xde0)
1c0042d8:	1400000a 	lu12i.w	$r10,0
1c0042dc:	1400000b 	lu12i.w	$r11,0
1c0042e0:	50001400 	b	20(0x14) # 1c0042f4 <n17_bne_test+0xcb4>
1c0042e4:	1564f7aa 	lu12i.w	$r10,-317507(0xb27bd)
1c0042e8:	029c314a 	addi.w	$r10,$r10,1804(0x70c)
1c0042ec:	5c0021ac 	bne	$r13,$r12,32(0x20) # 1c00430c <n17_bne_test+0xccc>
1c0042f0:	50002400 	b	36(0x24) # 1c004314 <n17_bne_test+0xcd4>
1c0042f4:	1400000c 	lu12i.w	$r12,0
1c0042f8:	0280018c 	addi.w	$r12,$r12,0
1c0042fc:	142b922d 	lu12i.w	$r13,89233(0x15c91)
1c004300:	029e09ad 	addi.w	$r13,$r13,1922(0x782)
1c004304:	5fffe18d 	bne	$r12,$r13,-32(0x3ffe0) # 1c0042e4 <n17_bne_test+0xca4>
1c004308:	50000c00 	b	12(0xc) # 1c004314 <n17_bne_test+0xcd4>
1c00430c:	156ce5eb 	lu12i.w	$r11,-301265(0xb672f)
1c004310:	02b7816b 	addi.w	$r11,$r11,-544(0xde0)
1c004314:	1564f7bc 	lu12i.w	$r28,-317507(0xb27bd)
1c004318:	029c339c 	addi.w	$r28,$r28,1804(0x70c)
1c00431c:	156ce5fd 	lu12i.w	$r29,-301265(0xb672f)
1c004320:	02b783bd 	addi.w	$r29,$r29,-544(0xde0)
1c004324:	5c01a15c 	bne	$r10,$r28,416(0x1a0) # 1c0044c4 <inst_error>
1c004328:	5c019d7d 	bne	$r11,$r29,412(0x19c) # 1c0044c4 <inst_error>
1c00432c:	1559c0f0 	lu12i.w	$r16,-340473(0xace07)
1c004330:	02ba6210 	addi.w	$r16,$r16,-360(0xe98)
1c004334:	15ed8271 	lu12i.w	$r17,-37869(0xf6c13)
1c004338:	0289a231 	addi.w	$r17,$r17,616(0x268)
1c00433c:	1400000a 	lu12i.w	$r10,0
1c004340:	1400000b 	lu12i.w	$r11,0
1c004344:	50001400 	b	20(0x14) # 1c004358 <n17_bne_test+0xd18>
1c004348:	1559c0ea 	lu12i.w	$r10,-340473(0xace07)
1c00434c:	02ba614a 	addi.w	$r10,$r10,-360(0xe98)
1c004350:	5c0021ac 	bne	$r13,$r12,32(0x20) # 1c004370 <n17_bne_test+0xd30>
1c004354:	50002400 	b	36(0x24) # 1c004378 <n17_bne_test+0xd38>
1c004358:	1400000c 	lu12i.w	$r12,0
1c00435c:	0280018c 	addi.w	$r12,$r12,0
1c004360:	14ee956d 	lu12i.w	$r13,488619(0x774ab)
1c004364:	029a81ad 	addi.w	$r13,$r13,1696(0x6a0)
1c004368:	5fffe18d 	bne	$r12,$r13,-32(0x3ffe0) # 1c004348 <n17_bne_test+0xd08>
1c00436c:	50000c00 	b	12(0xc) # 1c004378 <n17_bne_test+0xd38>
1c004370:	15ed826b 	lu12i.w	$r11,-37869(0xf6c13)
1c004374:	0289a16b 	addi.w	$r11,$r11,616(0x268)
1c004378:	1559c0fc 	lu12i.w	$r28,-340473(0xace07)
1c00437c:	02ba639c 	addi.w	$r28,$r28,-360(0xe98)
1c004380:	15ed827d 	lu12i.w	$r29,-37869(0xf6c13)
1c004384:	0289a3bd 	addi.w	$r29,$r29,616(0x268)
1c004388:	5c013d5c 	bne	$r10,$r28,316(0x13c) # 1c0044c4 <inst_error>
1c00438c:	5c01397d 	bne	$r11,$r29,312(0x138) # 1c0044c4 <inst_error>
1c004390:	14dd46f0 	lu12i.w	$r16,453175(0x6ea37)
1c004394:	02b8e210 	addi.w	$r16,$r16,-456(0xe38)
1c004398:	14db0371 	lu12i.w	$r17,448539(0x6d81b)
1c00439c:	02800631 	addi.w	$r17,$r17,1(0x1)
1c0043a0:	1400000a 	lu12i.w	$r10,0
1c0043a4:	1400000b 	lu12i.w	$r11,0
1c0043a8:	50001400 	b	20(0x14) # 1c0043bc <n17_bne_test+0xd7c>
1c0043ac:	14dd46ea 	lu12i.w	$r10,453175(0x6ea37)
1c0043b0:	02b8e14a 	addi.w	$r10,$r10,-456(0xe38)
1c0043b4:	5c0021ac 	bne	$r13,$r12,32(0x20) # 1c0043d4 <n17_bne_test+0xd94>
1c0043b8:	50002400 	b	36(0x24) # 1c0043dc <n17_bne_test+0xd9c>
1c0043bc:	1400000c 	lu12i.w	$r12,0
1c0043c0:	0280018c 	addi.w	$r12,$r12,0
1c0043c4:	14bbf8cd 	lu12i.w	$r13,384966(0x5dfc6)
1c0043c8:	0288c1ad 	addi.w	$r13,$r13,560(0x230)
1c0043cc:	5fffe18d 	bne	$r12,$r13,-32(0x3ffe0) # 1c0043ac <n17_bne_test+0xd6c>
1c0043d0:	50000c00 	b	12(0xc) # 1c0043dc <n17_bne_test+0xd9c>
1c0043d4:	14db036b 	lu12i.w	$r11,448539(0x6d81b)
1c0043d8:	0280056b 	addi.w	$r11,$r11,1(0x1)
1c0043dc:	14dd46fc 	lu12i.w	$r28,453175(0x6ea37)
1c0043e0:	02b8e39c 	addi.w	$r28,$r28,-456(0xe38)
1c0043e4:	14db037d 	lu12i.w	$r29,448539(0x6d81b)
1c0043e8:	028007bd 	addi.w	$r29,$r29,1(0x1)
1c0043ec:	5c00d95c 	bne	$r10,$r28,216(0xd8) # 1c0044c4 <inst_error>
1c0043f0:	5c00d57d 	bne	$r11,$r29,212(0xd4) # 1c0044c4 <inst_error>
1c0043f4:	15263850 	lu12i.w	$r16,-446014(0x931c2)
1c0043f8:	028eb210 	addi.w	$r16,$r16,940(0x3ac)
1c0043fc:	15f22e51 	lu12i.w	$r17,-28302(0xf9172)
1c004400:	0299f231 	addi.w	$r17,$r17,1660(0x67c)
1c004404:	1400000a 	lu12i.w	$r10,0
1c004408:	1400000b 	lu12i.w	$r11,0
1c00440c:	50001400 	b	20(0x14) # 1c004420 <n17_bne_test+0xde0>
1c004410:	1526384a 	lu12i.w	$r10,-446014(0x931c2)
1c004414:	028eb14a 	addi.w	$r10,$r10,940(0x3ac)
1c004418:	5c0021ac 	bne	$r13,$r12,32(0x20) # 1c004438 <n17_bne_test+0xdf8>
1c00441c:	50002400 	b	36(0x24) # 1c004440 <n17_bne_test+0xe00>
1c004420:	1400000c 	lu12i.w	$r12,0
1c004424:	0280018c 	addi.w	$r12,$r12,0
1c004428:	141db96d 	lu12i.w	$r13,60875(0xedcb)
1c00442c:	028a61ad 	addi.w	$r13,$r13,664(0x298)
1c004430:	5fffe18d 	bne	$r12,$r13,-32(0x3ffe0) # 1c004410 <n17_bne_test+0xdd0>
1c004434:	50000c00 	b	12(0xc) # 1c004440 <n17_bne_test+0xe00>
1c004438:	15f22e4b 	lu12i.w	$r11,-28302(0xf9172)
1c00443c:	0299f16b 	addi.w	$r11,$r11,1660(0x67c)
1c004440:	1526385c 	lu12i.w	$r28,-446014(0x931c2)
1c004444:	028eb39c 	addi.w	$r28,$r28,940(0x3ac)
1c004448:	15f22e5d 	lu12i.w	$r29,-28302(0xf9172)
1c00444c:	0299f3bd 	addi.w	$r29,$r29,1660(0x67c)
1c004450:	5c00755c 	bne	$r10,$r28,116(0x74) # 1c0044c4 <inst_error>
1c004454:	5c00717d 	bne	$r11,$r29,112(0x70) # 1c0044c4 <inst_error>
1c004458:	142e8850 	lu12i.w	$r16,95298(0x17442)
1c00445c:	02a4b210 	addi.w	$r16,$r16,-1748(0x92c)
1c004460:	141691f1 	lu12i.w	$r17,46223(0xb48f)
1c004464:	0287c231 	addi.w	$r17,$r17,496(0x1f0)
1c004468:	1400000a 	lu12i.w	$r10,0
1c00446c:	1400000b 	lu12i.w	$r11,0
1c004470:	50001400 	b	20(0x14) # 1c004484 <n17_bne_test+0xe44>
1c004474:	142e884a 	lu12i.w	$r10,95298(0x17442)
1c004478:	02a4b14a 	addi.w	$r10,$r10,-1748(0x92c)
1c00447c:	5c0021ac 	bne	$r13,$r12,32(0x20) # 1c00449c <n17_bne_test+0xe5c>
1c004480:	50002400 	b	36(0x24) # 1c0044a4 <n17_bne_test+0xe64>
1c004484:	1400000c 	lu12i.w	$r12,0
1c004488:	0280018c 	addi.w	$r12,$r12,0
1c00448c:	1400000d 	lu12i.w	$r13,0
1c004490:	028001ad 	addi.w	$r13,$r13,0
1c004494:	5fffe18d 	bne	$r12,$r13,-32(0x3ffe0) # 1c004474 <n17_bne_test+0xe34>
1c004498:	50000c00 	b	12(0xc) # 1c0044a4 <n17_bne_test+0xe64>
1c00449c:	141691eb 	lu12i.w	$r11,46223(0xb48f)
1c0044a0:	0287c16b 	addi.w	$r11,$r11,496(0x1f0)
1c0044a4:	1400001c 	lu12i.w	$r28,0
1c0044a8:	0280039c 	addi.w	$r28,$r28,0
1c0044ac:	1400001d 	lu12i.w	$r29,0
1c0044b0:	028003bd 	addi.w	$r29,$r29,0
1c0044b4:	5c00115c 	bne	$r10,$r28,16(0x10) # 1c0044c4 <inst_error>
1c0044b8:	5c000d7d 	bne	$r11,$r29,12(0xc) # 1c0044c4 <inst_error>
1c0044bc:	5c000b20 	bne	$r25,$r0,8(0x8) # 1c0044c4 <inst_error>
1c0044c0:	0280075a 	addi.w	$r26,$r26,1(0x1)

1c0044c4 <inst_error>:
1c0044c4:	0040e2ed 	slli.w	$r13,$r23,0x18
1c0044c8:	001569ac 	or	$r12,$r13,$r26
1c0044cc:	2980030c 	st.w	$r12,$r24,0
1c0044d0:	4c000020 	jirl	$r0,$r1,0
inst_error():
1c0044d4:	03400000 	andi	$r0,$r0,0x0

1c0044d8 <n10_nor_test>:
n10_nor_test():
1c0044d8:	028006f7 	addi.w	$r23,$r23,1(0x1)
1c0044dc:	00150019 	move	$r25,$r0
1c0044e0:	155b398c 	lu12i.w	$r12,-337460(0xad9cc)
1c0044e4:	0280398c 	addi.w	$r12,$r12,14(0xe)
1c0044e8:	14716fed 	lu12i.w	$r13,232319(0x38b7f)
1c0044ec:	02b091ad 	addi.w	$r13,$r13,-988(0xc24)
1c0044f0:	1484802b 	lu12i.w	$r11,271361(0x42401)
1c0044f4:	028f456b 	addi.w	$r11,$r11,977(0x3d1)
1c0044f8:	0014358a 	nor	$r10,$r12,$r13
1c0044fc:	5c06ed4b 	bne	$r10,$r11,1772(0x6ec) # 1c004be8 <inst_error>
1c004500:	14cd1acc 	lu12i.w	$r12,420054(0x668d6)
1c004504:	02b6c18c 	addi.w	$r12,$r12,-592(0xdb0)
1c004508:	154128cd 	lu12i.w	$r13,-390842(0xa0946)
1c00450c:	02afc1ad 	addi.w	$r13,$r13,-1040(0xbf0)
1c004510:	1432c54b 	lu12i.w	$r11,103978(0x1962a)
1c004514:	02803d6b 	addi.w	$r11,$r11,15(0xf)
1c004518:	0014358a 	nor	$r10,$r12,$r13
1c00451c:	5c06cd4b 	bne	$r10,$r11,1740(0x6cc) # 1c004be8 <inst_error>
1c004520:	14db062c 	lu12i.w	$r12,448561(0x6d831)
1c004524:	02be418c 	addi.w	$r12,$r12,-112(0xf90)
1c004528:	14cd662d 	lu12i.w	$r13,420657(0x66b31)
1c00452c:	029181ad 	addi.w	$r13,$r13,1120(0x460)
1c004530:	152099cb 	lu12i.w	$r11,-457522(0x904ce)
1c004534:	02803d6b 	addi.w	$r11,$r11,15(0xf)
1c004538:	0014358a 	nor	$r10,$r12,$r13
1c00453c:	5c06ad4b 	bne	$r10,$r11,1708(0x6ac) # 1c004be8 <inst_error>
1c004540:	14c011ec 	lu12i.w	$r12,393359(0x6008f)
1c004544:	028d7d8c 	addi.w	$r12,$r12,863(0x35f)
1c004548:	14a95d0d 	lu12i.w	$r13,346856(0x54ae8)
1c00454c:	0287e9ad 	addi.w	$r13,$r13,506(0x1fa)
1c004550:	1516a22b 	lu12i.w	$r11,-477935(0x8b511)
1c004554:	02b0016b 	addi.w	$r11,$r11,-1024(0xc00)
1c004558:	0014358a 	nor	$r10,$r12,$r13
1c00455c:	5c068d4b 	bne	$r10,$r11,1676(0x68c) # 1c004be8 <inst_error>
1c004560:	155991ec 	lu12i.w	$r12,-340849(0xacc8f)
1c004564:	028b498c 	addi.w	$r12,$r12,722(0x2d2)
1c004568:	14a2922d 	lu12i.w	$r13,332945(0x51491)
1c00456c:	029d81ad 	addi.w	$r13,$r13,1888(0x760)
1c004570:	14046c2b 	lu12i.w	$r11,9057(0x2361)
1c004574:	02a0356b 	addi.w	$r11,$r11,-2035(0x80d)
1c004578:	0014358a 	nor	$r10,$r12,$r13
1c00457c:	5c066d4b 	bne	$r10,$r11,1644(0x66c) # 1c004be8 <inst_error>
1c004580:	145f008c 	lu12i.w	$r12,194564(0x2f804)
1c004584:	02a7818c 	addi.w	$r12,$r12,-1568(0x9e0)
1c004588:	15e958cd 	lu12i.w	$r13,-46394(0xf4ac6)
1c00458c:	029c61ad 	addi.w	$r13,$r13,1816(0x718)
1c004590:	1400a70b 	lu12i.w	$r11,1336(0x538)
1c004594:	02801d6b 	addi.w	$r11,$r11,7(0x7)
1c004598:	0014358a 	nor	$r10,$r12,$r13
1c00459c:	5c064d4b 	bne	$r10,$r11,1612(0x64c) # 1c004be8 <inst_error>
1c0045a0:	15b93dcc 	lu12i.w	$r12,-144914(0xdc9ee)
1c0045a4:	02b7018c 	addi.w	$r12,$r12,-576(0xdc0)
1c0045a8:	143475ed 	lu12i.w	$r13,107439(0x1a3af)
1c0045ac:	02af21ad 	addi.w	$r13,$r13,-1080(0xbc8)
1c0045b0:	1442820b 	lu12i.w	$r11,136208(0x21410)
1c0045b4:	0280dd6b 	addi.w	$r11,$r11,55(0x37)
1c0045b8:	0014358a 	nor	$r10,$r12,$r13
1c0045bc:	5c062d4b 	bne	$r10,$r11,1580(0x62c) # 1c004be8 <inst_error>
1c0045c0:	15f481ec 	lu12i.w	$r12,-23537(0xfa40f)
1c0045c4:	0284998c 	addi.w	$r12,$r12,294(0x126)
1c0045c8:	15f4704d 	lu12i.w	$r13,-23678(0xfa382)
1c0045cc:	0294e1ad 	addi.w	$r13,$r13,1336(0x538)
1c0045d0:	140b0e2b 	lu12i.w	$r11,22641(0x5871)
1c0045d4:	02ab056b 	addi.w	$r11,$r11,-1343(0xac1)
1c0045d8:	0014358a 	nor	$r10,$r12,$r13
1c0045dc:	5c060d4b 	bne	$r10,$r11,1548(0x60c) # 1c004be8 <inst_error>
1c0045e0:	140c066c 	lu12i.w	$r12,24627(0x6033)
1c0045e4:	0281918c 	addi.w	$r12,$r12,100(0x64)
1c0045e8:	154eb16d 	lu12i.w	$r13,-363125(0xa758b)
1c0045ec:	029701ad 	addi.w	$r13,$r13,1472(0x5c0)
1c0045f0:	14b148ab 	lu12i.w	$r11,363077(0x58a45)
1c0045f4:	02a86d6b 	addi.w	$r11,$r11,-1509(0xa1b)
1c0045f8:	0014358a 	nor	$r10,$r12,$r13
1c0045fc:	5c05ed4b 	bne	$r10,$r11,1516(0x5ec) # 1c004be8 <inst_error>
1c004600:	151a1eec 	lu12i.w	$r12,-470793(0x8d0f7)
1c004604:	0282518c 	addi.w	$r12,$r12,148(0x94)
1c004608:	14276f6d 	lu12i.w	$r13,80763(0x13b7b)
1c00460c:	028001ad 	addi.w	$r13,$r13,0
1c004610:	14c0802b 	lu12i.w	$r11,394241(0x60401)
1c004614:	02bdad6b 	addi.w	$r11,$r11,-149(0xf6b)
1c004618:	0014358a 	nor	$r10,$r12,$r13
1c00461c:	5c05cd4b 	bne	$r10,$r11,1484(0x5cc) # 1c004be8 <inst_error>
1c004620:	15a7916c 	lu12i.w	$r12,-181109(0xd3c8b)
1c004624:	02b4298c 	addi.w	$r12,$r12,-758(0xd0a)
1c004628:	15e9110d 	lu12i.w	$r13,-46968(0xf4888)
1c00462c:	02af8dad 	addi.w	$r13,$r13,-1053(0xbe3)
1c004630:	14106e0b 	lu12i.w	$r11,33648(0x8370)
1c004634:	0280516b 	addi.w	$r11,$r11,20(0x14)
1c004638:	0014358a 	nor	$r10,$r12,$r13
1c00463c:	5c05ad4b 	bne	$r10,$r11,1452(0x5ac) # 1c004be8 <inst_error>
1c004640:	1501d78c 	lu12i.w	$r12,-520516(0x80ebc)
1c004644:	02beb18c 	addi.w	$r12,$r12,-84(0xfac)
1c004648:	15303d6d 	lu12i.w	$r13,-425493(0x981eb)
1c00464c:	0283a9ad 	addi.w	$r13,$r13,234(0xea)
1c004650:	14ce008b 	lu12i.w	$r11,421892(0x67004)
1c004654:	0280456b 	addi.w	$r11,$r11,17(0x11)
1c004658:	0014358a 	nor	$r10,$r12,$r13
1c00465c:	5c058d4b 	bne	$r10,$r11,1420(0x58c) # 1c004be8 <inst_error>
1c004660:	159fe4cc 	lu12i.w	$r12,-196826(0xcff26)
1c004664:	02bfb98c 	addi.w	$r12,$r12,-18(0xfee)
1c004668:	14f09dad 	lu12i.w	$r13,492781(0x784ed)
1c00466c:	029c1dad 	addi.w	$r13,$r13,1799(0x707)
1c004670:	1400024b 	lu12i.w	$r11,18(0x12)
1c004674:	0280416b 	addi.w	$r11,$r11,16(0x10)
1c004678:	0014358a 	nor	$r10,$r12,$r13
1c00467c:	5c056d4b 	bne	$r10,$r11,1388(0x56c) # 1c004be8 <inst_error>
1c004680:	1598414c 	lu12i.w	$r12,-212470(0xcc20a)
1c004684:	0298118c 	addi.w	$r12,$r12,1540(0x604)
1c004688:	1586e9cd 	lu12i.w	$r13,-247986(0xc374e)
1c00468c:	029c71ad 	addi.w	$r13,$r13,1820(0x71c)
1c004690:	1461164b 	lu12i.w	$r11,198834(0x308b2)
1c004694:	02a38d6b 	addi.w	$r11,$r11,-1821(0x8e3)
1c004698:	0014358a 	nor	$r10,$r12,$r13
1c00469c:	5c054d4b 	bne	$r10,$r11,1356(0x54c) # 1c004be8 <inst_error>
1c0046a0:	15f8974c 	lu12i.w	$r12,-15174(0xfc4ba)
1c0046a4:	029c218c 	addi.w	$r12,$r12,1800(0x708)
1c0046a8:	1404ce6d 	lu12i.w	$r13,9843(0x2673)
1c0046ac:	02b871ad 	addi.w	$r13,$r13,-484(0xe1c)
1c0046b0:	140320ab 	lu12i.w	$r11,6405(0x1905)
1c0046b4:	02838d6b 	addi.w	$r11,$r11,227(0xe3)
1c0046b8:	0014358a 	nor	$r10,$r12,$r13
1c0046bc:	5c052d4b 	bne	$r10,$r11,1324(0x52c) # 1c004be8 <inst_error>
1c0046c0:	15ef310c 	lu12i.w	$r12,-34424(0xf7988)
1c0046c4:	0297418c 	addi.w	$r12,$r12,1488(0x5d0)
1c0046c8:	148c8dad 	lu12i.w	$r13,287853(0x4646d)
1c0046cc:	029109ad 	addi.w	$r13,$r13,1090(0x442)
1c0046d0:	1410426b 	lu12i.w	$r11,33299(0x8213)
1c0046d4:	02a8b56b 	addi.w	$r11,$r11,-1491(0xa2d)
1c0046d8:	0014358a 	nor	$r10,$r12,$r13
1c0046dc:	5c050d4b 	bne	$r10,$r11,1292(0x50c) # 1c004be8 <inst_error>
1c0046e0:	14d32dac 	lu12i.w	$r12,432493(0x6996d)
1c0046e4:	028dc18c 	addi.w	$r12,$r12,880(0x370)
1c0046e8:	14ff7f0d 	lu12i.w	$r13,523256(0x7fbf8)
1c0046ec:	02a801ad 	addi.w	$r13,$r13,-1536(0xa00)
1c0046f0:	1500800b 	lu12i.w	$r11,-523264(0x80400)
1c0046f4:	02923d6b 	addi.w	$r11,$r11,1167(0x48f)
1c0046f8:	0014358a 	nor	$r10,$r12,$r13
1c0046fc:	5c04ed4b 	bne	$r10,$r11,1260(0x4ec) # 1c004be8 <inst_error>
1c004700:	15f8534c 	lu12i.w	$r12,-15718(0xfc29a)
1c004704:	02a6d58c 	addi.w	$r12,$r12,-1611(0x9b5)
1c004708:	1453e28d 	lu12i.w	$r13,171796(0x29f14)
1c00470c:	029641ad 	addi.w	$r13,$r13,1424(0x590)
1c004710:	14040c4b 	lu12i.w	$r11,8290(0x2062)
1c004714:	0289296b 	addi.w	$r11,$r11,586(0x24a)
1c004718:	0014358a 	nor	$r10,$r12,$r13
1c00471c:	5c04cd4b 	bne	$r10,$r11,1228(0x4cc) # 1c004be8 <inst_error>
1c004720:	15e8ac0c 	lu12i.w	$r12,-47776(0xf4560)
1c004724:	02ac818c 	addi.w	$r12,$r12,-1248(0xb20)
1c004728:	159865ad 	lu12i.w	$r13,-212179(0xcc32d)
1c00472c:	0298a1ad 	addi.w	$r13,$r13,1576(0x628)
1c004730:	1407100b 	lu12i.w	$r11,14464(0x3880)
1c004734:	02835d6b 	addi.w	$r11,$r11,215(0xd7)
1c004738:	0014358a 	nor	$r10,$r12,$r13
1c00473c:	5c04ad4b 	bne	$r10,$r11,1196(0x4ac) # 1c004be8 <inst_error>
1c004740:	1476ae6c 	lu12i.w	$r12,243059(0x3b573)
1c004744:	02b79d8c 	addi.w	$r12,$r12,-537(0xde7)
1c004748:	1549560d 	lu12i.w	$r13,-374096(0xa4ab0)
1c00474c:	02b9f9ad 	addi.w	$r13,$r13,-386(0xe7e)
1c004750:	1480000b 	lu12i.w	$r11,262144(0x40000)
1c004754:	0280016b 	addi.w	$r11,$r11,0
1c004758:	0014358a 	nor	$r10,$r12,$r13
1c00475c:	5c048d4b 	bne	$r10,$r11,1164(0x48c) # 1c004be8 <inst_error>
1c004760:	151c3aac 	lu12i.w	$r12,-466475(0x8e1d5)
1c004764:	02ae018c 	addi.w	$r12,$r12,-1152(0xb80)
1c004768:	156992ad 	lu12i.w	$r13,-308075(0xb4c95)
1c00476c:	0296c1ad 	addi.w	$r13,$r13,1456(0x5b0)
1c004770:	1482454b 	lu12i.w	$r11,266794(0x4122a)
1c004774:	02813d6b 	addi.w	$r11,$r11,79(0x4f)
1c004778:	0014358a 	nor	$r10,$r12,$r13
1c00477c:	5c046d4b 	bne	$r10,$r11,1132(0x46c) # 1c004be8 <inst_error>
1c004780:	141025ec 	lu12i.w	$r12,33071(0x812f)
1c004784:	0283c18c 	addi.w	$r12,$r12,240(0xf0)
1c004788:	14decded 	lu12i.w	$r13,456303(0x6f66f)
1c00478c:	02af81ad 	addi.w	$r13,$r13,-1056(0xbe0)
1c004790:	1521120b 	lu12i.w	$r11,-456560(0x90890)
1c004794:	02903d6b 	addi.w	$r11,$r11,1039(0x40f)
1c004798:	0014358a 	nor	$r10,$r12,$r13
1c00479c:	5c044d4b 	bne	$r10,$r11,1100(0x44c) # 1c004be8 <inst_error>
1c0047a0:	156b67ac 	lu12i.w	$r12,-304323(0xb5b3d)
1c0047a4:	02be318c 	addi.w	$r12,$r12,-116(0xf8c)
1c0047a8:	14b8920d 	lu12i.w	$r13,378000(0x5c490)
1c0047ac:	02a9a1ad 	addi.w	$r13,$r13,-1432(0xa68)
1c0047b0:	1404080b 	lu12i.w	$r11,8256(0x2040)
1c0047b4:	02804d6b 	addi.w	$r11,$r11,19(0x13)
1c0047b8:	0014358a 	nor	$r10,$r12,$r13
1c0047bc:	5c042d4b 	bne	$r10,$r11,1068(0x42c) # 1c004be8 <inst_error>
1c0047c0:	1507df0c 	lu12i.w	$r12,-508168(0x83ef8)
1c0047c4:	029f998c 	addi.w	$r12,$r12,2022(0x7e6)
1c0047c8:	1492f36d 	lu12i.w	$r13,300955(0x4979b)
1c0047cc:	028bedad 	addi.w	$r13,$r13,763(0x2fb)
1c0047d0:	146800ab 	lu12i.w	$r11,212997(0x34005)
1c0047d4:	02a0016b 	addi.w	$r11,$r11,-2048(0x800)
1c0047d8:	0014358a 	nor	$r10,$r12,$r13
1c0047dc:	5c040d4b 	bne	$r10,$r11,1036(0x40c) # 1c004be8 <inst_error>
1c0047e0:	15e7526c 	lu12i.w	$r12,-50541(0xf3a93)
1c0047e4:	0286c18c 	addi.w	$r12,$r12,432(0x1b0)
1c0047e8:	141c218d 	lu12i.w	$r13,57612(0xe10c)
1c0047ec:	028739ad 	addi.w	$r13,$r13,462(0x1ce)
1c0047f0:	14008c2b 	lu12i.w	$r11,1121(0x461)
1c0047f4:	02b8056b 	addi.w	$r11,$r11,-511(0xe01)
1c0047f8:	0014358a 	nor	$r10,$r12,$r13
1c0047fc:	5c03ed4b 	bne	$r10,$r11,1004(0x3ec) # 1c004be8 <inst_error>
1c004800:	1544938c 	lu12i.w	$r12,-383844(0xa249c)
1c004804:	029a518c 	addi.w	$r12,$r12,1684(0x694)
1c004808:	14c5a72d 	lu12i.w	$r13,404793(0x62d39)
1c00480c:	02b731ad 	addi.w	$r13,$r13,-564(0xdcc)
1c004810:	143a486b 	lu12i.w	$r11,119363(0x1d243)
1c004814:	02808d6b 	addi.w	$r11,$r11,35(0x23)
1c004818:	0014358a 	nor	$r10,$r12,$r13
1c00481c:	5c03cd4b 	bne	$r10,$r11,972(0x3cc) # 1c004be8 <inst_error>
1c004820:	14e9c48c 	lu12i.w	$r12,478756(0x74e24)
1c004824:	02a1a98c 	addi.w	$r12,$r12,-1942(0x86a)
1c004828:	143b7ded 	lu12i.w	$r13,121839(0x1dbef)
1c00482c:	02b801ad 	addi.w	$r13,$r13,-512(0xe00)
1c004830:	1504020b 	lu12i.w	$r11,-516080(0x82010)
1c004834:	0286556b 	addi.w	$r11,$r11,405(0x195)
1c004838:	0014358a 	nor	$r10,$r12,$r13
1c00483c:	5c03ad4b 	bne	$r10,$r11,940(0x3ac) # 1c004be8 <inst_error>
1c004840:	14b1eb6c 	lu12i.w	$r12,364379(0x58f5b)
1c004844:	02b6818c 	addi.w	$r12,$r12,-608(0xda0)
1c004848:	14a63d8d 	lu12i.w	$r13,340460(0x531ec)
1c00484c:	02ae01ad 	addi.w	$r13,$r13,-1152(0xb80)
1c004850:	1548008b 	lu12i.w	$r11,-376828(0xa4004)
1c004854:	02817d6b 	addi.w	$r11,$r11,95(0x5f)
1c004858:	0014358a 	nor	$r10,$r12,$r13
1c00485c:	5c038d4b 	bne	$r10,$r11,908(0x38c) # 1c004be8 <inst_error>
1c004860:	1556bd2c 	lu12i.w	$r12,-346647(0xab5e9)
1c004864:	02b6c18c 	addi.w	$r12,$r12,-592(0xdb0)
1c004868:	1529c4cd 	lu12i.w	$r13,-438746(0x94e26)
1c00486c:	02a8a1ad 	addi.w	$r13,$r13,-1496(0xa28)
1c004870:	1480024b 	lu12i.w	$r11,262162(0x40012)
1c004874:	02811d6b 	addi.w	$r11,$r11,71(0x47)
1c004878:	0014358a 	nor	$r10,$r12,$r13
1c00487c:	5c036d4b 	bne	$r10,$r11,876(0x36c) # 1c004be8 <inst_error>
1c004880:	15b08b6c 	lu12i.w	$r12,-162725(0xd845b)
1c004884:	02bdc98c 	addi.w	$r12,$r12,-142(0xf72)
1c004888:	154efbad 	lu12i.w	$r13,-362531(0xa77dd)
1c00488c:	02bec1ad 	addi.w	$r13,$r13,-80(0xfb0)
1c004890:	1401042b 	lu12i.w	$r11,2081(0x821)
1c004894:	0280356b 	addi.w	$r11,$r11,13(0xd)
1c004898:	0014358a 	nor	$r10,$r12,$r13
1c00489c:	5c034d4b 	bne	$r10,$r11,844(0x34c) # 1c004be8 <inst_error>
1c0048a0:	14b6156c 	lu12i.w	$r12,372907(0x5b0ab)
1c0048a4:	0296298c 	addi.w	$r12,$r12,1418(0x58a)
1c0048a8:	1428370d 	lu12i.w	$r13,82360(0x141b8)
1c0048ac:	029661ad 	addi.w	$r13,$r13,1432(0x598)
1c0048b0:	1541c8ab 	lu12i.w	$r11,-389563(0xa0e45)
1c0048b4:	02a9956b 	addi.w	$r11,$r11,-1435(0xa65)
1c0048b8:	0014358a 	nor	$r10,$r12,$r13
1c0048bc:	5c032d4b 	bne	$r10,$r11,812(0x32c) # 1c004be8 <inst_error>
1c0048c0:	155fa60c 	lu12i.w	$r12,-328400(0xafd30)
1c0048c4:	02b81d8c 	addi.w	$r12,$r12,-505(0xe07)
1c0048c8:	1543f94d 	lu12i.w	$r13,-385078(0xa1fca)
1c0048cc:	028b51ad 	addi.w	$r13,$r13,724(0x2d4)
1c0048d0:	14a0020b 	lu12i.w	$r11,327696(0x50010)
1c0048d4:	0284a16b 	addi.w	$r11,$r11,296(0x128)
1c0048d8:	0014358a 	nor	$r10,$r12,$r13
1c0048dc:	5c030d4b 	bne	$r10,$r11,780(0x30c) # 1c004be8 <inst_error>
1c0048e0:	14b1d1ac 	lu12i.w	$r12,364173(0x58e8d)
1c0048e4:	02a6a18c 	addi.w	$r12,$r12,-1624(0x9a8)
1c0048e8:	1543a00d 	lu12i.w	$r13,-385792(0xa1d00)
1c0048ec:	029dc1ad 	addi.w	$r13,$r13,1904(0x770)
1c0048f0:	140c0e6b 	lu12i.w	$r11,24691(0x6073)
1c0048f4:	02801d6b 	addi.w	$r11,$r11,7(0x7)
1c0048f8:	0014358a 	nor	$r10,$r12,$r13
1c0048fc:	5c02ed4b 	bne	$r10,$r11,748(0x2ec) # 1c004be8 <inst_error>
1c004900:	15174f8c 	lu12i.w	$r12,-476548(0x8ba7c)
1c004904:	02a2718c 	addi.w	$r12,$r12,-1892(0x89c)
1c004908:	15c5908d 	lu12i.w	$r13,-119676(0xe2c84)
1c00490c:	02bf01ad 	addi.w	$r13,$r13,-64(0xfc0)
1c004910:	1428208b 	lu12i.w	$r11,82180(0x14104)
1c004914:	02808d6b 	addi.w	$r11,$r11,35(0x23)
1c004918:	0014358a 	nor	$r10,$r12,$r13
1c00491c:	5c02cd4b 	bne	$r10,$r11,716(0x2cc) # 1c004be8 <inst_error>
1c004920:	1418b2ec 	lu12i.w	$r12,50583(0xc597)
1c004924:	02a9c98c 	addi.w	$r12,$r12,-1422(0xa72)
1c004928:	1596684d 	lu12i.w	$r13,-216254(0xcb342)
1c00492c:	02a1f9ad 	addi.w	$r13,$r13,-1922(0x87e)
1c004930:	1461050b 	lu12i.w	$r11,198696(0x30828)
1c004934:	0296056b 	addi.w	$r11,$r11,1409(0x581)
1c004938:	0014358a 	nor	$r10,$r12,$r13
1c00493c:	5c02ad4b 	bne	$r10,$r11,684(0x2ac) # 1c004be8 <inst_error>
1c004940:	15e77b8c 	lu12i.w	$r12,-50212(0xf3bdc)
1c004944:	02bbad8c 	addi.w	$r12,$r12,-277(0xeeb)
1c004948:	14899c8d 	lu12i.w	$r13,281828(0x44ce4)
1c00494c:	0289d9ad 	addi.w	$r13,$r13,630(0x276)
1c004950:	1410000b 	lu12i.w	$r11,32768(0x8000)
1c004954:	0284016b 	addi.w	$r11,$r11,256(0x100)
1c004958:	0014358a 	nor	$r10,$r12,$r13
1c00495c:	5c028d4b 	bne	$r10,$r11,652(0x28c) # 1c004be8 <inst_error>
1c004960:	15f4bacc 	lu12i.w	$r12,-23082(0xfa5d6)
1c004964:	0285698c 	addi.w	$r12,$r12,346(0x15a)
1c004968:	149fe38d 	lu12i.w	$r13,327452(0x4ff1c)
1c00496c:	029029ad 	addi.w	$r13,$r13,1034(0x40a)
1c004970:	1400044b 	lu12i.w	$r11,34(0x22)
1c004974:	02aa956b 	addi.w	$r11,$r11,-1371(0xaa5)
1c004978:	0014358a 	nor	$r10,$r12,$r13
1c00497c:	5c026d4b 	bne	$r10,$r11,620(0x26c) # 1c004be8 <inst_error>
1c004980:	147da5ec 	lu12i.w	$r12,257327(0x3ed2f)
1c004984:	02b8018c 	addi.w	$r12,$r12,-512(0xe00)
1c004988:	14a7b50d 	lu12i.w	$r13,343464(0x53da8)
1c00498c:	0281bdad 	addi.w	$r13,$r13,111(0x6f)
1c004990:	15004a2b 	lu12i.w	$r11,-523695(0x80251)
1c004994:	0286416b 	addi.w	$r11,$r11,400(0x190)
1c004998:	0014358a 	nor	$r10,$r12,$r13
1c00499c:	5c024d4b 	bne	$r10,$r11,588(0x24c) # 1c004be8 <inst_error>
1c0049a0:	154a4e0c 	lu12i.w	$r12,-372112(0xa5270)
1c0049a4:	029c298c 	addi.w	$r12,$r12,1802(0x70a)
1c0049a8:	141bfa8d 	lu12i.w	$r13,57300(0xdfd4)
1c0049ac:	02b8adad 	addi.w	$r13,$r13,-469(0xe2b)
1c0049b0:	14a4018b 	lu12i.w	$r11,335884(0x5200c)
1c0049b4:	0283516b 	addi.w	$r11,$r11,212(0xd4)
1c0049b8:	0014358a 	nor	$r10,$r12,$r13
1c0049bc:	5c022d4b 	bne	$r10,$r11,556(0x22c) # 1c004be8 <inst_error>
1c0049c0:	140efbac 	lu12i.w	$r12,30685(0x77dd)
1c0049c4:	02ae818c 	addi.w	$r12,$r12,-1120(0xba0)
1c0049c8:	1473174d 	lu12i.w	$r13,235706(0x398ba)
1c0049cc:	0288f1ad 	addi.w	$r13,$r13,572(0x23c)
1c0049d0:	1580002b 	lu12i.w	$r11,-262143(0xc0001)
1c0049d4:	02910d6b 	addi.w	$r11,$r11,1091(0x443)
1c0049d8:	0014358a 	nor	$r10,$r12,$r13
1c0049dc:	5c020d4b 	bne	$r10,$r11,524(0x20c) # 1c004be8 <inst_error>
1c0049e0:	157f45ec 	lu12i.w	$r12,-263633(0xbfa2f)
1c0049e4:	02a4a18c 	addi.w	$r12,$r12,-1752(0x928)
1c0049e8:	14b75f8d 	lu12i.w	$r13,375548(0x5bafc)
1c0049ec:	029781ad 	addi.w	$r13,$r13,1504(0x5e0)
1c0049f0:	1400a02b 	lu12i.w	$r11,1281(0x501)
1c0049f4:	02885d6b 	addi.w	$r11,$r11,535(0x217)
1c0049f8:	0014358a 	nor	$r10,$r12,$r13
1c0049fc:	5c01ed4b 	bne	$r10,$r11,492(0x1ec) # 1c004be8 <inst_error>
1c004a00:	14fa12ec 	lu12i.w	$r12,512151(0x7d097)
1c004a04:	02a5e18c 	addi.w	$r12,$r12,-1672(0x978)
1c004a08:	14be6e4d 	lu12i.w	$r13,390002(0x5f372)
1c004a0c:	028601ad 	addi.w	$r13,$r13,384(0x180)
1c004a10:	1501812b 	lu12i.w	$r11,-521207(0x80c09)
1c004a14:	02981d6b 	addi.w	$r11,$r11,1543(0x607)
1c004a18:	0014358a 	nor	$r10,$r12,$r13
1c004a1c:	5c01cd4b 	bne	$r10,$r11,460(0x1cc) # 1c004be8 <inst_error>
1c004a20:	15cfa22c 	lu12i.w	$r12,-99055(0xe7d11)
1c004a24:	02aac98c 	addi.w	$r12,$r12,-1358(0xab2)
1c004a28:	157915cd 	lu12i.w	$r13,-276306(0xbc8ae)
1c004a2c:	02ae81ad 	addi.w	$r13,$r13,-1120(0xba0)
1c004a30:	1400484b 	lu12i.w	$r11,578(0x242)
1c004a34:	0291356b 	addi.w	$r11,$r11,1101(0x44d)
1c004a38:	0014358a 	nor	$r10,$r12,$r13
1c004a3c:	5c01ad4b 	bne	$r10,$r11,428(0x1ac) # 1c004be8 <inst_error>
1c004a40:	157354ec 	lu12i.w	$r12,-288089(0xb9aa7)
1c004a44:	0285cd8c 	addi.w	$r12,$r12,371(0x173)
1c004a48:	14b47ded 	lu12i.w	$r13,369647(0x5a3ef)
1c004a4c:	02ac55ad 	addi.w	$r13,$r13,-1259(0xb15)
1c004a50:	1408820b 	lu12i.w	$r11,17424(0x4410)
1c004a54:	0292216b 	addi.w	$r11,$r11,1160(0x488)
1c004a58:	0014358a 	nor	$r10,$r12,$r13
1c004a5c:	5c018d4b 	bne	$r10,$r11,396(0x18c) # 1c004be8 <inst_error>
1c004a60:	15b98f8c 	lu12i.w	$r12,-144260(0xdcc7c)
1c004a64:	02aa818c 	addi.w	$r12,$r12,-1376(0xaa0)
1c004a68:	14b68f0d 	lu12i.w	$r13,373880(0x5b478)
1c004a6c:	029061ad 	addi.w	$r13,$r13,1048(0x418)
1c004a70:	1440708b 	lu12i.w	$r11,131972(0x20384)
1c004a74:	02851d6b 	addi.w	$r11,$r11,327(0x147)
1c004a78:	0014358a 	nor	$r10,$r12,$r13
1c004a7c:	5c016d4b 	bne	$r10,$r11,364(0x16c) # 1c004be8 <inst_error>
1c004a80:	15f0318c 	lu12i.w	$r12,-32372(0xf818c)
1c004a84:	02bce18c 	addi.w	$r12,$r12,-200(0xf38)
1c004a88:	15a5dc2d 	lu12i.w	$r13,-184607(0xd2ee1)
1c004a8c:	02a8b1ad 	addi.w	$r13,$r13,-1492(0xa2c)
1c004a90:	140a028b 	lu12i.w	$r11,20500(0x5014)
1c004a94:	02830d6b 	addi.w	$r11,$r11,195(0xc3)
1c004a98:	0014358a 	nor	$r10,$r12,$r13
1c004a9c:	5c014d4b 	bne	$r10,$r11,332(0x14c) # 1c004be8 <inst_error>
1c004aa0:	1461d4ac 	lu12i.w	$r12,200357(0x30ea5)
1c004aa4:	02bd218c 	addi.w	$r12,$r12,-184(0xf48)
1c004aa8:	14ed2bed 	lu12i.w	$r13,485727(0x7695f)
1c004aac:	02b939ad 	addi.w	$r13,$r13,-434(0xe4e)
1c004ab0:	1512002b 	lu12i.w	$r11,-487423(0x89001)
1c004ab4:	0282c56b 	addi.w	$r11,$r11,177(0xb1)
1c004ab8:	0014358a 	nor	$r10,$r12,$r13
1c004abc:	5c012d4b 	bne	$r10,$r11,300(0x12c) # 1c004be8 <inst_error>
1c004ac0:	15188acc 	lu12i.w	$r12,-474026(0x8c456)
1c004ac4:	0299018c 	addi.w	$r12,$r12,1600(0x640)
1c004ac8:	15358f8d 	lu12i.w	$r13,-414596(0x9ac7c)
1c004acc:	029f91ad 	addi.w	$r13,$r13,2020(0x7e4)
1c004ad0:	14c2704b 	lu12i.w	$r11,398210(0x61382)
1c004ad4:	02a06d6b 	addi.w	$r11,$r11,-2021(0x81b)
1c004ad8:	0014358a 	nor	$r10,$r12,$r13
1c004adc:	5c010d4b 	bne	$r10,$r11,268(0x10c) # 1c004be8 <inst_error>
1c004ae0:	15f85bac 	lu12i.w	$r12,-15651(0xfc2dd)
1c004ae4:	02a6f98c 	addi.w	$r12,$r12,-1602(0x9be)
1c004ae8:	14ff118d 	lu12i.w	$r13,522380(0x7f88c)
1c004aec:	02b44dad 	addi.w	$r13,$r13,-749(0xd13)
1c004af0:	1400a40b 	lu12i.w	$r11,1312(0x520)
1c004af4:	0289016b 	addi.w	$r11,$r11,576(0x240)
1c004af8:	0014358a 	nor	$r10,$r12,$r13
1c004afc:	5c00ed4b 	bne	$r10,$r11,236(0xec) # 1c004be8 <inst_error>
1c004b00:	14d3674c 	lu12i.w	$r12,432954(0x69b3a)
1c004b04:	02ace18c 	addi.w	$r12,$r12,-1224(0xb38)
1c004b08:	1454088d 	lu12i.w	$r13,172100(0x2a044)
1c004b0c:	02bc81ad 	addi.w	$r13,$r13,-224(0xf20)
1c004b10:	1528908b 	lu12i.w	$r11,-441212(0x94484)
1c004b14:	02831d6b 	addi.w	$r11,$r11,199(0xc7)
1c004b18:	0014358a 	nor	$r10,$r12,$r13
1c004b1c:	5c00cd4b 	bne	$r10,$r11,204(0xcc) # 1c004be8 <inst_error>
1c004b20:	150371cc 	lu12i.w	$r12,-517234(0x81b8e)
1c004b24:	028db18c 	addi.w	$r12,$r12,876(0x36c)
1c004b28:	15dea04d 	lu12i.w	$r13,-68350(0xef502)
1c004b2c:	028e81ad 	addi.w	$r13,$r13,928(0x3a0)
1c004b30:	14200e4b 	lu12i.w	$r11,65650(0x10072)
1c004b34:	02b04d6b 	addi.w	$r11,$r11,-1005(0xc13)
1c004b38:	0014358a 	nor	$r10,$r12,$r13
1c004b3c:	5c00ad4b 	bne	$r10,$r11,172(0xac) # 1c004be8 <inst_error>
1c004b40:	1422b46c 	lu12i.w	$r12,71075(0x115a3)
1c004b44:	028c798c 	addi.w	$r12,$r12,798(0x31e)
1c004b48:	15368e0d 	lu12i.w	$r13,-412560(0x9b470)
1c004b4c:	029df9ad 	addi.w	$r13,$r13,1918(0x77e)
1c004b50:	14c941ab 	lu12i.w	$r11,412173(0x64a0d)
1c004b54:	02a2056b 	addi.w	$r11,$r11,-1919(0x881)
1c004b58:	0014358a 	nor	$r10,$r12,$r13
1c004b5c:	5c008d4b 	bne	$r10,$r11,140(0x8c) # 1c004be8 <inst_error>
1c004b60:	14b26c8c 	lu12i.w	$r12,365412(0x59364)
1c004b64:	02b2f18c 	addi.w	$r12,$r12,-836(0xcbc)
1c004b68:	15b82d0d 	lu12i.w	$r13,-147096(0xdc168)
1c004b6c:	02ae61ad 	addi.w	$r13,$r13,-1128(0xb98)
1c004b70:	1445930b 	lu12i.w	$r11,142488(0x22c98)
1c004b74:	02810d6b 	addi.w	$r11,$r11,67(0x43)
1c004b78:	0014358a 	nor	$r10,$r12,$r13
1c004b7c:	5c006d4b 	bne	$r10,$r11,108(0x6c) # 1c004be8 <inst_error>
1c004b80:	14e14f2c 	lu12i.w	$r12,461433(0x70a79)
1c004b84:	02821d8c 	addi.w	$r12,$r12,135(0x87)
1c004b88:	14bff46d 	lu12i.w	$r13,393123(0x5ffa3)
1c004b8c:	02ac9dad 	addi.w	$r13,$r13,-1241(0xb27)
1c004b90:	1500008b 	lu12i.w	$r11,-524284(0x80004)
1c004b94:	0291616b 	addi.w	$r11,$r11,1112(0x458)
1c004b98:	0014358a 	nor	$r10,$r12,$r13
1c004b9c:	5c004d4b 	bne	$r10,$r11,76(0x4c) # 1c004be8 <inst_error>
1c004ba0:	140977ec 	lu12i.w	$r12,19391(0x4bbf)
1c004ba4:	0299758c 	addi.w	$r12,$r12,1629(0x65d)
1c004ba8:	1547454d 	lu12i.w	$r13,-378326(0xa3a2a)
1c004bac:	02b589ad 	addi.w	$r13,$r13,-670(0xd62)
1c004bb0:	14b0880b 	lu12i.w	$r11,361536(0x58440)
1c004bb4:	0282016b 	addi.w	$r11,$r11,128(0x80)
1c004bb8:	0014358a 	nor	$r10,$r12,$r13
1c004bbc:	5c002d4b 	bne	$r10,$r11,44(0x2c) # 1c004be8 <inst_error>
1c004bc0:	15861a0c 	lu12i.w	$r12,-249648(0xc30d0)
1c004bc4:	02bd218c 	addi.w	$r12,$r12,-184(0xf48)
1c004bc8:	15f0862d 	lu12i.w	$r13,-31695(0xf8431)
1c004bcc:	02b311ad 	addi.w	$r13,$r13,-828(0xcc4)
1c004bd0:	1409600b 	lu12i.w	$r11,19200(0x4b00)
1c004bd4:	0280cd6b 	addi.w	$r11,$r11,51(0x33)
1c004bd8:	0014358a 	nor	$r10,$r12,$r13
1c004bdc:	5c000d4b 	bne	$r10,$r11,12(0xc) # 1c004be8 <inst_error>
1c004be0:	5c000b20 	bne	$r25,$r0,8(0x8) # 1c004be8 <inst_error>
1c004be4:	0280075a 	addi.w	$r26,$r26,1(0x1)

1c004be8 <inst_error>:
1c004be8:	0040e2ed 	slli.w	$r13,$r23,0x18
1c004bec:	001569ac 	or	$r12,$r13,$r26
1c004bf0:	2980030c 	st.w	$r12,$r24,0
1c004bf4:	4c000020 	jirl	$r0,$r1,0

1c004bf8 <n13_srai_w_test>:
n13_srai_w_test():
1c004bf8:	028006f7 	addi.w	$r23,$r23,1(0x1)
1c004bfc:	00150019 	move	$r25,$r0
1c004c00:	14fc010c 	lu12i.w	$r12,516104(0x7e008)
1c004c04:	028fc18c 	addi.w	$r12,$r12,1008(0x3f0)
1c004c08:	14007e0b 	lu12i.w	$r11,1008(0x3f0)
1c004c0c:	0281056b 	addi.w	$r11,$r11,65(0x41)
1c004c10:	0048a58a 	srai.w	$r10,$r12,0x9
1c004c14:	5c039d4b 	bne	$r10,$r11,924(0x39c) # 1c004fb0 <inst_error>
1c004c18:	1427cd0c 	lu12i.w	$r12,81512(0x13e68)
1c004c1c:	0283018c 	addi.w	$r12,$r12,192(0xc0)
1c004c20:	1400000b 	lu12i.w	$r11,0
1c004c24:	02804d6b 	addi.w	$r11,$r11,19(0x13)
1c004c28:	0048e18a 	srai.w	$r10,$r12,0x18
1c004c2c:	5c03854b 	bne	$r10,$r11,900(0x384) # 1c004fb0 <inst_error>
1c004c30:	14dae72c 	lu12i.w	$r12,448313(0x6d739)
1c004c34:	02a3b18c 	addi.w	$r12,$r12,-1812(0x8ec)
1c004c38:	140000eb 	lu12i.w	$r11,7(0x7)
1c004c3c:	02b5cd6b 	addi.w	$r11,$r11,-653(0xd73)
1c004c40:	0048c18a 	srai.w	$r10,$r12,0x10
1c004c44:	5c036d4b 	bne	$r10,$r11,876(0x36c) # 1c004fb0 <inst_error>
1c004c48:	15809e0c 	lu12i.w	$r12,-260880(0xc04f0)
1c004c4c:	02b3318c 	addi.w	$r12,$r12,-820(0xccc)
1c004c50:	15ffff8b 	lu12i.w	$r11,-4(0xffffc)
1c004c54:	0281396b 	addi.w	$r11,$r11,78(0x4e)
1c004c58:	0048c18a 	srai.w	$r10,$r12,0x10
1c004c5c:	5c03554b 	bne	$r10,$r11,852(0x354) # 1c004fb0 <inst_error>
1c004c60:	15ad8cec 	lu12i.w	$r12,-168857(0xd6c67)
1c004c64:	0288018c 	addi.w	$r12,$r12,512(0x200)
1c004c68:	1400000b 	lu12i.w	$r11,0
1c004c6c:	02b5b16b 	addi.w	$r11,$r11,-660(0xd6c)
1c004c70:	0048d18a 	srai.w	$r10,$r12,0x14
1c004c74:	5c033d4b 	bne	$r10,$r11,828(0x33c) # 1c004fb0 <inst_error>
1c004c78:	146cdd4c 	lu12i.w	$r12,222954(0x366ea)
1c004c7c:	0283f98c 	addi.w	$r12,$r12,254(0xfe)
1c004c80:	1400000b 	lu12i.w	$r11,0
1c004c84:	0280016b 	addi.w	$r11,$r11,0
1c004c88:	0048f98a 	srai.w	$r10,$r12,0x1e
1c004c8c:	5c03254b 	bne	$r10,$r11,804(0x324) # 1c004fb0 <inst_error>
1c004c90:	1494686c 	lu12i.w	$r12,303939(0x4a343)
1c004c94:	029f018c 	addi.w	$r12,$r12,1984(0x7c0)
1c004c98:	140128eb 	lu12i.w	$r11,2375(0x947)
1c004c9c:	02a1bd6b 	addi.w	$r11,$r11,-1937(0x86f)
1c004ca0:	00489d8a 	srai.w	$r10,$r12,0x7
1c004ca4:	5c030d4b 	bne	$r10,$r11,780(0x30c) # 1c004fb0 <inst_error>
1c004ca8:	146aba4c 	lu12i.w	$r12,218578(0x355d2)
1c004cac:	0296818c 	addi.w	$r12,$r12,1440(0x5a0)
1c004cb0:	1400000b 	lu12i.w	$r11,0
1c004cb4:	029aad6b 	addi.w	$r11,$r11,1707(0x6ab)
1c004cb8:	0048cd8a 	srai.w	$r10,$r12,0x13
1c004cbc:	5c02f54b 	bne	$r10,$r11,756(0x2f4) # 1c004fb0 <inst_error>
1c004cc0:	14735bec 	lu12i.w	$r12,236255(0x39adf)
1c004cc4:	029b458c 	addi.w	$r12,$r12,1745(0x6d1)
1c004cc8:	1400736b 	lu12i.w	$r11,923(0x39b)
1c004ccc:	02b7d96b 	addi.w	$r11,$r11,-522(0xdf6)
1c004cd0:	0048a18a 	srai.w	$r10,$r12,0x8
1c004cd4:	5c02dd4b 	bne	$r10,$r11,732(0x2dc) # 1c004fb0 <inst_error>
1c004cd8:	1581292c 	lu12i.w	$r12,-259767(0xc0949)
1c004cdc:	029e018c 	addi.w	$r12,$r12,1920(0x780)
1c004ce0:	1400000b 	lu12i.w	$r11,0
1c004ce4:	02a0496b 	addi.w	$r11,$r11,-2030(0x812)
1c004ce8:	0048cd8a 	srai.w	$r10,$r12,0x13
1c004cec:	5c02c54b 	bne	$r10,$r11,708(0x2c4) # 1c004fb0 <inst_error>
1c004cf0:	15e13d4c 	lu12i.w	$r12,-62998(0xf09ea)
1c004cf4:	0286818c 	addi.w	$r12,$r12,416(0x1a0)
1c004cf8:	1400000b 	lu12i.w	$r11,0
1c004cfc:	02bffd6b 	addi.w	$r11,$r11,-1(0xfff)
1c004d00:	0048f58a 	srai.w	$r10,$r12,0x1d
1c004d04:	5c02ad4b 	bne	$r10,$r11,684(0x2ac) # 1c004fb0 <inst_error>
1c004d08:	15f4da6c 	lu12i.w	$r12,-22829(0xfa6d3)
1c004d0c:	02ae018c 	addi.w	$r12,$r12,-1152(0xb80)
1c004d10:	1400000b 	lu12i.w	$r11,0
1c004d14:	02bffd6b 	addi.w	$r11,$r11,-1(0xfff)
1c004d18:	0048ed8a 	srai.w	$r10,$r12,0x1b
1c004d1c:	5c02954b 	bne	$r10,$r11,660(0x294) # 1c004fb0 <inst_error>
1c004d20:	142b7f6c 	lu12i.w	$r12,89083(0x15bfb)
1c004d24:	02a8518c 	addi.w	$r12,$r12,-1516(0xa14)
1c004d28:	1400000b 	lu12i.w	$r11,0
1c004d2c:	0280016b 	addi.w	$r11,$r11,0
1c004d30:	0048f58a 	srai.w	$r10,$r12,0x1d
1c004d34:	5c027d4b 	bne	$r10,$r11,636(0x27c) # 1c004fb0 <inst_error>
1c004d38:	15f0648c 	lu12i.w	$r12,-31964(0xf8324)
1c004d3c:	028b018c 	addi.w	$r12,$r12,704(0x2c0)
1c004d40:	1400000b 	lu12i.w	$r11,0
1c004d44:	02bffd6b 	addi.w	$r11,$r11,-1(0xfff)
1c004d48:	0048f18a 	srai.w	$r10,$r12,0x1c
1c004d4c:	5c02654b 	bne	$r10,$r11,612(0x264) # 1c004fb0 <inst_error>
1c004d50:	145d6fcc 	lu12i.w	$r12,191358(0x2eb7e)
1c004d54:	02b8018c 	addi.w	$r12,$r12,-512(0xe00)
1c004d58:	1400000b 	lu12i.w	$r11,0
1c004d5c:	0280016b 	addi.w	$r11,$r11,0
1c004d60:	0048fd8a 	srai.w	$r10,$r12,0x1f
1c004d64:	5c024d4b 	bne	$r10,$r11,588(0x24c) # 1c004fb0 <inst_error>
1c004d68:	1440126c 	lu12i.w	$r12,131219(0x20093)
1c004d6c:	028b818c 	addi.w	$r12,$r12,736(0x2e0)
1c004d70:	1400020b 	lu12i.w	$r11,16(0x10)
1c004d74:	0281256b 	addi.w	$r11,$r11,73(0x49)
1c004d78:	0048b58a 	srai.w	$r10,$r12,0xd
1c004d7c:	5c02354b 	bne	$r10,$r11,564(0x234) # 1c004fb0 <inst_error>
1c004d80:	14d6bfec 	lu12i.w	$r12,439807(0x6b5ff)
1c004d84:	02bf4d8c 	addi.w	$r12,$r12,-45(0xfd3)
1c004d88:	14006b6b 	lu12i.w	$r11,859(0x35b)
1c004d8c:	02bfdd6b 	addi.w	$r11,$r11,-9(0xff7)
1c004d90:	0048a58a 	srai.w	$r10,$r12,0x9
1c004d94:	5c021d4b 	bne	$r10,$r11,540(0x21c) # 1c004fb0 <inst_error>
1c004d98:	1518b08c 	lu12i.w	$r12,-473724(0x8c584)
1c004d9c:	02bd618c 	addi.w	$r12,$r12,-168(0xf58)
1c004da0:	15fff18b 	lu12i.w	$r11,-116(0xfff8c)
1c004da4:	02960d6b 	addi.w	$r11,$r11,1411(0x583)
1c004da8:	0048b18a 	srai.w	$r10,$r12,0xc
1c004dac:	5c02054b 	bne	$r10,$r11,516(0x204) # 1c004fb0 <inst_error>
1c004db0:	15ef7eec 	lu12i.w	$r12,-33801(0xf7bf7)
1c004db4:	02ab418c 	addi.w	$r12,$r12,-1328(0xad0)
1c004db8:	1400000b 	lu12i.w	$r11,0
1c004dbc:	02bffd6b 	addi.w	$r11,$r11,-1(0xfff)
1c004dc0:	0048f58a 	srai.w	$r10,$r12,0x1d
1c004dc4:	5c01ed4b 	bne	$r10,$r11,492(0x1ec) # 1c004fb0 <inst_error>
1c004dc8:	147f944c 	lu12i.w	$r12,261282(0x3fca2)
1c004dcc:	02be798c 	addi.w	$r12,$r12,-98(0xf9e)
1c004dd0:	141fe50b 	lu12i.w	$r11,65320(0xff28)
1c004dd4:	029f9d6b 	addi.w	$r11,$r11,2023(0x7e7)
1c004dd8:	0048898a 	srai.w	$r10,$r12,0x2
1c004ddc:	5c01d54b 	bne	$r10,$r11,468(0x1d4) # 1c004fb0 <inst_error>
1c004de0:	14ce69ec 	lu12i.w	$r12,422735(0x6734f)
1c004de4:	0298918c 	addi.w	$r12,$r12,1572(0x624)
1c004de8:	140000cb 	lu12i.w	$r11,6(0x6)
1c004dec:	029cd16b 	addi.w	$r11,$r11,1844(0x734)
1c004df0:	0048c18a 	srai.w	$r10,$r12,0x10
1c004df4:	5c01bd4b 	bne	$r10,$r11,444(0x1bc) # 1c004fb0 <inst_error>
1c004df8:	159291ac 	lu12i.w	$r12,-224115(0xc948d)
1c004dfc:	0283d58c 	addi.w	$r12,$r12,245(0xf5)
1c004e00:	15ffffab 	lu12i.w	$r11,-3(0xffffd)
1c004e04:	02a5216b 	addi.w	$r11,$r11,-1720(0x948)
1c004e08:	0048c18a 	srai.w	$r10,$r12,0x10
1c004e0c:	5c01a54b 	bne	$r10,$r11,420(0x1a4) # 1c004fb0 <inst_error>
1c004e10:	1450390c 	lu12i.w	$r12,164296(0x281c8)
1c004e14:	029c958c 	addi.w	$r12,$r12,1829(0x725)
1c004e18:	1400002b 	lu12i.w	$r11,1(0x1)
1c004e1c:	0290396b 	addi.w	$r11,$r11,1038(0x40e)
1c004e20:	0048c58a 	srai.w	$r10,$r12,0x11
1c004e24:	5c018d4b 	bne	$r10,$r11,396(0x18c) # 1c004fb0 <inst_error>
1c004e28:	15933f6c 	lu12i.w	$r12,-222725(0xc99fb)
1c004e2c:	02b0998c 	addi.w	$r12,$r12,-986(0xc26)
1c004e30:	1400000b 	lu12i.w	$r11,0
1c004e34:	02be4d6b 	addi.w	$r11,$r11,-109(0xf93)
1c004e38:	0048dd8a 	srai.w	$r10,$r12,0x17
1c004e3c:	5c01754b 	bne	$r10,$r11,372(0x174) # 1c004fb0 <inst_error>
1c004e40:	1474968c 	lu12i.w	$r12,238772(0x3a4b4)
1c004e44:	02b4798c 	addi.w	$r12,$r12,-738(0xd1e)
1c004e48:	1474968b 	lu12i.w	$r11,238772(0x3a4b4)
1c004e4c:	02b4796b 	addi.w	$r11,$r11,-738(0xd1e)
1c004e50:	0048818a 	srai.w	$r10,$r12,0x0
1c004e54:	5c015d4b 	bne	$r10,$r11,348(0x15c) # 1c004fb0 <inst_error>
1c004e58:	1509b4ec 	lu12i.w	$r12,-504409(0x84da7)
1c004e5c:	02bb018c 	addi.w	$r12,$r12,-320(0xec0)
1c004e60:	15f09b4b 	lu12i.w	$r11,-31526(0xf84da)
1c004e64:	029bb16b 	addi.w	$r11,$r11,1772(0x6ec)
1c004e68:	0048918a 	srai.w	$r10,$r12,0x4
1c004e6c:	5c01454b 	bne	$r10,$r11,324(0x144) # 1c004fb0 <inst_error>
1c004e70:	144980ac 	lu12i.w	$r12,150533(0x24c05)
1c004e74:	02aae18c 	addi.w	$r12,$r12,-1352(0xab8)
1c004e78:	1400000b 	lu12i.w	$r11,0
1c004e7c:	02824d6b 	addi.w	$r11,$r11,147(0x93)
1c004e80:	0048d98a 	srai.w	$r10,$r12,0x16
1c004e84:	5c012d4b 	bne	$r10,$r11,300(0x12c) # 1c004fb0 <inst_error>
1c004e88:	140dcecc 	lu12i.w	$r12,28278(0x6e76)
1c004e8c:	02b11d8c 	addi.w	$r12,$r12,-953(0xc47)
1c004e90:	1400000b 	lu12i.w	$r11,0
1c004e94:	0283716b 	addi.w	$r11,$r11,220(0xdc)
1c004e98:	0048cd8a 	srai.w	$r10,$r12,0x13
1c004e9c:	5c01154b 	bne	$r10,$r11,276(0x114) # 1c004fb0 <inst_error>
1c004ea0:	15302b4c 	lu12i.w	$r12,-425638(0x9815a)
1c004ea4:	0292d18c 	addi.w	$r12,$r12,1204(0x4b4)
1c004ea8:	15ffffcb 	lu12i.w	$r11,-2(0xffffe)
1c004eac:	0298156b 	addi.w	$r11,$r11,1541(0x605)
1c004eb0:	0048c98a 	srai.w	$r10,$r12,0x12
1c004eb4:	5c00fd4b 	bne	$r10,$r11,252(0xfc) # 1c004fb0 <inst_error>
1c004eb8:	15abf44c 	lu12i.w	$r12,-172126(0xd5fa2)
1c004ebc:	02b0898c 	addi.w	$r12,$r12,-990(0xc22)
1c004ec0:	15ffff6b 	lu12i.w	$r11,-5(0xffffb)
1c004ec4:	02afd16b 	addi.w	$r11,$r11,-1036(0xbf4)
1c004ec8:	0048bd8a 	srai.w	$r10,$r12,0xf
1c004ecc:	5c00e54b 	bne	$r10,$r11,228(0xe4) # 1c004fb0 <inst_error>
1c004ed0:	1400000c 	lu12i.w	$r12,0
1c004ed4:	0280018c 	addi.w	$r12,$r12,0
1c004ed8:	1400000b 	lu12i.w	$r11,0
1c004edc:	0280016b 	addi.w	$r11,$r11,0
1c004ee0:	0048d98a 	srai.w	$r10,$r12,0x16
1c004ee4:	5c00cd4b 	bne	$r10,$r11,204(0xcc) # 1c004fb0 <inst_error>
1c004ee8:	1400000c 	lu12i.w	$r12,0
1c004eec:	0280018c 	addi.w	$r12,$r12,0
1c004ef0:	1400000b 	lu12i.w	$r11,0
1c004ef4:	0280016b 	addi.w	$r11,$r11,0
1c004ef8:	0048d18a 	srai.w	$r10,$r12,0x14
1c004efc:	5c00b54b 	bne	$r10,$r11,180(0xb4) # 1c004fb0 <inst_error>
1c004f00:	1400000c 	lu12i.w	$r12,0
1c004f04:	0280018c 	addi.w	$r12,$r12,0
1c004f08:	1400000b 	lu12i.w	$r11,0
1c004f0c:	0280016b 	addi.w	$r11,$r11,0
1c004f10:	0048bd8a 	srai.w	$r10,$r12,0xf
1c004f14:	5c009d4b 	bne	$r10,$r11,156(0x9c) # 1c004fb0 <inst_error>
1c004f18:	1400000c 	lu12i.w	$r12,0
1c004f1c:	0280018c 	addi.w	$r12,$r12,0
1c004f20:	1400000b 	lu12i.w	$r11,0
1c004f24:	0280016b 	addi.w	$r11,$r11,0
1c004f28:	0048d58a 	srai.w	$r10,$r12,0x15
1c004f2c:	5c00854b 	bne	$r10,$r11,132(0x84) # 1c004fb0 <inst_error>
1c004f30:	1400000c 	lu12i.w	$r12,0
1c004f34:	0280018c 	addi.w	$r12,$r12,0
1c004f38:	1400000b 	lu12i.w	$r11,0
1c004f3c:	0280016b 	addi.w	$r11,$r11,0
1c004f40:	0048e98a 	srai.w	$r10,$r12,0x1a
1c004f44:	5c006d4b 	bne	$r10,$r11,108(0x6c) # 1c004fb0 <inst_error>
1c004f48:	1400000c 	lu12i.w	$r12,0
1c004f4c:	0280018c 	addi.w	$r12,$r12,0
1c004f50:	1400000b 	lu12i.w	$r11,0
1c004f54:	0280016b 	addi.w	$r11,$r11,0
1c004f58:	0048858a 	srai.w	$r10,$r12,0x1
1c004f5c:	5c00554b 	bne	$r10,$r11,84(0x54) # 1c004fb0 <inst_error>
1c004f60:	1400000c 	lu12i.w	$r12,0
1c004f64:	0280018c 	addi.w	$r12,$r12,0
1c004f68:	1400000b 	lu12i.w	$r11,0
1c004f6c:	0280016b 	addi.w	$r11,$r11,0
1c004f70:	0048a58a 	srai.w	$r10,$r12,0x9
1c004f74:	5c003d4b 	bne	$r10,$r11,60(0x3c) # 1c004fb0 <inst_error>
1c004f78:	1400000c 	lu12i.w	$r12,0
1c004f7c:	0280018c 	addi.w	$r12,$r12,0
1c004f80:	1400000b 	lu12i.w	$r11,0
1c004f84:	0280016b 	addi.w	$r11,$r11,0
1c004f88:	0048d98a 	srai.w	$r10,$r12,0x16
1c004f8c:	5c00254b 	bne	$r10,$r11,36(0x24) # 1c004fb0 <inst_error>
1c004f90:	1400000c 	lu12i.w	$r12,0
1c004f94:	0280018c 	addi.w	$r12,$r12,0
1c004f98:	1400000b 	lu12i.w	$r11,0
1c004f9c:	0280016b 	addi.w	$r11,$r11,0
1c004fa0:	0048818a 	srai.w	$r10,$r12,0x0
1c004fa4:	5c000d4b 	bne	$r10,$r11,12(0xc) # 1c004fb0 <inst_error>
1c004fa8:	5c000b20 	bne	$r25,$r0,8(0x8) # 1c004fb0 <inst_error>
1c004fac:	0280075a 	addi.w	$r26,$r26,1(0x1)

1c004fb0 <inst_error>:
1c004fb0:	0040e2ed 	slli.w	$r13,$r23,0x18
1c004fb4:	001569ac 	or	$r12,$r13,$r26
1c004fb8:	2980030c 	st.w	$r12,$r24,0
1c004fbc:	4c000020 	jirl	$r0,$r1,0

1c004fc0 <n20_b_test>:
n20_b_test():
1c004fc0:	028006f7 	addi.w	$r23,$r23,1(0x1)
1c004fc4:	00150019 	move	$r25,$r0
1c004fc8:	15187c50 	lu12i.w	$r16,-474142(0x8c3e2)
1c004fcc:	02bbea10 	addi.w	$r16,$r16,-262(0xefa)
1c004fd0:	15d657b1 	lu12i.w	$r17,-85315(0xeb2bd)
1c004fd4:	0295f231 	addi.w	$r17,$r17,1404(0x57c)
1c004fd8:	1400000a 	lu12i.w	$r10,0
1c004fdc:	1400000b 	lu12i.w	$r11,0
1c004fe0:	50001400 	b	20(0x14) # 1c004ff4 <n20_b_test+0x34>
1c004fe4:	15187c4a 	lu12i.w	$r10,-474142(0x8c3e2)
1c004fe8:	02bbe94a 	addi.w	$r10,$r10,-262(0xefa)
1c004fec:	50001000 	b	16(0x10) # 1c004ffc <n20_b_test+0x3c>
1c004ff0:	50001400 	b	20(0x14) # 1c005004 <n20_b_test+0x44>
1c004ff4:	53fff3ff 	b	-16(0xffffff0) # 1c004fe4 <n20_b_test+0x24>
1c004ff8:	50000c00 	b	12(0xc) # 1c005004 <n20_b_test+0x44>
1c004ffc:	15d657ab 	lu12i.w	$r11,-85315(0xeb2bd)
1c005000:	0295f16b 	addi.w	$r11,$r11,1404(0x57c)
1c005004:	15187c51 	lu12i.w	$r17,-474142(0x8c3e2)
1c005008:	02bbea31 	addi.w	$r17,$r17,-262(0xefa)
1c00500c:	15d657b0 	lu12i.w	$r16,-85315(0xeb2bd)
1c005010:	0295f210 	addi.w	$r16,$r16,1404(0x57c)
1c005014:	5c0cdd51 	bne	$r10,$r17,3292(0xcdc) # 1c005cf0 <inst_error>
1c005018:	5c0cd970 	bne	$r11,$r16,3288(0xcd8) # 1c005cf0 <inst_error>
1c00501c:	15f783f0 	lu12i.w	$r16,-17377(0xfbc1f)
1c005020:	02974210 	addi.w	$r16,$r16,1488(0x5d0)
1c005024:	15723791 	lu12i.w	$r17,-290372(0xb91bc)
1c005028:	0282c231 	addi.w	$r17,$r17,176(0xb0)
1c00502c:	1400000a 	lu12i.w	$r10,0
1c005030:	1400000b 	lu12i.w	$r11,0
1c005034:	50001400 	b	20(0x14) # 1c005048 <n20_b_test+0x88>
1c005038:	15f783ea 	lu12i.w	$r10,-17377(0xfbc1f)
1c00503c:	0297414a 	addi.w	$r10,$r10,1488(0x5d0)
1c005040:	50001000 	b	16(0x10) # 1c005050 <n20_b_test+0x90>
1c005044:	50001400 	b	20(0x14) # 1c005058 <n20_b_test+0x98>
1c005048:	53fff3ff 	b	-16(0xffffff0) # 1c005038 <n20_b_test+0x78>
1c00504c:	50000c00 	b	12(0xc) # 1c005058 <n20_b_test+0x98>
1c005050:	1572378b 	lu12i.w	$r11,-290372(0xb91bc)
1c005054:	0282c16b 	addi.w	$r11,$r11,176(0xb0)
1c005058:	15f783f1 	lu12i.w	$r17,-17377(0xfbc1f)
1c00505c:	02974231 	addi.w	$r17,$r17,1488(0x5d0)
1c005060:	15723790 	lu12i.w	$r16,-290372(0xb91bc)
1c005064:	0282c210 	addi.w	$r16,$r16,176(0xb0)
1c005068:	5c0c8951 	bne	$r10,$r17,3208(0xc88) # 1c005cf0 <inst_error>
1c00506c:	5c0c8570 	bne	$r11,$r16,3204(0xc84) # 1c005cf0 <inst_error>
1c005070:	15820c50 	lu12i.w	$r16,-257950(0xc1062)
1c005074:	028d5a10 	addi.w	$r16,$r16,854(0x356)
1c005078:	15f1ac31 	lu12i.w	$r17,-29343(0xf8d61)
1c00507c:	02b18231 	addi.w	$r17,$r17,-928(0xc60)
1c005080:	1400000a 	lu12i.w	$r10,0
1c005084:	1400000b 	lu12i.w	$r11,0
1c005088:	50001400 	b	20(0x14) # 1c00509c <n20_b_test+0xdc>
1c00508c:	15820c4a 	lu12i.w	$r10,-257950(0xc1062)
1c005090:	028d594a 	addi.w	$r10,$r10,854(0x356)
1c005094:	50001000 	b	16(0x10) # 1c0050a4 <n20_b_test+0xe4>
1c005098:	50001400 	b	20(0x14) # 1c0050ac <n20_b_test+0xec>
1c00509c:	53fff3ff 	b	-16(0xffffff0) # 1c00508c <n20_b_test+0xcc>
1c0050a0:	50000c00 	b	12(0xc) # 1c0050ac <n20_b_test+0xec>
1c0050a4:	15f1ac2b 	lu12i.w	$r11,-29343(0xf8d61)
1c0050a8:	02b1816b 	addi.w	$r11,$r11,-928(0xc60)
1c0050ac:	15820c51 	lu12i.w	$r17,-257950(0xc1062)
1c0050b0:	028d5a31 	addi.w	$r17,$r17,854(0x356)
1c0050b4:	15f1ac30 	lu12i.w	$r16,-29343(0xf8d61)
1c0050b8:	02b18210 	addi.w	$r16,$r16,-928(0xc60)
1c0050bc:	5c0c3551 	bne	$r10,$r17,3124(0xc34) # 1c005cf0 <inst_error>
1c0050c0:	5c0c3170 	bne	$r11,$r16,3120(0xc30) # 1c005cf0 <inst_error>
1c0050c4:	14165bb0 	lu12i.w	$r16,45789(0xb2dd)
1c0050c8:	02a39210 	addi.w	$r16,$r16,-1820(0x8e4)
1c0050cc:	15fe4ef1 	lu12i.w	$r17,-3465(0xff277)
1c0050d0:	02b4be31 	addi.w	$r17,$r17,-721(0xd2f)
1c0050d4:	1400000a 	lu12i.w	$r10,0
1c0050d8:	1400000b 	lu12i.w	$r11,0
1c0050dc:	50001400 	b	20(0x14) # 1c0050f0 <n20_b_test+0x130>
1c0050e0:	14165baa 	lu12i.w	$r10,45789(0xb2dd)
1c0050e4:	02a3914a 	addi.w	$r10,$r10,-1820(0x8e4)
1c0050e8:	50001000 	b	16(0x10) # 1c0050f8 <n20_b_test+0x138>
1c0050ec:	50001400 	b	20(0x14) # 1c005100 <n20_b_test+0x140>
1c0050f0:	53fff3ff 	b	-16(0xffffff0) # 1c0050e0 <n20_b_test+0x120>
1c0050f4:	50000c00 	b	12(0xc) # 1c005100 <n20_b_test+0x140>
1c0050f8:	15fe4eeb 	lu12i.w	$r11,-3465(0xff277)
1c0050fc:	02b4bd6b 	addi.w	$r11,$r11,-721(0xd2f)
1c005100:	14165bb1 	lu12i.w	$r17,45789(0xb2dd)
1c005104:	02a39231 	addi.w	$r17,$r17,-1820(0x8e4)
1c005108:	15fe4ef0 	lu12i.w	$r16,-3465(0xff277)
1c00510c:	02b4be10 	addi.w	$r16,$r16,-721(0xd2f)
1c005110:	5c0be151 	bne	$r10,$r17,3040(0xbe0) # 1c005cf0 <inst_error>
1c005114:	5c0bdd70 	bne	$r11,$r16,3036(0xbdc) # 1c005cf0 <inst_error>
1c005118:	14625f70 	lu12i.w	$r16,201467(0x312fb)
1c00511c:	02af6610 	addi.w	$r16,$r16,-1063(0xbd9)
1c005120:	152e0711 	lu12i.w	$r17,-430024(0x97038)
1c005124:	029eb231 	addi.w	$r17,$r17,1964(0x7ac)
1c005128:	1400000a 	lu12i.w	$r10,0
1c00512c:	1400000b 	lu12i.w	$r11,0
1c005130:	50001400 	b	20(0x14) # 1c005144 <n20_b_test+0x184>
1c005134:	14625f6a 	lu12i.w	$r10,201467(0x312fb)
1c005138:	02af654a 	addi.w	$r10,$r10,-1063(0xbd9)
1c00513c:	50001000 	b	16(0x10) # 1c00514c <n20_b_test+0x18c>
1c005140:	50001400 	b	20(0x14) # 1c005154 <n20_b_test+0x194>
1c005144:	53fff3ff 	b	-16(0xffffff0) # 1c005134 <n20_b_test+0x174>
1c005148:	50000c00 	b	12(0xc) # 1c005154 <n20_b_test+0x194>
1c00514c:	152e070b 	lu12i.w	$r11,-430024(0x97038)
1c005150:	029eb16b 	addi.w	$r11,$r11,1964(0x7ac)
1c005154:	14625f71 	lu12i.w	$r17,201467(0x312fb)
1c005158:	02af6631 	addi.w	$r17,$r17,-1063(0xbd9)
1c00515c:	152e0710 	lu12i.w	$r16,-430024(0x97038)
1c005160:	029eb210 	addi.w	$r16,$r16,1964(0x7ac)
1c005164:	5c0b8d51 	bne	$r10,$r17,2956(0xb8c) # 1c005cf0 <inst_error>
1c005168:	5c0b8970 	bne	$r11,$r16,2952(0xb88) # 1c005cf0 <inst_error>
1c00516c:	148c6c30 	lu12i.w	$r16,287585(0x46361)
1c005170:	02a9a210 	addi.w	$r16,$r16,-1432(0xa68)
1c005174:	15f207f1 	lu12i.w	$r17,-28609(0xf903f)
1c005178:	02973631 	addi.w	$r17,$r17,1485(0x5cd)
1c00517c:	1400000a 	lu12i.w	$r10,0
1c005180:	1400000b 	lu12i.w	$r11,0
1c005184:	50001400 	b	20(0x14) # 1c005198 <n20_b_test+0x1d8>
1c005188:	148c6c2a 	lu12i.w	$r10,287585(0x46361)
1c00518c:	02a9a14a 	addi.w	$r10,$r10,-1432(0xa68)
1c005190:	50001000 	b	16(0x10) # 1c0051a0 <n20_b_test+0x1e0>
1c005194:	50001400 	b	20(0x14) # 1c0051a8 <n20_b_test+0x1e8>
1c005198:	53fff3ff 	b	-16(0xffffff0) # 1c005188 <n20_b_test+0x1c8>
1c00519c:	50000c00 	b	12(0xc) # 1c0051a8 <n20_b_test+0x1e8>
1c0051a0:	15f207eb 	lu12i.w	$r11,-28609(0xf903f)
1c0051a4:	0297356b 	addi.w	$r11,$r11,1485(0x5cd)
1c0051a8:	148c6c31 	lu12i.w	$r17,287585(0x46361)
1c0051ac:	02a9a231 	addi.w	$r17,$r17,-1432(0xa68)
1c0051b0:	15f207f0 	lu12i.w	$r16,-28609(0xf903f)
1c0051b4:	02973610 	addi.w	$r16,$r16,1485(0x5cd)
1c0051b8:	5c0b3951 	bne	$r10,$r17,2872(0xb38) # 1c005cf0 <inst_error>
1c0051bc:	5c0b3570 	bne	$r11,$r16,2868(0xb34) # 1c005cf0 <inst_error>
1c0051c0:	148398d0 	lu12i.w	$r16,269510(0x41cc6)
1c0051c4:	02982a10 	addi.w	$r16,$r16,1546(0x60a)
1c0051c8:	14a452d1 	lu12i.w	$r17,336534(0x52296)
1c0051cc:	02b37231 	addi.w	$r17,$r17,-804(0xcdc)
1c0051d0:	1400000a 	lu12i.w	$r10,0
1c0051d4:	1400000b 	lu12i.w	$r11,0
1c0051d8:	50001400 	b	20(0x14) # 1c0051ec <n20_b_test+0x22c>
1c0051dc:	148398ca 	lu12i.w	$r10,269510(0x41cc6)
1c0051e0:	0298294a 	addi.w	$r10,$r10,1546(0x60a)
1c0051e4:	50001000 	b	16(0x10) # 1c0051f4 <n20_b_test+0x234>
1c0051e8:	50001400 	b	20(0x14) # 1c0051fc <n20_b_test+0x23c>
1c0051ec:	53fff3ff 	b	-16(0xffffff0) # 1c0051dc <n20_b_test+0x21c>
1c0051f0:	50000c00 	b	12(0xc) # 1c0051fc <n20_b_test+0x23c>
1c0051f4:	14a452cb 	lu12i.w	$r11,336534(0x52296)
1c0051f8:	02b3716b 	addi.w	$r11,$r11,-804(0xcdc)
1c0051fc:	148398d1 	lu12i.w	$r17,269510(0x41cc6)
1c005200:	02982a31 	addi.w	$r17,$r17,1546(0x60a)
1c005204:	14a452d0 	lu12i.w	$r16,336534(0x52296)
1c005208:	02b37210 	addi.w	$r16,$r16,-804(0xcdc)
1c00520c:	5c0ae551 	bne	$r10,$r17,2788(0xae4) # 1c005cf0 <inst_error>
1c005210:	5c0ae170 	bne	$r11,$r16,2784(0xae0) # 1c005cf0 <inst_error>
1c005214:	1491f490 	lu12i.w	$r16,298916(0x48fa4)
1c005218:	02a81210 	addi.w	$r16,$r16,-1532(0xa04)
1c00521c:	14d2c6d1 	lu12i.w	$r17,431670(0x69636)
1c005220:	02849a31 	addi.w	$r17,$r17,294(0x126)
1c005224:	1400000a 	lu12i.w	$r10,0
1c005228:	1400000b 	lu12i.w	$r11,0
1c00522c:	50001400 	b	20(0x14) # 1c005240 <n20_b_test+0x280>
1c005230:	1491f48a 	lu12i.w	$r10,298916(0x48fa4)
1c005234:	02a8114a 	addi.w	$r10,$r10,-1532(0xa04)
1c005238:	50001000 	b	16(0x10) # 1c005248 <n20_b_test+0x288>
1c00523c:	50001400 	b	20(0x14) # 1c005250 <n20_b_test+0x290>
1c005240:	53fff3ff 	b	-16(0xffffff0) # 1c005230 <n20_b_test+0x270>
1c005244:	50000c00 	b	12(0xc) # 1c005250 <n20_b_test+0x290>
1c005248:	14d2c6cb 	lu12i.w	$r11,431670(0x69636)
1c00524c:	0284996b 	addi.w	$r11,$r11,294(0x126)
1c005250:	1491f491 	lu12i.w	$r17,298916(0x48fa4)
1c005254:	02a81231 	addi.w	$r17,$r17,-1532(0xa04)
1c005258:	14d2c6d0 	lu12i.w	$r16,431670(0x69636)
1c00525c:	02849a10 	addi.w	$r16,$r16,294(0x126)
1c005260:	5c0a9151 	bne	$r10,$r17,2704(0xa90) # 1c005cf0 <inst_error>
1c005264:	5c0a8d70 	bne	$r11,$r16,2700(0xa8c) # 1c005cf0 <inst_error>
1c005268:	1579afb0 	lu12i.w	$r16,-275075(0xbcd7d)
1c00526c:	02bfb210 	addi.w	$r16,$r16,-20(0xfec)
1c005270:	14ef3531 	lu12i.w	$r17,489897(0x779a9)
1c005274:	0297b231 	addi.w	$r17,$r17,1516(0x5ec)
1c005278:	1400000a 	lu12i.w	$r10,0
1c00527c:	1400000b 	lu12i.w	$r11,0
1c005280:	50001400 	b	20(0x14) # 1c005294 <n20_b_test+0x2d4>
1c005284:	1579afaa 	lu12i.w	$r10,-275075(0xbcd7d)
1c005288:	02bfb14a 	addi.w	$r10,$r10,-20(0xfec)
1c00528c:	50001000 	b	16(0x10) # 1c00529c <n20_b_test+0x2dc>
1c005290:	50001400 	b	20(0x14) # 1c0052a4 <n20_b_test+0x2e4>
1c005294:	53fff3ff 	b	-16(0xffffff0) # 1c005284 <n20_b_test+0x2c4>
1c005298:	50000c00 	b	12(0xc) # 1c0052a4 <n20_b_test+0x2e4>
1c00529c:	14ef352b 	lu12i.w	$r11,489897(0x779a9)
1c0052a0:	0297b16b 	addi.w	$r11,$r11,1516(0x5ec)
1c0052a4:	1579afb1 	lu12i.w	$r17,-275075(0xbcd7d)
1c0052a8:	02bfb231 	addi.w	$r17,$r17,-20(0xfec)
1c0052ac:	14ef3530 	lu12i.w	$r16,489897(0x779a9)
1c0052b0:	0297b210 	addi.w	$r16,$r16,1516(0x5ec)
1c0052b4:	5c0a3d51 	bne	$r10,$r17,2620(0xa3c) # 1c005cf0 <inst_error>
1c0052b8:	5c0a3970 	bne	$r11,$r16,2616(0xa38) # 1c005cf0 <inst_error>
1c0052bc:	14bf92d0 	lu12i.w	$r16,392342(0x5fc96)
1c0052c0:	028e2210 	addi.w	$r16,$r16,904(0x388)
1c0052c4:	15887891 	lu12i.w	$r17,-244796(0xc43c4)
1c0052c8:	02960231 	addi.w	$r17,$r17,1408(0x580)
1c0052cc:	1400000a 	lu12i.w	$r10,0
1c0052d0:	1400000b 	lu12i.w	$r11,0
1c0052d4:	50001400 	b	20(0x14) # 1c0052e8 <n20_b_test+0x328>
1c0052d8:	14bf92ca 	lu12i.w	$r10,392342(0x5fc96)
1c0052dc:	028e214a 	addi.w	$r10,$r10,904(0x388)
1c0052e0:	50001000 	b	16(0x10) # 1c0052f0 <n20_b_test+0x330>
1c0052e4:	50001400 	b	20(0x14) # 1c0052f8 <n20_b_test+0x338>
1c0052e8:	53fff3ff 	b	-16(0xffffff0) # 1c0052d8 <n20_b_test+0x318>
1c0052ec:	50000c00 	b	12(0xc) # 1c0052f8 <n20_b_test+0x338>
1c0052f0:	1588788b 	lu12i.w	$r11,-244796(0xc43c4)
1c0052f4:	0296016b 	addi.w	$r11,$r11,1408(0x580)
1c0052f8:	14bf92d1 	lu12i.w	$r17,392342(0x5fc96)
1c0052fc:	028e2231 	addi.w	$r17,$r17,904(0x388)
1c005300:	15887890 	lu12i.w	$r16,-244796(0xc43c4)
1c005304:	02960210 	addi.w	$r16,$r16,1408(0x580)
1c005308:	5c09e951 	bne	$r10,$r17,2536(0x9e8) # 1c005cf0 <inst_error>
1c00530c:	5c09e570 	bne	$r11,$r16,2532(0x9e4) # 1c005cf0 <inst_error>
1c005310:	145cd5b0 	lu12i.w	$r16,190125(0x2e6ad)
1c005314:	02acaa10 	addi.w	$r16,$r16,-1238(0xb2a)
1c005318:	147ff271 	lu12i.w	$r17,262035(0x3ff93)
1c00531c:	02839231 	addi.w	$r17,$r17,228(0xe4)
1c005320:	1400000a 	lu12i.w	$r10,0
1c005324:	1400000b 	lu12i.w	$r11,0
1c005328:	50001400 	b	20(0x14) # 1c00533c <n20_b_test+0x37c>
1c00532c:	145cd5aa 	lu12i.w	$r10,190125(0x2e6ad)
1c005330:	02aca94a 	addi.w	$r10,$r10,-1238(0xb2a)
1c005334:	50001000 	b	16(0x10) # 1c005344 <n20_b_test+0x384>
1c005338:	50001400 	b	20(0x14) # 1c00534c <n20_b_test+0x38c>
1c00533c:	53fff3ff 	b	-16(0xffffff0) # 1c00532c <n20_b_test+0x36c>
1c005340:	50000c00 	b	12(0xc) # 1c00534c <n20_b_test+0x38c>
1c005344:	147ff26b 	lu12i.w	$r11,262035(0x3ff93)
1c005348:	0283916b 	addi.w	$r11,$r11,228(0xe4)
1c00534c:	145cd5b1 	lu12i.w	$r17,190125(0x2e6ad)
1c005350:	02acaa31 	addi.w	$r17,$r17,-1238(0xb2a)
1c005354:	147ff270 	lu12i.w	$r16,262035(0x3ff93)
1c005358:	02839210 	addi.w	$r16,$r16,228(0xe4)
1c00535c:	5c099551 	bne	$r10,$r17,2452(0x994) # 1c005cf0 <inst_error>
1c005360:	5c099170 	bne	$r11,$r16,2448(0x990) # 1c005cf0 <inst_error>
1c005364:	14ae02d0 	lu12i.w	$r16,356374(0x57016)
1c005368:	02970210 	addi.w	$r16,$r16,1472(0x5c0)
1c00536c:	153097d1 	lu12i.w	$r17,-424770(0x984be)
1c005370:	02a1e231 	addi.w	$r17,$r17,-1928(0x878)
1c005374:	1400000a 	lu12i.w	$r10,0
1c005378:	1400000b 	lu12i.w	$r11,0
1c00537c:	50001400 	b	20(0x14) # 1c005390 <n20_b_test+0x3d0>
1c005380:	14ae02ca 	lu12i.w	$r10,356374(0x57016)
1c005384:	0297014a 	addi.w	$r10,$r10,1472(0x5c0)
1c005388:	50001000 	b	16(0x10) # 1c005398 <n20_b_test+0x3d8>
1c00538c:	50001400 	b	20(0x14) # 1c0053a0 <n20_b_test+0x3e0>
1c005390:	53fff3ff 	b	-16(0xffffff0) # 1c005380 <n20_b_test+0x3c0>
1c005394:	50000c00 	b	12(0xc) # 1c0053a0 <n20_b_test+0x3e0>
1c005398:	153097cb 	lu12i.w	$r11,-424770(0x984be)
1c00539c:	02a1e16b 	addi.w	$r11,$r11,-1928(0x878)
1c0053a0:	14ae02d1 	lu12i.w	$r17,356374(0x57016)
1c0053a4:	02970231 	addi.w	$r17,$r17,1472(0x5c0)
1c0053a8:	153097d0 	lu12i.w	$r16,-424770(0x984be)
1c0053ac:	02a1e210 	addi.w	$r16,$r16,-1928(0x878)
1c0053b0:	5c094151 	bne	$r10,$r17,2368(0x940) # 1c005cf0 <inst_error>
1c0053b4:	5c093d70 	bne	$r11,$r16,2364(0x93c) # 1c005cf0 <inst_error>
1c0053b8:	15103ad0 	lu12i.w	$r16,-491050(0x881d6)
1c0053bc:	02a00210 	addi.w	$r16,$r16,-2048(0x800)
1c0053c0:	14069cd1 	lu12i.w	$r17,13542(0x34e6)
1c0053c4:	02800231 	addi.w	$r17,$r17,0
1c0053c8:	1400000a 	lu12i.w	$r10,0
1c0053cc:	1400000b 	lu12i.w	$r11,0
1c0053d0:	50001400 	b	20(0x14) # 1c0053e4 <n20_b_test+0x424>
1c0053d4:	15103aca 	lu12i.w	$r10,-491050(0x881d6)
1c0053d8:	02a0014a 	addi.w	$r10,$r10,-2048(0x800)
1c0053dc:	50001000 	b	16(0x10) # 1c0053ec <n20_b_test+0x42c>
1c0053e0:	50001400 	b	20(0x14) # 1c0053f4 <n20_b_test+0x434>
1c0053e4:	53fff3ff 	b	-16(0xffffff0) # 1c0053d4 <n20_b_test+0x414>
1c0053e8:	50000c00 	b	12(0xc) # 1c0053f4 <n20_b_test+0x434>
1c0053ec:	14069ccb 	lu12i.w	$r11,13542(0x34e6)
1c0053f0:	0280016b 	addi.w	$r11,$r11,0
1c0053f4:	15103ad1 	lu12i.w	$r17,-491050(0x881d6)
1c0053f8:	02a00231 	addi.w	$r17,$r17,-2048(0x800)
1c0053fc:	14069cd0 	lu12i.w	$r16,13542(0x34e6)
1c005400:	02800210 	addi.w	$r16,$r16,0
1c005404:	5c08ed51 	bne	$r10,$r17,2284(0x8ec) # 1c005cf0 <inst_error>
1c005408:	5c08e970 	bne	$r11,$r16,2280(0x8e8) # 1c005cf0 <inst_error>
1c00540c:	1514b690 	lu12i.w	$r16,-481868(0x8a5b4)
1c005410:	02af8210 	addi.w	$r16,$r16,-1056(0xbe0)
1c005414:	157296d1 	lu12i.w	$r17,-289610(0xb94b6)
1c005418:	028dda31 	addi.w	$r17,$r17,886(0x376)
1c00541c:	1400000a 	lu12i.w	$r10,0
1c005420:	1400000b 	lu12i.w	$r11,0
1c005424:	50001400 	b	20(0x14) # 1c005438 <n20_b_test+0x478>
1c005428:	1514b68a 	lu12i.w	$r10,-481868(0x8a5b4)
1c00542c:	02af814a 	addi.w	$r10,$r10,-1056(0xbe0)
1c005430:	50001000 	b	16(0x10) # 1c005440 <n20_b_test+0x480>
1c005434:	50001400 	b	20(0x14) # 1c005448 <n20_b_test+0x488>
1c005438:	53fff3ff 	b	-16(0xffffff0) # 1c005428 <n20_b_test+0x468>
1c00543c:	50000c00 	b	12(0xc) # 1c005448 <n20_b_test+0x488>
1c005440:	157296cb 	lu12i.w	$r11,-289610(0xb94b6)
1c005444:	028dd96b 	addi.w	$r11,$r11,886(0x376)
1c005448:	1514b691 	lu12i.w	$r17,-481868(0x8a5b4)
1c00544c:	02af8231 	addi.w	$r17,$r17,-1056(0xbe0)
1c005450:	157296d0 	lu12i.w	$r16,-289610(0xb94b6)
1c005454:	028dda10 	addi.w	$r16,$r16,886(0x376)
1c005458:	5c089951 	bne	$r10,$r17,2200(0x898) # 1c005cf0 <inst_error>
1c00545c:	5c089570 	bne	$r11,$r16,2196(0x894) # 1c005cf0 <inst_error>
1c005460:	1516ebb0 	lu12i.w	$r16,-477347(0x8b75d)
1c005464:	02b94a10 	addi.w	$r16,$r16,-430(0xe52)
1c005468:	14276f51 	lu12i.w	$r17,80762(0x13b7a)
1c00546c:	029e0231 	addi.w	$r17,$r17,1920(0x780)
1c005470:	1400000a 	lu12i.w	$r10,0
1c005474:	1400000b 	lu12i.w	$r11,0
1c005478:	50001400 	b	20(0x14) # 1c00548c <n20_b_test+0x4cc>
1c00547c:	1516ebaa 	lu12i.w	$r10,-477347(0x8b75d)
1c005480:	02b9494a 	addi.w	$r10,$r10,-430(0xe52)
1c005484:	50001000 	b	16(0x10) # 1c005494 <n20_b_test+0x4d4>
1c005488:	50001400 	b	20(0x14) # 1c00549c <n20_b_test+0x4dc>
1c00548c:	53fff3ff 	b	-16(0xffffff0) # 1c00547c <n20_b_test+0x4bc>
1c005490:	50000c00 	b	12(0xc) # 1c00549c <n20_b_test+0x4dc>
1c005494:	14276f4b 	lu12i.w	$r11,80762(0x13b7a)
1c005498:	029e016b 	addi.w	$r11,$r11,1920(0x780)
1c00549c:	1516ebb1 	lu12i.w	$r17,-477347(0x8b75d)
1c0054a0:	02b94a31 	addi.w	$r17,$r17,-430(0xe52)
1c0054a4:	14276f50 	lu12i.w	$r16,80762(0x13b7a)
1c0054a8:	029e0210 	addi.w	$r16,$r16,1920(0x780)
1c0054ac:	5c084551 	bne	$r10,$r17,2116(0x844) # 1c005cf0 <inst_error>
1c0054b0:	5c084170 	bne	$r11,$r16,2112(0x840) # 1c005cf0 <inst_error>
1c0054b4:	15f9b630 	lu12i.w	$r16,-12879(0xfcdb1)
1c0054b8:	02886210 	addi.w	$r16,$r16,536(0x218)
1c0054bc:	15fe9071 	lu12i.w	$r17,-2941(0xff483)
1c0054c0:	0294e231 	addi.w	$r17,$r17,1336(0x538)
1c0054c4:	1400000a 	lu12i.w	$r10,0
1c0054c8:	1400000b 	lu12i.w	$r11,0
1c0054cc:	50001400 	b	20(0x14) # 1c0054e0 <n20_b_test+0x520>
1c0054d0:	15f9b62a 	lu12i.w	$r10,-12879(0xfcdb1)
1c0054d4:	0288614a 	addi.w	$r10,$r10,536(0x218)
1c0054d8:	50001000 	b	16(0x10) # 1c0054e8 <n20_b_test+0x528>
1c0054dc:	50001400 	b	20(0x14) # 1c0054f0 <n20_b_test+0x530>
1c0054e0:	53fff3ff 	b	-16(0xffffff0) # 1c0054d0 <n20_b_test+0x510>
1c0054e4:	50000c00 	b	12(0xc) # 1c0054f0 <n20_b_test+0x530>
1c0054e8:	15fe906b 	lu12i.w	$r11,-2941(0xff483)
1c0054ec:	0294e16b 	addi.w	$r11,$r11,1336(0x538)
1c0054f0:	15f9b631 	lu12i.w	$r17,-12879(0xfcdb1)
1c0054f4:	02886231 	addi.w	$r17,$r17,536(0x218)
1c0054f8:	15fe9070 	lu12i.w	$r16,-2941(0xff483)
1c0054fc:	0294e210 	addi.w	$r16,$r16,1336(0x538)
1c005500:	5c07f151 	bne	$r10,$r17,2032(0x7f0) # 1c005cf0 <inst_error>
1c005504:	5c07ed70 	bne	$r11,$r16,2028(0x7ec) # 1c005cf0 <inst_error>
1c005508:	1459c510 	lu12i.w	$r16,183848(0x2ce28)
1c00550c:	02a44a10 	addi.w	$r16,$r16,-1774(0x912)
1c005510:	15c225d1 	lu12i.w	$r17,-126674(0xe112e)
1c005514:	02b30231 	addi.w	$r17,$r17,-832(0xcc0)
1c005518:	1400000a 	lu12i.w	$r10,0
1c00551c:	1400000b 	lu12i.w	$r11,0
1c005520:	50001400 	b	20(0x14) # 1c005534 <n20_b_test+0x574>
1c005524:	1459c50a 	lu12i.w	$r10,183848(0x2ce28)
1c005528:	02a4494a 	addi.w	$r10,$r10,-1774(0x912)
1c00552c:	50001000 	b	16(0x10) # 1c00553c <n20_b_test+0x57c>
1c005530:	50001400 	b	20(0x14) # 1c005544 <n20_b_test+0x584>
1c005534:	53fff3ff 	b	-16(0xffffff0) # 1c005524 <n20_b_test+0x564>
1c005538:	50000c00 	b	12(0xc) # 1c005544 <n20_b_test+0x584>
1c00553c:	15c225cb 	lu12i.w	$r11,-126674(0xe112e)
1c005540:	02b3016b 	addi.w	$r11,$r11,-832(0xcc0)
1c005544:	1459c511 	lu12i.w	$r17,183848(0x2ce28)
1c005548:	02a44a31 	addi.w	$r17,$r17,-1774(0x912)
1c00554c:	15c225d0 	lu12i.w	$r16,-126674(0xe112e)
1c005550:	02b30210 	addi.w	$r16,$r16,-832(0xcc0)
1c005554:	5c079d51 	bne	$r10,$r17,1948(0x79c) # 1c005cf0 <inst_error>
1c005558:	5c079970 	bne	$r11,$r16,1944(0x798) # 1c005cf0 <inst_error>
1c00555c:	146917b0 	lu12i.w	$r16,215229(0x348bd)
1c005560:	02b0ca10 	addi.w	$r16,$r16,-974(0xc32)
1c005564:	155e29d1 	lu12i.w	$r17,-331442(0xaf14e)
1c005568:	02a23a31 	addi.w	$r17,$r17,-1906(0x88e)
1c00556c:	1400000a 	lu12i.w	$r10,0
1c005570:	1400000b 	lu12i.w	$r11,0
1c005574:	50001400 	b	20(0x14) # 1c005588 <n20_b_test+0x5c8>
1c005578:	146917aa 	lu12i.w	$r10,215229(0x348bd)
1c00557c:	02b0c94a 	addi.w	$r10,$r10,-974(0xc32)
1c005580:	50001000 	b	16(0x10) # 1c005590 <n20_b_test+0x5d0>
1c005584:	50001400 	b	20(0x14) # 1c005598 <n20_b_test+0x5d8>
1c005588:	53fff3ff 	b	-16(0xffffff0) # 1c005578 <n20_b_test+0x5b8>
1c00558c:	50000c00 	b	12(0xc) # 1c005598 <n20_b_test+0x5d8>
1c005590:	155e29cb 	lu12i.w	$r11,-331442(0xaf14e)
1c005594:	02a2396b 	addi.w	$r11,$r11,-1906(0x88e)
1c005598:	146917b1 	lu12i.w	$r17,215229(0x348bd)
1c00559c:	02b0ca31 	addi.w	$r17,$r17,-974(0xc32)
1c0055a0:	155e29d0 	lu12i.w	$r16,-331442(0xaf14e)
1c0055a4:	02a23a10 	addi.w	$r16,$r16,-1906(0x88e)
1c0055a8:	5c074951 	bne	$r10,$r17,1864(0x748) # 1c005cf0 <inst_error>
1c0055ac:	5c074570 	bne	$r11,$r16,1860(0x744) # 1c005cf0 <inst_error>
1c0055b0:	15581a50 	lu12i.w	$r16,-343854(0xac0d2)
1c0055b4:	02ae0a10 	addi.w	$r16,$r16,-1150(0xb82)
1c0055b8:	150b3951 	lu12i.w	$r17,-501302(0x859ca)
1c0055bc:	02be8231 	addi.w	$r17,$r17,-96(0xfa0)
1c0055c0:	1400000a 	lu12i.w	$r10,0
1c0055c4:	1400000b 	lu12i.w	$r11,0
1c0055c8:	50001400 	b	20(0x14) # 1c0055dc <n20_b_test+0x61c>
1c0055cc:	15581a4a 	lu12i.w	$r10,-343854(0xac0d2)
1c0055d0:	02ae094a 	addi.w	$r10,$r10,-1150(0xb82)
1c0055d4:	50001000 	b	16(0x10) # 1c0055e4 <n20_b_test+0x624>
1c0055d8:	50001400 	b	20(0x14) # 1c0055ec <n20_b_test+0x62c>
1c0055dc:	53fff3ff 	b	-16(0xffffff0) # 1c0055cc <n20_b_test+0x60c>
1c0055e0:	50000c00 	b	12(0xc) # 1c0055ec <n20_b_test+0x62c>
1c0055e4:	150b394b 	lu12i.w	$r11,-501302(0x859ca)
1c0055e8:	02be816b 	addi.w	$r11,$r11,-96(0xfa0)
1c0055ec:	15581a51 	lu12i.w	$r17,-343854(0xac0d2)
1c0055f0:	02ae0a31 	addi.w	$r17,$r17,-1150(0xb82)
1c0055f4:	150b3950 	lu12i.w	$r16,-501302(0x859ca)
1c0055f8:	02be8210 	addi.w	$r16,$r16,-96(0xfa0)
1c0055fc:	5c06f551 	bne	$r10,$r17,1780(0x6f4) # 1c005cf0 <inst_error>
1c005600:	5c06f170 	bne	$r11,$r16,1776(0x6f0) # 1c005cf0 <inst_error>
1c005604:	1452cf70 	lu12i.w	$r16,169595(0x2967b)
1c005608:	02a00210 	addi.w	$r16,$r16,-2048(0x800)
1c00560c:	1537cd11 	lu12i.w	$r17,-410008(0x9be68)
1c005610:	02a78231 	addi.w	$r17,$r17,-1568(0x9e0)
1c005614:	1400000a 	lu12i.w	$r10,0
1c005618:	1400000b 	lu12i.w	$r11,0
1c00561c:	50001400 	b	20(0x14) # 1c005630 <n20_b_test+0x670>
1c005620:	1452cf6a 	lu12i.w	$r10,169595(0x2967b)
1c005624:	02a0014a 	addi.w	$r10,$r10,-2048(0x800)
1c005628:	50001000 	b	16(0x10) # 1c005638 <n20_b_test+0x678>
1c00562c:	50001400 	b	20(0x14) # 1c005640 <n20_b_test+0x680>
1c005630:	53fff3ff 	b	-16(0xffffff0) # 1c005620 <n20_b_test+0x660>
1c005634:	50000c00 	b	12(0xc) # 1c005640 <n20_b_test+0x680>
1c005638:	1537cd0b 	lu12i.w	$r11,-410008(0x9be68)
1c00563c:	02a7816b 	addi.w	$r11,$r11,-1568(0x9e0)
1c005640:	1452cf71 	lu12i.w	$r17,169595(0x2967b)
1c005644:	02a00231 	addi.w	$r17,$r17,-2048(0x800)
1c005648:	1537cd10 	lu12i.w	$r16,-410008(0x9be68)
1c00564c:	02a78210 	addi.w	$r16,$r16,-1568(0x9e0)
1c005650:	5c06a151 	bne	$r10,$r17,1696(0x6a0) # 1c005cf0 <inst_error>
1c005654:	5c069d70 	bne	$r11,$r16,1692(0x69c) # 1c005cf0 <inst_error>
1c005658:	14a8d070 	lu12i.w	$r16,345731(0x54683)
1c00565c:	02ae6e10 	addi.w	$r16,$r16,-1125(0xb9b)
1c005660:	15ed5f91 	lu12i.w	$r17,-38148(0xf6afc)
1c005664:	0284c231 	addi.w	$r17,$r17,304(0x130)
1c005668:	1400000a 	lu12i.w	$r10,0
1c00566c:	1400000b 	lu12i.w	$r11,0
1c005670:	50001400 	b	20(0x14) # 1c005684 <n20_b_test+0x6c4>
1c005674:	14a8d06a 	lu12i.w	$r10,345731(0x54683)
1c005678:	02ae6d4a 	addi.w	$r10,$r10,-1125(0xb9b)
1c00567c:	50001000 	b	16(0x10) # 1c00568c <n20_b_test+0x6cc>
1c005680:	50001400 	b	20(0x14) # 1c005694 <n20_b_test+0x6d4>
1c005684:	53fff3ff 	b	-16(0xffffff0) # 1c005674 <n20_b_test+0x6b4>
1c005688:	50000c00 	b	12(0xc) # 1c005694 <n20_b_test+0x6d4>
1c00568c:	15ed5f8b 	lu12i.w	$r11,-38148(0xf6afc)
1c005690:	0284c16b 	addi.w	$r11,$r11,304(0x130)
1c005694:	14a8d071 	lu12i.w	$r17,345731(0x54683)
1c005698:	02ae6e31 	addi.w	$r17,$r17,-1125(0xb9b)
1c00569c:	15ed5f90 	lu12i.w	$r16,-38148(0xf6afc)
1c0056a0:	0284c210 	addi.w	$r16,$r16,304(0x130)
1c0056a4:	5c064d51 	bne	$r10,$r17,1612(0x64c) # 1c005cf0 <inst_error>
1c0056a8:	5c064970 	bne	$r11,$r16,1608(0x648) # 1c005cf0 <inst_error>
1c0056ac:	14a8d950 	lu12i.w	$r16,345802(0x546ca)
1c0056b0:	02a3c210 	addi.w	$r16,$r16,-1808(0x8f0)
1c0056b4:	14a97631 	lu12i.w	$r17,347057(0x54bb1)
1c0056b8:	02a81a31 	addi.w	$r17,$r17,-1530(0xa06)
1c0056bc:	1400000a 	lu12i.w	$r10,0
1c0056c0:	1400000b 	lu12i.w	$r11,0
1c0056c4:	50001400 	b	20(0x14) # 1c0056d8 <n20_b_test+0x718>
1c0056c8:	14a8d94a 	lu12i.w	$r10,345802(0x546ca)
1c0056cc:	02a3c14a 	addi.w	$r10,$r10,-1808(0x8f0)
1c0056d0:	50001000 	b	16(0x10) # 1c0056e0 <n20_b_test+0x720>
1c0056d4:	50001400 	b	20(0x14) # 1c0056e8 <n20_b_test+0x728>
1c0056d8:	53fff3ff 	b	-16(0xffffff0) # 1c0056c8 <n20_b_test+0x708>
1c0056dc:	50000c00 	b	12(0xc) # 1c0056e8 <n20_b_test+0x728>
1c0056e0:	14a9762b 	lu12i.w	$r11,347057(0x54bb1)
1c0056e4:	02a8196b 	addi.w	$r11,$r11,-1530(0xa06)
1c0056e8:	14a8d951 	lu12i.w	$r17,345802(0x546ca)
1c0056ec:	02a3c231 	addi.w	$r17,$r17,-1808(0x8f0)
1c0056f0:	14a97630 	lu12i.w	$r16,347057(0x54bb1)
1c0056f4:	02a81a10 	addi.w	$r16,$r16,-1530(0xa06)
1c0056f8:	5c05f951 	bne	$r10,$r17,1528(0x5f8) # 1c005cf0 <inst_error>
1c0056fc:	5c05f570 	bne	$r11,$r16,1524(0x5f4) # 1c005cf0 <inst_error>
1c005700:	1416a390 	lu12i.w	$r16,46364(0xb51c)
1c005704:	02bcfe10 	addi.w	$r16,$r16,-193(0xf3f)
1c005708:	14638471 	lu12i.w	$r17,203811(0x31c23)
1c00570c:	02bbf231 	addi.w	$r17,$r17,-260(0xefc)
1c005710:	1400000a 	lu12i.w	$r10,0
1c005714:	1400000b 	lu12i.w	$r11,0
1c005718:	50001400 	b	20(0x14) # 1c00572c <n20_b_test+0x76c>
1c00571c:	1416a38a 	lu12i.w	$r10,46364(0xb51c)
1c005720:	02bcfd4a 	addi.w	$r10,$r10,-193(0xf3f)
1c005724:	50001000 	b	16(0x10) # 1c005734 <n20_b_test+0x774>
1c005728:	50001400 	b	20(0x14) # 1c00573c <n20_b_test+0x77c>
1c00572c:	53fff3ff 	b	-16(0xffffff0) # 1c00571c <n20_b_test+0x75c>
1c005730:	50000c00 	b	12(0xc) # 1c00573c <n20_b_test+0x77c>
1c005734:	1463846b 	lu12i.w	$r11,203811(0x31c23)
1c005738:	02bbf16b 	addi.w	$r11,$r11,-260(0xefc)
1c00573c:	1416a391 	lu12i.w	$r17,46364(0xb51c)
1c005740:	02bcfe31 	addi.w	$r17,$r17,-193(0xf3f)
1c005744:	14638470 	lu12i.w	$r16,203811(0x31c23)
1c005748:	02bbf210 	addi.w	$r16,$r16,-260(0xefc)
1c00574c:	5c05a551 	bne	$r10,$r17,1444(0x5a4) # 1c005cf0 <inst_error>
1c005750:	5c05a170 	bne	$r11,$r16,1440(0x5a0) # 1c005cf0 <inst_error>
1c005754:	14095ab0 	lu12i.w	$r16,19157(0x4ad5)
1c005758:	02a16a10 	addi.w	$r16,$r16,-1958(0x85a)
1c00575c:	1473d0d1 	lu12i.w	$r17,237190(0x39e86)
1c005760:	02bd6631 	addi.w	$r17,$r17,-167(0xf59)
1c005764:	1400000a 	lu12i.w	$r10,0
1c005768:	1400000b 	lu12i.w	$r11,0
1c00576c:	50001400 	b	20(0x14) # 1c005780 <n20_b_test+0x7c0>
1c005770:	14095aaa 	lu12i.w	$r10,19157(0x4ad5)
1c005774:	02a1694a 	addi.w	$r10,$r10,-1958(0x85a)
1c005778:	50001000 	b	16(0x10) # 1c005788 <n20_b_test+0x7c8>
1c00577c:	50001400 	b	20(0x14) # 1c005790 <n20_b_test+0x7d0>
1c005780:	53fff3ff 	b	-16(0xffffff0) # 1c005770 <n20_b_test+0x7b0>
1c005784:	50000c00 	b	12(0xc) # 1c005790 <n20_b_test+0x7d0>
1c005788:	1473d0cb 	lu12i.w	$r11,237190(0x39e86)
1c00578c:	02bd656b 	addi.w	$r11,$r11,-167(0xf59)
1c005790:	14095ab1 	lu12i.w	$r17,19157(0x4ad5)
1c005794:	02a16a31 	addi.w	$r17,$r17,-1958(0x85a)
1c005798:	1473d0d0 	lu12i.w	$r16,237190(0x39e86)
1c00579c:	02bd6610 	addi.w	$r16,$r16,-167(0xf59)
1c0057a0:	5c055151 	bne	$r10,$r17,1360(0x550) # 1c005cf0 <inst_error>
1c0057a4:	5c054d70 	bne	$r11,$r16,1356(0x54c) # 1c005cf0 <inst_error>
1c0057a8:	15cfcaf0 	lu12i.w	$r16,-98729(0xe7e57)
1c0057ac:	029b6210 	addi.w	$r16,$r16,1752(0x6d8)
1c0057b0:	14d19431 	lu12i.w	$r17,429217(0x68ca1)
1c0057b4:	02b7e631 	addi.w	$r17,$r17,-519(0xdf9)
1c0057b8:	1400000a 	lu12i.w	$r10,0
1c0057bc:	1400000b 	lu12i.w	$r11,0
1c0057c0:	50001400 	b	20(0x14) # 1c0057d4 <n20_b_test+0x814>
1c0057c4:	15cfcaea 	lu12i.w	$r10,-98729(0xe7e57)
1c0057c8:	029b614a 	addi.w	$r10,$r10,1752(0x6d8)
1c0057cc:	50001000 	b	16(0x10) # 1c0057dc <n20_b_test+0x81c>
1c0057d0:	50001400 	b	20(0x14) # 1c0057e4 <n20_b_test+0x824>
1c0057d4:	53fff3ff 	b	-16(0xffffff0) # 1c0057c4 <n20_b_test+0x804>
1c0057d8:	50000c00 	b	12(0xc) # 1c0057e4 <n20_b_test+0x824>
1c0057dc:	14d1942b 	lu12i.w	$r11,429217(0x68ca1)
1c0057e0:	02b7e56b 	addi.w	$r11,$r11,-519(0xdf9)
1c0057e4:	15cfcaf1 	lu12i.w	$r17,-98729(0xe7e57)
1c0057e8:	029b6231 	addi.w	$r17,$r17,1752(0x6d8)
1c0057ec:	14d19430 	lu12i.w	$r16,429217(0x68ca1)
1c0057f0:	02b7e610 	addi.w	$r16,$r16,-519(0xdf9)
1c0057f4:	5c04fd51 	bne	$r10,$r17,1276(0x4fc) # 1c005cf0 <inst_error>
1c0057f8:	5c04f970 	bne	$r11,$r16,1272(0x4f8) # 1c005cf0 <inst_error>
1c0057fc:	157425b0 	lu12i.w	$r16,-286419(0xba12d)
1c005800:	02a4ba10 	addi.w	$r16,$r16,-1746(0x92e)
1c005804:	150aaf11 	lu12i.w	$r17,-502408(0x85578)
1c005808:	02b50a31 	addi.w	$r17,$r17,-702(0xd42)
1c00580c:	1400000a 	lu12i.w	$r10,0
1c005810:	1400000b 	lu12i.w	$r11,0
1c005814:	50001400 	b	20(0x14) # 1c005828 <n20_b_test+0x868>
1c005818:	157425aa 	lu12i.w	$r10,-286419(0xba12d)
1c00581c:	02a4b94a 	addi.w	$r10,$r10,-1746(0x92e)
1c005820:	50001000 	b	16(0x10) # 1c005830 <n20_b_test+0x870>
1c005824:	50001400 	b	20(0x14) # 1c005838 <n20_b_test+0x878>
1c005828:	53fff3ff 	b	-16(0xffffff0) # 1c005818 <n20_b_test+0x858>
1c00582c:	50000c00 	b	12(0xc) # 1c005838 <n20_b_test+0x878>
1c005830:	150aaf0b 	lu12i.w	$r11,-502408(0x85578)
1c005834:	02b5096b 	addi.w	$r11,$r11,-702(0xd42)
1c005838:	157425b1 	lu12i.w	$r17,-286419(0xba12d)
1c00583c:	02a4ba31 	addi.w	$r17,$r17,-1746(0x92e)
1c005840:	150aaf10 	lu12i.w	$r16,-502408(0x85578)
1c005844:	02b50a10 	addi.w	$r16,$r16,-702(0xd42)
1c005848:	5c04a951 	bne	$r10,$r17,1192(0x4a8) # 1c005cf0 <inst_error>
1c00584c:	5c04a570 	bne	$r11,$r16,1188(0x4a4) # 1c005cf0 <inst_error>
1c005850:	14807690 	lu12i.w	$r16,263092(0x403b4)
1c005854:	02916210 	addi.w	$r16,$r16,1112(0x458)
1c005858:	14d7d971 	lu12i.w	$r17,442059(0x6becb)
1c00585c:	029d5231 	addi.w	$r17,$r17,1876(0x754)
1c005860:	1400000a 	lu12i.w	$r10,0
1c005864:	1400000b 	lu12i.w	$r11,0
1c005868:	50001400 	b	20(0x14) # 1c00587c <n20_b_test+0x8bc>
1c00586c:	1480768a 	lu12i.w	$r10,263092(0x403b4)
1c005870:	0291614a 	addi.w	$r10,$r10,1112(0x458)
1c005874:	50001000 	b	16(0x10) # 1c005884 <n20_b_test+0x8c4>
1c005878:	50001400 	b	20(0x14) # 1c00588c <n20_b_test+0x8cc>
1c00587c:	53fff3ff 	b	-16(0xffffff0) # 1c00586c <n20_b_test+0x8ac>
1c005880:	50000c00 	b	12(0xc) # 1c00588c <n20_b_test+0x8cc>
1c005884:	14d7d96b 	lu12i.w	$r11,442059(0x6becb)
1c005888:	029d516b 	addi.w	$r11,$r11,1876(0x754)
1c00588c:	14807691 	lu12i.w	$r17,263092(0x403b4)
1c005890:	02916231 	addi.w	$r17,$r17,1112(0x458)
1c005894:	14d7d970 	lu12i.w	$r16,442059(0x6becb)
1c005898:	029d5210 	addi.w	$r16,$r16,1876(0x754)
1c00589c:	5c045551 	bne	$r10,$r17,1108(0x454) # 1c005cf0 <inst_error>
1c0058a0:	5c045170 	bne	$r11,$r16,1104(0x450) # 1c005cf0 <inst_error>
1c0058a4:	151edaf0 	lu12i.w	$r16,-461097(0x8f6d7)
1c0058a8:	02ad2210 	addi.w	$r16,$r16,-1208(0xb48)
1c0058ac:	15c2ac91 	lu12i.w	$r17,-125596(0xe1564)
1c0058b0:	02b8a231 	addi.w	$r17,$r17,-472(0xe28)
1c0058b4:	1400000a 	lu12i.w	$r10,0
1c0058b8:	1400000b 	lu12i.w	$r11,0
1c0058bc:	50001400 	b	20(0x14) # 1c0058d0 <n20_b_test+0x910>
1c0058c0:	151edaea 	lu12i.w	$r10,-461097(0x8f6d7)
1c0058c4:	02ad214a 	addi.w	$r10,$r10,-1208(0xb48)
1c0058c8:	50001000 	b	16(0x10) # 1c0058d8 <n20_b_test+0x918>
1c0058cc:	50001400 	b	20(0x14) # 1c0058e0 <n20_b_test+0x920>
1c0058d0:	53fff3ff 	b	-16(0xffffff0) # 1c0058c0 <n20_b_test+0x900>
1c0058d4:	50000c00 	b	12(0xc) # 1c0058e0 <n20_b_test+0x920>
1c0058d8:	15c2ac8b 	lu12i.w	$r11,-125596(0xe1564)
1c0058dc:	02b8a16b 	addi.w	$r11,$r11,-472(0xe28)
1c0058e0:	151edaf1 	lu12i.w	$r17,-461097(0x8f6d7)
1c0058e4:	02ad2231 	addi.w	$r17,$r17,-1208(0xb48)
1c0058e8:	15c2ac90 	lu12i.w	$r16,-125596(0xe1564)
1c0058ec:	02b8a210 	addi.w	$r16,$r16,-472(0xe28)
1c0058f0:	5c040151 	bne	$r10,$r17,1024(0x400) # 1c005cf0 <inst_error>
1c0058f4:	5c03fd70 	bne	$r11,$r16,1020(0x3fc) # 1c005cf0 <inst_error>
1c0058f8:	15683a70 	lu12i.w	$r16,-310829(0xb41d3)
1c0058fc:	02880e10 	addi.w	$r16,$r16,515(0x203)
1c005900:	152c6551 	lu12i.w	$r17,-433366(0x9632a)
1c005904:	02ba0231 	addi.w	$r17,$r17,-384(0xe80)
1c005908:	1400000a 	lu12i.w	$r10,0
1c00590c:	1400000b 	lu12i.w	$r11,0
1c005910:	50001400 	b	20(0x14) # 1c005924 <n20_b_test+0x964>
1c005914:	15683a6a 	lu12i.w	$r10,-310829(0xb41d3)
1c005918:	02880d4a 	addi.w	$r10,$r10,515(0x203)
1c00591c:	50001000 	b	16(0x10) # 1c00592c <n20_b_test+0x96c>
1c005920:	50001400 	b	20(0x14) # 1c005934 <n20_b_test+0x974>
1c005924:	53fff3ff 	b	-16(0xffffff0) # 1c005914 <n20_b_test+0x954>
1c005928:	50000c00 	b	12(0xc) # 1c005934 <n20_b_test+0x974>
1c00592c:	152c654b 	lu12i.w	$r11,-433366(0x9632a)
1c005930:	02ba016b 	addi.w	$r11,$r11,-384(0xe80)
1c005934:	15683a71 	lu12i.w	$r17,-310829(0xb41d3)
1c005938:	02880e31 	addi.w	$r17,$r17,515(0x203)
1c00593c:	152c6550 	lu12i.w	$r16,-433366(0x9632a)
1c005940:	02ba0210 	addi.w	$r16,$r16,-384(0xe80)
1c005944:	5c03ad51 	bne	$r10,$r17,940(0x3ac) # 1c005cf0 <inst_error>
1c005948:	5c03a970 	bne	$r11,$r16,936(0x3a8) # 1c005cf0 <inst_error>
1c00594c:	15cd5db0 	lu12i.w	$r16,-103699(0xe6aed)
1c005950:	02a32e10 	addi.w	$r16,$r16,-1845(0x8cb)
1c005954:	144fded1 	lu12i.w	$r17,163574(0x27ef6)
1c005958:	02bd6e31 	addi.w	$r17,$r17,-165(0xf5b)
1c00595c:	1400000a 	lu12i.w	$r10,0
1c005960:	1400000b 	lu12i.w	$r11,0
1c005964:	50001400 	b	20(0x14) # 1c005978 <n20_b_test+0x9b8>
1c005968:	15cd5daa 	lu12i.w	$r10,-103699(0xe6aed)
1c00596c:	02a32d4a 	addi.w	$r10,$r10,-1845(0x8cb)
1c005970:	50001000 	b	16(0x10) # 1c005980 <n20_b_test+0x9c0>
1c005974:	50001400 	b	20(0x14) # 1c005988 <n20_b_test+0x9c8>
1c005978:	53fff3ff 	b	-16(0xffffff0) # 1c005968 <n20_b_test+0x9a8>
1c00597c:	50000c00 	b	12(0xc) # 1c005988 <n20_b_test+0x9c8>
1c005980:	144fdecb 	lu12i.w	$r11,163574(0x27ef6)
1c005984:	02bd6d6b 	addi.w	$r11,$r11,-165(0xf5b)
1c005988:	15cd5db1 	lu12i.w	$r17,-103699(0xe6aed)
1c00598c:	02a32e31 	addi.w	$r17,$r17,-1845(0x8cb)
1c005990:	144fded0 	lu12i.w	$r16,163574(0x27ef6)
1c005994:	02bd6e10 	addi.w	$r16,$r16,-165(0xf5b)
1c005998:	5c035951 	bne	$r10,$r17,856(0x358) # 1c005cf0 <inst_error>
1c00599c:	5c035570 	bne	$r11,$r16,852(0x354) # 1c005cf0 <inst_error>
1c0059a0:	14bddbd0 	lu12i.w	$r16,388830(0x5eede)
1c0059a4:	02b84210 	addi.w	$r16,$r16,-496(0xe10)
1c0059a8:	1529d691 	lu12i.w	$r17,-438604(0x94eb4)
1c0059ac:	02a11231 	addi.w	$r17,$r17,-1980(0x844)
1c0059b0:	1400000a 	lu12i.w	$r10,0
1c0059b4:	1400000b 	lu12i.w	$r11,0
1c0059b8:	50001400 	b	20(0x14) # 1c0059cc <n20_b_test+0xa0c>
1c0059bc:	14bddbca 	lu12i.w	$r10,388830(0x5eede)
1c0059c0:	02b8414a 	addi.w	$r10,$r10,-496(0xe10)
1c0059c4:	50001000 	b	16(0x10) # 1c0059d4 <n20_b_test+0xa14>
1c0059c8:	50001400 	b	20(0x14) # 1c0059dc <n20_b_test+0xa1c>
1c0059cc:	53fff3ff 	b	-16(0xffffff0) # 1c0059bc <n20_b_test+0x9fc>
1c0059d0:	50000c00 	b	12(0xc) # 1c0059dc <n20_b_test+0xa1c>
1c0059d4:	1529d68b 	lu12i.w	$r11,-438604(0x94eb4)
1c0059d8:	02a1116b 	addi.w	$r11,$r11,-1980(0x844)
1c0059dc:	14bddbd1 	lu12i.w	$r17,388830(0x5eede)
1c0059e0:	02b84231 	addi.w	$r17,$r17,-496(0xe10)
1c0059e4:	1529d690 	lu12i.w	$r16,-438604(0x94eb4)
1c0059e8:	02a11210 	addi.w	$r16,$r16,-1980(0x844)
1c0059ec:	5c030551 	bne	$r10,$r17,772(0x304) # 1c005cf0 <inst_error>
1c0059f0:	5c030170 	bne	$r11,$r16,768(0x300) # 1c005cf0 <inst_error>
1c0059f4:	15076130 	lu12i.w	$r16,-509175(0x83b09)
1c0059f8:	02a0da10 	addi.w	$r16,$r16,-1994(0x836)
1c0059fc:	14442e91 	lu12i.w	$r17,139636(0x22174)
1c005a00:	02bac231 	addi.w	$r17,$r17,-336(0xeb0)
1c005a04:	1400000a 	lu12i.w	$r10,0
1c005a08:	1400000b 	lu12i.w	$r11,0
1c005a0c:	50001400 	b	20(0x14) # 1c005a20 <n20_b_test+0xa60>
1c005a10:	1507612a 	lu12i.w	$r10,-509175(0x83b09)
1c005a14:	02a0d94a 	addi.w	$r10,$r10,-1994(0x836)
1c005a18:	50001000 	b	16(0x10) # 1c005a28 <n20_b_test+0xa68>
1c005a1c:	50001400 	b	20(0x14) # 1c005a30 <n20_b_test+0xa70>
1c005a20:	53fff3ff 	b	-16(0xffffff0) # 1c005a10 <n20_b_test+0xa50>
1c005a24:	50000c00 	b	12(0xc) # 1c005a30 <n20_b_test+0xa70>
1c005a28:	14442e8b 	lu12i.w	$r11,139636(0x22174)
1c005a2c:	02bac16b 	addi.w	$r11,$r11,-336(0xeb0)
1c005a30:	15076131 	lu12i.w	$r17,-509175(0x83b09)
1c005a34:	02a0da31 	addi.w	$r17,$r17,-1994(0x836)
1c005a38:	14442e90 	lu12i.w	$r16,139636(0x22174)
1c005a3c:	02bac210 	addi.w	$r16,$r16,-336(0xeb0)
1c005a40:	5c02b151 	bne	$r10,$r17,688(0x2b0) # 1c005cf0 <inst_error>
1c005a44:	5c02ad70 	bne	$r11,$r16,684(0x2ac) # 1c005cf0 <inst_error>
1c005a48:	14b32650 	lu12i.w	$r16,366898(0x59932)
1c005a4c:	02aaba10 	addi.w	$r16,$r16,-1362(0xaae)
1c005a50:	15b793b1 	lu12i.w	$r17,-148323(0xdbc9d)
1c005a54:	02900231 	addi.w	$r17,$r17,1024(0x400)
1c005a58:	1400000a 	lu12i.w	$r10,0
1c005a5c:	1400000b 	lu12i.w	$r11,0
1c005a60:	50001400 	b	20(0x14) # 1c005a74 <n20_b_test+0xab4>
1c005a64:	14b3264a 	lu12i.w	$r10,366898(0x59932)
1c005a68:	02aab94a 	addi.w	$r10,$r10,-1362(0xaae)
1c005a6c:	50001000 	b	16(0x10) # 1c005a7c <n20_b_test+0xabc>
1c005a70:	50001400 	b	20(0x14) # 1c005a84 <n20_b_test+0xac4>
1c005a74:	53fff3ff 	b	-16(0xffffff0) # 1c005a64 <n20_b_test+0xaa4>
1c005a78:	50000c00 	b	12(0xc) # 1c005a84 <n20_b_test+0xac4>
1c005a7c:	15b793ab 	lu12i.w	$r11,-148323(0xdbc9d)
1c005a80:	0290016b 	addi.w	$r11,$r11,1024(0x400)
1c005a84:	14b32651 	lu12i.w	$r17,366898(0x59932)
1c005a88:	02aaba31 	addi.w	$r17,$r17,-1362(0xaae)
1c005a8c:	15b793b0 	lu12i.w	$r16,-148323(0xdbc9d)
1c005a90:	02900210 	addi.w	$r16,$r16,1024(0x400)
1c005a94:	5c025d51 	bne	$r10,$r17,604(0x25c) # 1c005cf0 <inst_error>
1c005a98:	5c025970 	bne	$r11,$r16,600(0x258) # 1c005cf0 <inst_error>
1c005a9c:	140c44b0 	lu12i.w	$r16,25125(0x6225)
1c005aa0:	028f0210 	addi.w	$r16,$r16,960(0x3c0)
1c005aa4:	144c5151 	lu12i.w	$r17,156298(0x2628a)
1c005aa8:	028da231 	addi.w	$r17,$r17,872(0x368)
1c005aac:	1400000a 	lu12i.w	$r10,0
1c005ab0:	1400000b 	lu12i.w	$r11,0
1c005ab4:	50001400 	b	20(0x14) # 1c005ac8 <n20_b_test+0xb08>
1c005ab8:	140c44aa 	lu12i.w	$r10,25125(0x6225)
1c005abc:	028f014a 	addi.w	$r10,$r10,960(0x3c0)
1c005ac0:	50001000 	b	16(0x10) # 1c005ad0 <n20_b_test+0xb10>
1c005ac4:	50001400 	b	20(0x14) # 1c005ad8 <n20_b_test+0xb18>
1c005ac8:	53fff3ff 	b	-16(0xffffff0) # 1c005ab8 <n20_b_test+0xaf8>
1c005acc:	50000c00 	b	12(0xc) # 1c005ad8 <n20_b_test+0xb18>
1c005ad0:	144c514b 	lu12i.w	$r11,156298(0x2628a)
1c005ad4:	028da16b 	addi.w	$r11,$r11,872(0x368)
1c005ad8:	140c44b1 	lu12i.w	$r17,25125(0x6225)
1c005adc:	028f0231 	addi.w	$r17,$r17,960(0x3c0)
1c005ae0:	144c5150 	lu12i.w	$r16,156298(0x2628a)
1c005ae4:	028da210 	addi.w	$r16,$r16,872(0x368)
1c005ae8:	5c020951 	bne	$r10,$r17,520(0x208) # 1c005cf0 <inst_error>
1c005aec:	5c020570 	bne	$r11,$r16,516(0x204) # 1c005cf0 <inst_error>
1c005af0:	1569f0b0 	lu12i.w	$r16,-307323(0xb4f85)
1c005af4:	02b14210 	addi.w	$r16,$r16,-944(0xc50)
1c005af8:	15aba731 	lu12i.w	$r17,-172743(0xd5d39)
1c005afc:	028e6631 	addi.w	$r17,$r17,921(0x399)
1c005b00:	1400000a 	lu12i.w	$r10,0
1c005b04:	1400000b 	lu12i.w	$r11,0
1c005b08:	50001400 	b	20(0x14) # 1c005b1c <n20_b_test+0xb5c>
1c005b0c:	1569f0aa 	lu12i.w	$r10,-307323(0xb4f85)
1c005b10:	02b1414a 	addi.w	$r10,$r10,-944(0xc50)
1c005b14:	50001000 	b	16(0x10) # 1c005b24 <n20_b_test+0xb64>
1c005b18:	50001400 	b	20(0x14) # 1c005b2c <n20_b_test+0xb6c>
1c005b1c:	53fff3ff 	b	-16(0xffffff0) # 1c005b0c <n20_b_test+0xb4c>
1c005b20:	50000c00 	b	12(0xc) # 1c005b2c <n20_b_test+0xb6c>
1c005b24:	15aba72b 	lu12i.w	$r11,-172743(0xd5d39)
1c005b28:	028e656b 	addi.w	$r11,$r11,921(0x399)
1c005b2c:	1569f0b1 	lu12i.w	$r17,-307323(0xb4f85)
1c005b30:	02b14231 	addi.w	$r17,$r17,-944(0xc50)
1c005b34:	15aba730 	lu12i.w	$r16,-172743(0xd5d39)
1c005b38:	028e6610 	addi.w	$r16,$r16,921(0x399)
1c005b3c:	5c01b551 	bne	$r10,$r17,436(0x1b4) # 1c005cf0 <inst_error>
1c005b40:	5c01b170 	bne	$r11,$r16,432(0x1b0) # 1c005cf0 <inst_error>
1c005b44:	14a5d610 	lu12i.w	$r16,339632(0x52eb0)
1c005b48:	02b80210 	addi.w	$r16,$r16,-512(0xe00)
1c005b4c:	15f5bbf1 	lu12i.w	$r17,-21025(0xfaddf)
1c005b50:	02983231 	addi.w	$r17,$r17,1548(0x60c)
1c005b54:	1400000a 	lu12i.w	$r10,0
1c005b58:	1400000b 	lu12i.w	$r11,0
1c005b5c:	50001400 	b	20(0x14) # 1c005b70 <n20_b_test+0xbb0>
1c005b60:	14a5d60a 	lu12i.w	$r10,339632(0x52eb0)
1c005b64:	02b8014a 	addi.w	$r10,$r10,-512(0xe00)
1c005b68:	50001000 	b	16(0x10) # 1c005b78 <n20_b_test+0xbb8>
1c005b6c:	50001400 	b	20(0x14) # 1c005b80 <n20_b_test+0xbc0>
1c005b70:	53fff3ff 	b	-16(0xffffff0) # 1c005b60 <n20_b_test+0xba0>
1c005b74:	50000c00 	b	12(0xc) # 1c005b80 <n20_b_test+0xbc0>
1c005b78:	15f5bbeb 	lu12i.w	$r11,-21025(0xfaddf)
1c005b7c:	0298316b 	addi.w	$r11,$r11,1548(0x60c)
1c005b80:	14a5d611 	lu12i.w	$r17,339632(0x52eb0)
1c005b84:	02b80231 	addi.w	$r17,$r17,-512(0xe00)
1c005b88:	15f5bbf0 	lu12i.w	$r16,-21025(0xfaddf)
1c005b8c:	02983210 	addi.w	$r16,$r16,1548(0x60c)
1c005b90:	5c016151 	bne	$r10,$r17,352(0x160) # 1c005cf0 <inst_error>
1c005b94:	5c015d70 	bne	$r11,$r16,348(0x15c) # 1c005cf0 <inst_error>
1c005b98:	15a501f0 	lu12i.w	$r16,-186353(0xd280f)
1c005b9c:	02b82a10 	addi.w	$r16,$r16,-502(0xe0a)
1c005ba0:	1442edf1 	lu12i.w	$r17,137071(0x2176f)
1c005ba4:	02930231 	addi.w	$r17,$r17,1216(0x4c0)
1c005ba8:	1400000a 	lu12i.w	$r10,0
1c005bac:	1400000b 	lu12i.w	$r11,0
1c005bb0:	50001400 	b	20(0x14) # 1c005bc4 <n20_b_test+0xc04>
1c005bb4:	15a501ea 	lu12i.w	$r10,-186353(0xd280f)
1c005bb8:	02b8294a 	addi.w	$r10,$r10,-502(0xe0a)
1c005bbc:	50001000 	b	16(0x10) # 1c005bcc <n20_b_test+0xc0c>
1c005bc0:	50001400 	b	20(0x14) # 1c005bd4 <n20_b_test+0xc14>
1c005bc4:	53fff3ff 	b	-16(0xffffff0) # 1c005bb4 <n20_b_test+0xbf4>
1c005bc8:	50000c00 	b	12(0xc) # 1c005bd4 <n20_b_test+0xc14>
1c005bcc:	1442edeb 	lu12i.w	$r11,137071(0x2176f)
1c005bd0:	0293016b 	addi.w	$r11,$r11,1216(0x4c0)
1c005bd4:	15a501f1 	lu12i.w	$r17,-186353(0xd280f)
1c005bd8:	02b82a31 	addi.w	$r17,$r17,-502(0xe0a)
1c005bdc:	1442edf0 	lu12i.w	$r16,137071(0x2176f)
1c005be0:	02930210 	addi.w	$r16,$r16,1216(0x4c0)
1c005be4:	5c010d51 	bne	$r10,$r17,268(0x10c) # 1c005cf0 <inst_error>
1c005be8:	5c010970 	bne	$r11,$r16,264(0x108) # 1c005cf0 <inst_error>
1c005bec:	15d378d0 	lu12i.w	$r16,-91194(0xe9bc6)
1c005bf0:	02aa4210 	addi.w	$r16,$r16,-1392(0xa90)
1c005bf4:	15560851 	lu12i.w	$r17,-348094(0xab042)
1c005bf8:	02869a31 	addi.w	$r17,$r17,422(0x1a6)
1c005bfc:	1400000a 	lu12i.w	$r10,0
1c005c00:	1400000b 	lu12i.w	$r11,0
1c005c04:	50001400 	b	20(0x14) # 1c005c18 <n20_b_test+0xc58>
1c005c08:	15d378ca 	lu12i.w	$r10,-91194(0xe9bc6)
1c005c0c:	02aa414a 	addi.w	$r10,$r10,-1392(0xa90)
1c005c10:	50001000 	b	16(0x10) # 1c005c20 <n20_b_test+0xc60>
1c005c14:	50001400 	b	20(0x14) # 1c005c28 <n20_b_test+0xc68>
1c005c18:	53fff3ff 	b	-16(0xffffff0) # 1c005c08 <n20_b_test+0xc48>
1c005c1c:	50000c00 	b	12(0xc) # 1c005c28 <n20_b_test+0xc68>
1c005c20:	1556084b 	lu12i.w	$r11,-348094(0xab042)
1c005c24:	0286996b 	addi.w	$r11,$r11,422(0x1a6)
1c005c28:	15d378d1 	lu12i.w	$r17,-91194(0xe9bc6)
1c005c2c:	02aa4231 	addi.w	$r17,$r17,-1392(0xa90)
1c005c30:	15560850 	lu12i.w	$r16,-348094(0xab042)
1c005c34:	02869a10 	addi.w	$r16,$r16,422(0x1a6)
1c005c38:	5c00b951 	bne	$r10,$r17,184(0xb8) # 1c005cf0 <inst_error>
1c005c3c:	5c00b570 	bne	$r11,$r16,180(0xb4) # 1c005cf0 <inst_error>
1c005c40:	15066bb0 	lu12i.w	$r16,-511139(0x8335d)
1c005c44:	0299b610 	addi.w	$r16,$r16,1645(0x66d)
1c005c48:	15b5e591 	lu12i.w	$r17,-151764(0xdaf2c)
1c005c4c:	02888a31 	addi.w	$r17,$r17,546(0x222)
1c005c50:	1400000a 	lu12i.w	$r10,0
1c005c54:	1400000b 	lu12i.w	$r11,0
1c005c58:	50001400 	b	20(0x14) # 1c005c6c <n20_b_test+0xcac>
1c005c5c:	15066baa 	lu12i.w	$r10,-511139(0x8335d)
1c005c60:	0299b54a 	addi.w	$r10,$r10,1645(0x66d)
1c005c64:	50001000 	b	16(0x10) # 1c005c74 <n20_b_test+0xcb4>
1c005c68:	50001400 	b	20(0x14) # 1c005c7c <n20_b_test+0xcbc>
1c005c6c:	53fff3ff 	b	-16(0xffffff0) # 1c005c5c <n20_b_test+0xc9c>
1c005c70:	50000c00 	b	12(0xc) # 1c005c7c <n20_b_test+0xcbc>
1c005c74:	15b5e58b 	lu12i.w	$r11,-151764(0xdaf2c)
1c005c78:	0288896b 	addi.w	$r11,$r11,546(0x222)
1c005c7c:	15066bb1 	lu12i.w	$r17,-511139(0x8335d)
1c005c80:	0299b631 	addi.w	$r17,$r17,1645(0x66d)
1c005c84:	15b5e590 	lu12i.w	$r16,-151764(0xdaf2c)
1c005c88:	02888a10 	addi.w	$r16,$r16,546(0x222)
1c005c8c:	5c006551 	bne	$r10,$r17,100(0x64) # 1c005cf0 <inst_error>
1c005c90:	5c006170 	bne	$r11,$r16,96(0x60) # 1c005cf0 <inst_error>
1c005c94:	1431c130 	lu12i.w	$r16,101897(0x18e09)
1c005c98:	02b40210 	addi.w	$r16,$r16,-768(0xd00)
1c005c9c:	14df46d1 	lu12i.w	$r17,457270(0x6fa36)
1c005ca0:	02867a31 	addi.w	$r17,$r17,414(0x19e)
1c005ca4:	1400000a 	lu12i.w	$r10,0
1c005ca8:	1400000b 	lu12i.w	$r11,0
1c005cac:	50001400 	b	20(0x14) # 1c005cc0 <n20_b_test+0xd00>
1c005cb0:	1431c12a 	lu12i.w	$r10,101897(0x18e09)
1c005cb4:	02b4014a 	addi.w	$r10,$r10,-768(0xd00)
1c005cb8:	50001000 	b	16(0x10) # 1c005cc8 <n20_b_test+0xd08>
1c005cbc:	50001400 	b	20(0x14) # 1c005cd0 <n20_b_test+0xd10>
1c005cc0:	53fff3ff 	b	-16(0xffffff0) # 1c005cb0 <n20_b_test+0xcf0>
1c005cc4:	50000c00 	b	12(0xc) # 1c005cd0 <n20_b_test+0xd10>
1c005cc8:	14df46cb 	lu12i.w	$r11,457270(0x6fa36)
1c005ccc:	0286796b 	addi.w	$r11,$r11,414(0x19e)
1c005cd0:	1431c131 	lu12i.w	$r17,101897(0x18e09)
1c005cd4:	02b40231 	addi.w	$r17,$r17,-768(0xd00)
1c005cd8:	14df46d0 	lu12i.w	$r16,457270(0x6fa36)
1c005cdc:	02867a10 	addi.w	$r16,$r16,414(0x19e)
1c005ce0:	5c001151 	bne	$r10,$r17,16(0x10) # 1c005cf0 <inst_error>
1c005ce4:	5c000d70 	bne	$r11,$r16,12(0xc) # 1c005cf0 <inst_error>
1c005ce8:	5c000b20 	bne	$r25,$r0,8(0x8) # 1c005cf0 <inst_error>
1c005cec:	0280075a 	addi.w	$r26,$r26,1(0x1)

1c005cf0 <inst_error>:
1c005cf0:	0040e2ed 	slli.w	$r13,$r23,0x18
1c005cf4:	001569ac 	or	$r12,$r13,$r26
1c005cf8:	2980030c 	st.w	$r12,$r24,0
1c005cfc:	4c000020 	jirl	$r0,$r1,0

1c005d00 <n14_ld_w_test>:
n14_ld_w_test():
1c005d00:	028006f7 	addi.w	$r23,$r23,1(0x1)
1c005d04:	00150019 	move	$r25,$r0
1c005d08:	1590458d 	lu12i.w	$r13,-228820(0xc822c)
1c005d0c:	029fa1ad 	addi.w	$r13,$r13,2024(0x7e8)
1c005d10:	14001a6c 	lu12i.w	$r12,211(0xd3)
1c005d14:	0293018c 	addi.w	$r12,$r12,1216(0x4c0)
1c005d18:	1590458b 	lu12i.w	$r11,-228820(0xc822c)
1c005d1c:	029fa16b 	addi.w	$r11,$r11,2024(0x7e8)
1c005d20:	299aa18d 	st.w	$r13,$r12,1704(0x6a8)
1c005d24:	02801184 	addi.w	$r4,$r12,4(0x4)
1c005d28:	02bfe185 	addi.w	$r5,$r12,-8(0xff8)
1c005d2c:	299aa084 	st.w	$r4,$r4,1704(0x6a8)
1c005d30:	299aa0a5 	st.w	$r5,$r5,1704(0x6a8)
1c005d34:	289aa18a 	ld.w	$r10,$r12,1704(0x6a8)
1c005d38:	289aa086 	ld.w	$r6,$r4,1704(0x6a8)
1c005d3c:	289aa0a4 	ld.w	$r4,$r5,1704(0x6a8)
1c005d40:	289aa0a6 	ld.w	$r6,$r5,1704(0x6a8)
1c005d44:	5c094d4b 	bne	$r10,$r11,2380(0x94c) # 1c006690 <inst_error>
1c005d48:	14e2e70d 	lu12i.w	$r13,464696(0x71738)
1c005d4c:	02b041ad 	addi.w	$r13,$r13,-1008(0xc10)
1c005d50:	14001bec 	lu12i.w	$r12,223(0xdf)
1c005d54:	0299818c 	addi.w	$r12,$r12,1632(0x660)
1c005d58:	14e2e70b 	lu12i.w	$r11,464696(0x71738)
1c005d5c:	02b0416b 	addi.w	$r11,$r11,-1008(0xc10)
1c005d60:	2983918d 	st.w	$r13,$r12,228(0xe4)
1c005d64:	02801184 	addi.w	$r4,$r12,4(0x4)
1c005d68:	02bfe185 	addi.w	$r5,$r12,-8(0xff8)
1c005d6c:	29839084 	st.w	$r4,$r4,228(0xe4)
1c005d70:	298390a5 	st.w	$r5,$r5,228(0xe4)
1c005d74:	2883918a 	ld.w	$r10,$r12,228(0xe4)
1c005d78:	28839086 	ld.w	$r6,$r4,228(0xe4)
1c005d7c:	288390a4 	ld.w	$r4,$r5,228(0xe4)
1c005d80:	288390a6 	ld.w	$r6,$r5,228(0xe4)
1c005d84:	5c090d4b 	bne	$r10,$r11,2316(0x90c) # 1c006690 <inst_error>
1c005d88:	1406d04d 	lu12i.w	$r13,13954(0x3682)
1c005d8c:	029081ad 	addi.w	$r13,$r13,1056(0x420)
1c005d90:	14001a4c 	lu12i.w	$r12,210(0xd2)
1c005d94:	0293918c 	addi.w	$r12,$r12,1252(0x4e4)
1c005d98:	1406d04b 	lu12i.w	$r11,13954(0x3682)
1c005d9c:	0290816b 	addi.w	$r11,$r11,1056(0x420)
1c005da0:	2986018d 	st.w	$r13,$r12,384(0x180)
1c005da4:	02801184 	addi.w	$r4,$r12,4(0x4)
1c005da8:	02bfe185 	addi.w	$r5,$r12,-8(0xff8)
1c005dac:	29860084 	st.w	$r4,$r4,384(0x180)
1c005db0:	298600a5 	st.w	$r5,$r5,384(0x180)
1c005db4:	2886018a 	ld.w	$r10,$r12,384(0x180)
1c005db8:	28860086 	ld.w	$r6,$r4,384(0x180)
1c005dbc:	288600a4 	ld.w	$r4,$r5,384(0x180)
1c005dc0:	288600a6 	ld.w	$r6,$r5,384(0x180)
1c005dc4:	5c08cd4b 	bne	$r10,$r11,2252(0x8cc) # 1c006690 <inst_error>
1c005dc8:	14deb3ed 	lu12i.w	$r13,456095(0x6f59f)
1c005dcc:	02974dad 	addi.w	$r13,$r13,1491(0x5d3)
1c005dd0:	14001b6c 	lu12i.w	$r12,219(0xdb)
1c005dd4:	02af718c 	addi.w	$r12,$r12,-1060(0xbdc)
1c005dd8:	14deb3eb 	lu12i.w	$r11,456095(0x6f59f)
1c005ddc:	02974d6b 	addi.w	$r11,$r11,1491(0x5d3)
1c005de0:	2982c18d 	st.w	$r13,$r12,176(0xb0)
1c005de4:	02801184 	addi.w	$r4,$r12,4(0x4)
1c005de8:	02bfe185 	addi.w	$r5,$r12,-8(0xff8)
1c005dec:	2982c084 	st.w	$r4,$r4,176(0xb0)
1c005df0:	2982c0a5 	st.w	$r5,$r5,176(0xb0)
1c005df4:	2882c18a 	ld.w	$r10,$r12,176(0xb0)
1c005df8:	2882c086 	ld.w	$r6,$r4,176(0xb0)
1c005dfc:	2882c0a4 	ld.w	$r4,$r5,176(0xb0)
1c005e00:	2882c0a6 	ld.w	$r6,$r5,176(0xb0)
1c005e04:	5c088d4b 	bne	$r10,$r11,2188(0x88c) # 1c006690 <inst_error>
1c005e08:	14adb20d 	lu12i.w	$r13,355728(0x56d90)
1c005e0c:	029a59ad 	addi.w	$r13,$r13,1686(0x696)
1c005e10:	14001a6c 	lu12i.w	$r12,211(0xd3)
1c005e14:	02a2d18c 	addi.w	$r12,$r12,-1868(0x8b4)
1c005e18:	14adb20b 	lu12i.w	$r11,355728(0x56d90)
1c005e1c:	029a596b 	addi.w	$r11,$r11,1686(0x696)
1c005e20:	2987d18d 	st.w	$r13,$r12,500(0x1f4)
1c005e24:	02801184 	addi.w	$r4,$r12,4(0x4)
1c005e28:	02bfe185 	addi.w	$r5,$r12,-8(0xff8)
1c005e2c:	2987d084 	st.w	$r4,$r4,500(0x1f4)
1c005e30:	2987d0a5 	st.w	$r5,$r5,500(0x1f4)
1c005e34:	2887d18a 	ld.w	$r10,$r12,500(0x1f4)
1c005e38:	2887d086 	ld.w	$r6,$r4,500(0x1f4)
1c005e3c:	2887d0a4 	ld.w	$r4,$r5,500(0x1f4)
1c005e40:	2887d0a6 	ld.w	$r6,$r5,500(0x1f4)
1c005e44:	5c084d4b 	bne	$r10,$r11,2124(0x84c) # 1c006690 <inst_error>
1c005e48:	15db4a4d 	lu12i.w	$r13,-75182(0xeda52)
1c005e4c:	028121ad 	addi.w	$r13,$r13,72(0x48)
1c005e50:	14001aac 	lu12i.w	$r12,213(0xd5)
1c005e54:	02baa18c 	addi.w	$r12,$r12,-344(0xea8)
1c005e58:	15db4a4b 	lu12i.w	$r11,-75182(0xeda52)
1c005e5c:	0281216b 	addi.w	$r11,$r11,72(0x48)
1c005e60:	298ac18d 	st.w	$r13,$r12,688(0x2b0)
1c005e64:	02801184 	addi.w	$r4,$r12,4(0x4)
1c005e68:	02bfe185 	addi.w	$r5,$r12,-8(0xff8)
1c005e6c:	298ac084 	st.w	$r4,$r4,688(0x2b0)
1c005e70:	298ac0a5 	st.w	$r5,$r5,688(0x2b0)
1c005e74:	288ac18a 	ld.w	$r10,$r12,688(0x2b0)
1c005e78:	288ac086 	ld.w	$r6,$r4,688(0x2b0)
1c005e7c:	288ac0a4 	ld.w	$r4,$r5,688(0x2b0)
1c005e80:	288ac0a6 	ld.w	$r6,$r5,688(0x2b0)
1c005e84:	5c080d4b 	bne	$r10,$r11,2060(0x80c) # 1c006690 <inst_error>
1c005e88:	14707d2d 	lu12i.w	$r13,230377(0x383e9)
1c005e8c:	02a5c1ad 	addi.w	$r13,$r13,-1680(0x970)
1c005e90:	14001b2c 	lu12i.w	$r12,217(0xd9)
1c005e94:	02ab918c 	addi.w	$r12,$r12,-1308(0xae4)
1c005e98:	14707d2b 	lu12i.w	$r11,230377(0x383e9)
1c005e9c:	02a5c16b 	addi.w	$r11,$r11,-1680(0x970)
1c005ea0:	299a218d 	st.w	$r13,$r12,1672(0x688)
1c005ea4:	02801184 	addi.w	$r4,$r12,4(0x4)
1c005ea8:	02bfe185 	addi.w	$r5,$r12,-8(0xff8)
1c005eac:	299a2084 	st.w	$r4,$r4,1672(0x688)
1c005eb0:	299a20a5 	st.w	$r5,$r5,1672(0x688)
1c005eb4:	289a218a 	ld.w	$r10,$r12,1672(0x688)
1c005eb8:	289a2086 	ld.w	$r6,$r4,1672(0x688)
1c005ebc:	289a20a4 	ld.w	$r4,$r5,1672(0x688)
1c005ec0:	289a20a6 	ld.w	$r6,$r5,1672(0x688)
1c005ec4:	5c07cd4b 	bne	$r10,$r11,1996(0x7cc) # 1c006690 <inst_error>
1c005ec8:	1451922d 	lu12i.w	$r13,167057(0x28c91)
1c005ecc:	02ab29ad 	addi.w	$r13,$r13,-1334(0xaca)
1c005ed0:	14001a8c 	lu12i.w	$r12,212(0xd4)
1c005ed4:	02a1018c 	addi.w	$r12,$r12,-1984(0x840)
1c005ed8:	1451922b 	lu12i.w	$r11,167057(0x28c91)
1c005edc:	02ab296b 	addi.w	$r11,$r11,-1334(0xaca)
1c005ee0:	29ad618d 	st.w	$r13,$r12,-1192(0xb58)
1c005ee4:	02801184 	addi.w	$r4,$r12,4(0x4)
1c005ee8:	02bfe185 	addi.w	$r5,$r12,-8(0xff8)
1c005eec:	29ad6084 	st.w	$r4,$r4,-1192(0xb58)
1c005ef0:	29ad60a5 	st.w	$r5,$r5,-1192(0xb58)
1c005ef4:	28ad618a 	ld.w	$r10,$r12,-1192(0xb58)
1c005ef8:	28ad6086 	ld.w	$r6,$r4,-1192(0xb58)
1c005efc:	28ad60a4 	ld.w	$r4,$r5,-1192(0xb58)
1c005f00:	28ad60a6 	ld.w	$r6,$r5,-1192(0xb58)
1c005f04:	5c078d4b 	bne	$r10,$r11,1932(0x78c) # 1c006690 <inst_error>
1c005f08:	14a9594d 	lu12i.w	$r13,346826(0x54aca)
1c005f0c:	028461ad 	addi.w	$r13,$r13,280(0x118)
1c005f10:	14001a0c 	lu12i.w	$r12,208(0xd0)
1c005f14:	029b018c 	addi.w	$r12,$r12,1728(0x6c0)
1c005f18:	14a9594b 	lu12i.w	$r11,346826(0x54aca)
1c005f1c:	0284616b 	addi.w	$r11,$r11,280(0x118)
1c005f20:	29ab918d 	st.w	$r13,$r12,-1308(0xae4)
1c005f24:	02801184 	addi.w	$r4,$r12,4(0x4)
1c005f28:	02bfe185 	addi.w	$r5,$r12,-8(0xff8)
1c005f2c:	29ab9084 	st.w	$r4,$r4,-1308(0xae4)
1c005f30:	29ab90a5 	st.w	$r5,$r5,-1308(0xae4)
1c005f34:	28ab918a 	ld.w	$r10,$r12,-1308(0xae4)
1c005f38:	28ab9086 	ld.w	$r6,$r4,-1308(0xae4)
1c005f3c:	28ab90a4 	ld.w	$r4,$r5,-1308(0xae4)
1c005f40:	28ab90a6 	ld.w	$r6,$r5,-1308(0xae4)
1c005f44:	5c074d4b 	bne	$r10,$r11,1868(0x74c) # 1c006690 <inst_error>
1c005f48:	15213c6d 	lu12i.w	$r13,-456221(0x909e3)
1c005f4c:	029349ad 	addi.w	$r13,$r13,1234(0x4d2)
1c005f50:	14001a6c 	lu12i.w	$r12,211(0xd3)
1c005f54:	029f018c 	addi.w	$r12,$r12,1984(0x7c0)
1c005f58:	15213c6b 	lu12i.w	$r11,-456221(0x909e3)
1c005f5c:	0293496b 	addi.w	$r11,$r11,1234(0x4d2)
1c005f60:	29ab318d 	st.w	$r13,$r12,-1332(0xacc)
1c005f64:	02801184 	addi.w	$r4,$r12,4(0x4)
1c005f68:	02bfe185 	addi.w	$r5,$r12,-8(0xff8)
1c005f6c:	29ab3084 	st.w	$r4,$r4,-1332(0xacc)
1c005f70:	29ab30a5 	st.w	$r5,$r5,-1332(0xacc)
1c005f74:	28ab318a 	ld.w	$r10,$r12,-1332(0xacc)
1c005f78:	28ab3086 	ld.w	$r6,$r4,-1332(0xacc)
1c005f7c:	28ab30a4 	ld.w	$r4,$r5,-1332(0xacc)
1c005f80:	28ab30a6 	ld.w	$r6,$r5,-1332(0xacc)
1c005f84:	5c070d4b 	bne	$r10,$r11,1804(0x70c) # 1c006690 <inst_error>
1c005f88:	1589640d 	lu12i.w	$r13,-242912(0xc4b20)
1c005f8c:	02bac1ad 	addi.w	$r13,$r13,-336(0xeb0)
1c005f90:	14001a2c 	lu12i.w	$r12,209(0xd1)
1c005f94:	02b3e18c 	addi.w	$r12,$r12,-776(0xcf8)
1c005f98:	1589640b 	lu12i.w	$r11,-242912(0xc4b20)
1c005f9c:	02bac16b 	addi.w	$r11,$r11,-336(0xeb0)
1c005fa0:	2986218d 	st.w	$r13,$r12,392(0x188)
1c005fa4:	02801184 	addi.w	$r4,$r12,4(0x4)
1c005fa8:	02bfe185 	addi.w	$r5,$r12,-8(0xff8)
1c005fac:	29862084 	st.w	$r4,$r4,392(0x188)
1c005fb0:	298620a5 	st.w	$r5,$r5,392(0x188)
1c005fb4:	2886218a 	ld.w	$r10,$r12,392(0x188)
1c005fb8:	28862086 	ld.w	$r6,$r4,392(0x188)
1c005fbc:	288620a4 	ld.w	$r4,$r5,392(0x188)
1c005fc0:	288620a6 	ld.w	$r6,$r5,392(0x188)
1c005fc4:	5c06cd4b 	bne	$r10,$r11,1740(0x6cc) # 1c006690 <inst_error>
1c005fc8:	1596d9cd 	lu12i.w	$r13,-215346(0xcb6ce)
1c005fcc:	02a301ad 	addi.w	$r13,$r13,-1856(0x8c0)
1c005fd0:	14001aec 	lu12i.w	$r12,215(0xd7)
1c005fd4:	02b6e18c 	addi.w	$r12,$r12,-584(0xdb8)
1c005fd8:	1596d9cb 	lu12i.w	$r11,-215346(0xcb6ce)
1c005fdc:	02a3016b 	addi.w	$r11,$r11,-1856(0x8c0)
1c005fe0:	2989418d 	st.w	$r13,$r12,592(0x250)
1c005fe4:	02801184 	addi.w	$r4,$r12,4(0x4)
1c005fe8:	02bfe185 	addi.w	$r5,$r12,-8(0xff8)
1c005fec:	29894084 	st.w	$r4,$r4,592(0x250)
1c005ff0:	298940a5 	st.w	$r5,$r5,592(0x250)
1c005ff4:	2889418a 	ld.w	$r10,$r12,592(0x250)
1c005ff8:	28894086 	ld.w	$r6,$r4,592(0x250)
1c005ffc:	288940a4 	ld.w	$r4,$r5,592(0x250)
1c006000:	288940a6 	ld.w	$r6,$r5,592(0x250)
1c006004:	5c068d4b 	bne	$r10,$r11,1676(0x68c) # 1c006690 <inst_error>
1c006008:	14cc72ad 	lu12i.w	$r13,418709(0x66395)
1c00600c:	02abb9ad 	addi.w	$r13,$r13,-1298(0xaee)
1c006010:	14001aac 	lu12i.w	$r12,213(0xd5)
1c006014:	0288b18c 	addi.w	$r12,$r12,556(0x22c)
1c006018:	14cc72ab 	lu12i.w	$r11,418709(0x66395)
1c00601c:	02abb96b 	addi.w	$r11,$r11,-1298(0xaee)
1c006020:	29a7918d 	st.w	$r13,$r12,-1564(0x9e4)
1c006024:	02801184 	addi.w	$r4,$r12,4(0x4)
1c006028:	02bfe185 	addi.w	$r5,$r12,-8(0xff8)
1c00602c:	29a79084 	st.w	$r4,$r4,-1564(0x9e4)
1c006030:	29a790a5 	st.w	$r5,$r5,-1564(0x9e4)
1c006034:	28a7918a 	ld.w	$r10,$r12,-1564(0x9e4)
1c006038:	28a79086 	ld.w	$r6,$r4,-1564(0x9e4)
1c00603c:	28a790a4 	ld.w	$r4,$r5,-1564(0x9e4)
1c006040:	28a790a6 	ld.w	$r6,$r5,-1564(0x9e4)
1c006044:	5c064d4b 	bne	$r10,$r11,1612(0x64c) # 1c006690 <inst_error>
1c006048:	1491a6ad 	lu12i.w	$r13,298293(0x48d35)
1c00604c:	029791ad 	addi.w	$r13,$r13,1508(0x5e4)
1c006050:	14001aec 	lu12i.w	$r12,215(0xd7)
1c006054:	02ae418c 	addi.w	$r12,$r12,-1136(0xb90)
1c006058:	1491a6ab 	lu12i.w	$r11,298293(0x48d35)
1c00605c:	0297916b 	addi.w	$r11,$r11,1508(0x5e4)
1c006060:	2993c18d 	st.w	$r13,$r12,1264(0x4f0)
1c006064:	02801184 	addi.w	$r4,$r12,4(0x4)
1c006068:	02bfe185 	addi.w	$r5,$r12,-8(0xff8)
1c00606c:	2993c084 	st.w	$r4,$r4,1264(0x4f0)
1c006070:	2993c0a5 	st.w	$r5,$r5,1264(0x4f0)
1c006074:	2893c18a 	ld.w	$r10,$r12,1264(0x4f0)
1c006078:	2893c086 	ld.w	$r6,$r4,1264(0x4f0)
1c00607c:	2893c0a4 	ld.w	$r4,$r5,1264(0x4f0)
1c006080:	2893c0a6 	ld.w	$r6,$r5,1264(0x4f0)
1c006084:	5c060d4b 	bne	$r10,$r11,1548(0x60c) # 1c006690 <inst_error>
1c006088:	1437682d 	lu12i.w	$r13,113473(0x1bb41)
1c00608c:	02ad21ad 	addi.w	$r13,$r13,-1208(0xb48)
1c006090:	14001a6c 	lu12i.w	$r12,211(0xd3)
1c006094:	02b9b18c 	addi.w	$r12,$r12,-404(0xe6c)
1c006098:	1437682b 	lu12i.w	$r11,113473(0x1bb41)
1c00609c:	02ad216b 	addi.w	$r11,$r11,-1208(0xb48)
1c0060a0:	29a5a18d 	st.w	$r13,$r12,-1688(0x968)
1c0060a4:	02801184 	addi.w	$r4,$r12,4(0x4)
1c0060a8:	02bfe185 	addi.w	$r5,$r12,-8(0xff8)
1c0060ac:	29a5a084 	st.w	$r4,$r4,-1688(0x968)
1c0060b0:	29a5a0a5 	st.w	$r5,$r5,-1688(0x968)
1c0060b4:	28a5a18a 	ld.w	$r10,$r12,-1688(0x968)
1c0060b8:	28a5a086 	ld.w	$r6,$r4,-1688(0x968)
1c0060bc:	28a5a0a4 	ld.w	$r4,$r5,-1688(0x968)
1c0060c0:	28a5a0a6 	ld.w	$r6,$r5,-1688(0x968)
1c0060c4:	5c05cd4b 	bne	$r10,$r11,1484(0x5cc) # 1c006690 <inst_error>
1c0060c8:	1454e92d 	lu12i.w	$r13,173897(0x2a749)
1c0060cc:	02ac89ad 	addi.w	$r13,$r13,-1246(0xb22)
1c0060d0:	14001aec 	lu12i.w	$r12,215(0xd7)
1c0060d4:	0285818c 	addi.w	$r12,$r12,352(0x160)
1c0060d8:	1454e92b 	lu12i.w	$r11,173897(0x2a749)
1c0060dc:	02ac896b 	addi.w	$r11,$r11,-1246(0xb22)
1c0060e0:	29a3c18d 	st.w	$r13,$r12,-1808(0x8f0)
1c0060e4:	02801184 	addi.w	$r4,$r12,4(0x4)
1c0060e8:	02bfe185 	addi.w	$r5,$r12,-8(0xff8)
1c0060ec:	29a3c084 	st.w	$r4,$r4,-1808(0x8f0)
1c0060f0:	29a3c0a5 	st.w	$r5,$r5,-1808(0x8f0)
1c0060f4:	28a3c18a 	ld.w	$r10,$r12,-1808(0x8f0)
1c0060f8:	28a3c086 	ld.w	$r6,$r4,-1808(0x8f0)
1c0060fc:	28a3c0a4 	ld.w	$r4,$r5,-1808(0x8f0)
1c006100:	28a3c0a6 	ld.w	$r6,$r5,-1808(0x8f0)
1c006104:	5c058d4b 	bne	$r10,$r11,1420(0x58c) # 1c006690 <inst_error>
1c006108:	15ab9f6d 	lu12i.w	$r13,-172805(0xd5cfb)
1c00610c:	028e51ad 	addi.w	$r13,$r13,916(0x394)
1c006110:	14001b0c 	lu12i.w	$r12,216(0xd8)
1c006114:	02bc018c 	addi.w	$r12,$r12,-256(0xf00)
1c006118:	15ab9f6b 	lu12i.w	$r11,-172805(0xd5cfb)
1c00611c:	028e516b 	addi.w	$r11,$r11,916(0x394)
1c006120:	2980518d 	st.w	$r13,$r12,20(0x14)
1c006124:	02801184 	addi.w	$r4,$r12,4(0x4)
1c006128:	02bfe185 	addi.w	$r5,$r12,-8(0xff8)
1c00612c:	29805084 	st.w	$r4,$r4,20(0x14)
1c006130:	298050a5 	st.w	$r5,$r5,20(0x14)
1c006134:	2880518a 	ld.w	$r10,$r12,20(0x14)
1c006138:	28805086 	ld.w	$r6,$r4,20(0x14)
1c00613c:	288050a4 	ld.w	$r4,$r5,20(0x14)
1c006140:	288050a6 	ld.w	$r6,$r5,20(0x14)
1c006144:	5c054d4b 	bne	$r10,$r11,1356(0x54c) # 1c006690 <inst_error>
1c006148:	14e488cd 	lu12i.w	$r13,468038(0x72446)
1c00614c:	02b381ad 	addi.w	$r13,$r13,-800(0xce0)
1c006150:	14001acc 	lu12i.w	$r12,214(0xd6)
1c006154:	02a7918c 	addi.w	$r12,$r12,-1564(0x9e4)
1c006158:	14e488cb 	lu12i.w	$r11,468038(0x72446)
1c00615c:	02b3816b 	addi.w	$r11,$r11,-800(0xce0)
1c006160:	29a4518d 	st.w	$r13,$r12,-1772(0x914)
1c006164:	02801184 	addi.w	$r4,$r12,4(0x4)
1c006168:	02bfe185 	addi.w	$r5,$r12,-8(0xff8)
1c00616c:	29a45084 	st.w	$r4,$r4,-1772(0x914)
1c006170:	29a450a5 	st.w	$r5,$r5,-1772(0x914)
1c006174:	28a4518a 	ld.w	$r10,$r12,-1772(0x914)
1c006178:	28a45086 	ld.w	$r6,$r4,-1772(0x914)
1c00617c:	28a450a4 	ld.w	$r4,$r5,-1772(0x914)
1c006180:	28a450a6 	ld.w	$r6,$r5,-1772(0x914)
1c006184:	5c050d4b 	bne	$r10,$r11,1292(0x50c) # 1c006690 <inst_error>
1c006188:	15802e0d 	lu12i.w	$r13,-261776(0xc0170)
1c00618c:	028b39ad 	addi.w	$r13,$r13,718(0x2ce)
1c006190:	14001a0c 	lu12i.w	$r12,208(0xd0)
1c006194:	028b618c 	addi.w	$r12,$r12,728(0x2d8)
1c006198:	15802e0b 	lu12i.w	$r11,-261776(0xc0170)
1c00619c:	028b396b 	addi.w	$r11,$r11,718(0x2ce)
1c0061a0:	299f518d 	st.w	$r13,$r12,2004(0x7d4)
1c0061a4:	02801184 	addi.w	$r4,$r12,4(0x4)
1c0061a8:	02bfe185 	addi.w	$r5,$r12,-8(0xff8)
1c0061ac:	299f5084 	st.w	$r4,$r4,2004(0x7d4)
1c0061b0:	299f50a5 	st.w	$r5,$r5,2004(0x7d4)
1c0061b4:	289f518a 	ld.w	$r10,$r12,2004(0x7d4)
1c0061b8:	289f5086 	ld.w	$r6,$r4,2004(0x7d4)
1c0061bc:	289f50a4 	ld.w	$r4,$r5,2004(0x7d4)
1c0061c0:	289f50a6 	ld.w	$r6,$r5,2004(0x7d4)
1c0061c4:	5c04cd4b 	bne	$r10,$r11,1228(0x4cc) # 1c006690 <inst_error>
1c0061c8:	154c2dad 	lu12i.w	$r13,-368275(0xa616d)
1c0061cc:	0286f9ad 	addi.w	$r13,$r13,446(0x1be)
1c0061d0:	14001a0c 	lu12i.w	$r12,208(0xd0)
1c0061d4:	029fc18c 	addi.w	$r12,$r12,2032(0x7f0)
1c0061d8:	154c2dab 	lu12i.w	$r11,-368275(0xa616d)
1c0061dc:	0286f96b 	addi.w	$r11,$r11,446(0x1be)
1c0061e0:	2983118d 	st.w	$r13,$r12,196(0xc4)
1c0061e4:	02801184 	addi.w	$r4,$r12,4(0x4)
1c0061e8:	02bfe185 	addi.w	$r5,$r12,-8(0xff8)
1c0061ec:	29831084 	st.w	$r4,$r4,196(0xc4)
1c0061f0:	298310a5 	st.w	$r5,$r5,196(0xc4)
1c0061f4:	2883118a 	ld.w	$r10,$r12,196(0xc4)
1c0061f8:	28831086 	ld.w	$r6,$r4,196(0xc4)
1c0061fc:	288310a4 	ld.w	$r4,$r5,196(0xc4)
1c006200:	288310a6 	ld.w	$r6,$r5,196(0xc4)
1c006204:	5c048d4b 	bne	$r10,$r11,1164(0x48c) # 1c006690 <inst_error>
1c006208:	15e28aed 	lu12i.w	$r13,-60329(0xf1457)
1c00620c:	02b655ad 	addi.w	$r13,$r13,-619(0xd95)
1c006210:	14001aec 	lu12i.w	$r12,215(0xd7)
1c006214:	029d518c 	addi.w	$r12,$r12,1876(0x754)
1c006218:	15e28aeb 	lu12i.w	$r11,-60329(0xf1457)
1c00621c:	02b6556b 	addi.w	$r11,$r11,-619(0xd95)
1c006220:	2985618d 	st.w	$r13,$r12,344(0x158)
1c006224:	02801184 	addi.w	$r4,$r12,4(0x4)
1c006228:	02bfe185 	addi.w	$r5,$r12,-8(0xff8)
1c00622c:	29856084 	st.w	$r4,$r4,344(0x158)
1c006230:	298560a5 	st.w	$r5,$r5,344(0x158)
1c006234:	2885618a 	ld.w	$r10,$r12,344(0x158)
1c006238:	28856086 	ld.w	$r6,$r4,344(0x158)
1c00623c:	288560a4 	ld.w	$r4,$r5,344(0x158)
1c006240:	288560a6 	ld.w	$r6,$r5,344(0x158)
1c006244:	5c044d4b 	bne	$r10,$r11,1100(0x44c) # 1c006690 <inst_error>
1c006248:	1573140d 	lu12i.w	$r13,-288608(0xb98a0)
1c00624c:	029de1ad 	addi.w	$r13,$r13,1912(0x778)
1c006250:	14001a4c 	lu12i.w	$r12,210(0xd2)
1c006254:	02a9d18c 	addi.w	$r12,$r12,-1420(0xa74)
1c006258:	1573140b 	lu12i.w	$r11,-288608(0xb98a0)
1c00625c:	029de16b 	addi.w	$r11,$r11,1912(0x778)
1c006260:	298c218d 	st.w	$r13,$r12,776(0x308)
1c006264:	02801184 	addi.w	$r4,$r12,4(0x4)
1c006268:	02bfe185 	addi.w	$r5,$r12,-8(0xff8)
1c00626c:	298c2084 	st.w	$r4,$r4,776(0x308)
1c006270:	298c20a5 	st.w	$r5,$r5,776(0x308)
1c006274:	288c218a 	ld.w	$r10,$r12,776(0x308)
1c006278:	288c2086 	ld.w	$r6,$r4,776(0x308)
1c00627c:	288c20a4 	ld.w	$r4,$r5,776(0x308)
1c006280:	288c20a6 	ld.w	$r6,$r5,776(0x308)
1c006284:	5c040d4b 	bne	$r10,$r11,1036(0x40c) # 1c006690 <inst_error>
1c006288:	14ed0a6d 	lu12i.w	$r13,485459(0x76853)
1c00628c:	02b039ad 	addi.w	$r13,$r13,-1010(0xc0e)
1c006290:	14001b0c 	lu12i.w	$r12,216(0xd8)
1c006294:	02a2318c 	addi.w	$r12,$r12,-1908(0x88c)
1c006298:	14ed0a6b 	lu12i.w	$r11,485459(0x76853)
1c00629c:	02b0396b 	addi.w	$r11,$r11,-1010(0xc0e)
1c0062a0:	2983f18d 	st.w	$r13,$r12,252(0xfc)
1c0062a4:	02801184 	addi.w	$r4,$r12,4(0x4)
1c0062a8:	02bfe185 	addi.w	$r5,$r12,-8(0xff8)
1c0062ac:	2983f084 	st.w	$r4,$r4,252(0xfc)
1c0062b0:	2983f0a5 	st.w	$r5,$r5,252(0xfc)
1c0062b4:	2883f18a 	ld.w	$r10,$r12,252(0xfc)
1c0062b8:	2883f086 	ld.w	$r6,$r4,252(0xfc)
1c0062bc:	2883f0a4 	ld.w	$r4,$r5,252(0xfc)
1c0062c0:	2883f0a6 	ld.w	$r6,$r5,252(0xfc)
1c0062c4:	5c03cd4b 	bne	$r10,$r11,972(0x3cc) # 1c006690 <inst_error>
1c0062c8:	14749ccd 	lu12i.w	$r13,238822(0x3a4e6)
1c0062cc:	028ce1ad 	addi.w	$r13,$r13,824(0x338)
1c0062d0:	14001a0c 	lu12i.w	$r12,208(0xd0)
1c0062d4:	0280018c 	addi.w	$r12,$r12,0
1c0062d8:	14749ccb 	lu12i.w	$r11,238822(0x3a4e6)
1c0062dc:	028ce16b 	addi.w	$r11,$r11,824(0x338)
1c0062e0:	29baa18d 	st.w	$r13,$r12,-344(0xea8)
1c0062e4:	02801184 	addi.w	$r4,$r12,4(0x4)
1c0062e8:	02bfe185 	addi.w	$r5,$r12,-8(0xff8)
1c0062ec:	29baa084 	st.w	$r4,$r4,-344(0xea8)
1c0062f0:	29baa0a5 	st.w	$r5,$r5,-344(0xea8)
1c0062f4:	28baa18a 	ld.w	$r10,$r12,-344(0xea8)
1c0062f8:	28baa086 	ld.w	$r6,$r4,-344(0xea8)
1c0062fc:	28baa0a4 	ld.w	$r4,$r5,-344(0xea8)
1c006300:	28baa0a6 	ld.w	$r6,$r5,-344(0xea8)
1c006304:	5c038d4b 	bne	$r10,$r11,908(0x38c) # 1c006690 <inst_error>
1c006308:	150c4bed 	lu12i.w	$r13,-499105(0x8625f)
1c00630c:	0290b1ad 	addi.w	$r13,$r13,1068(0x42c)
1c006310:	14001a0c 	lu12i.w	$r12,208(0xd0)
1c006314:	0280018c 	addi.w	$r12,$r12,0
1c006318:	150c4beb 	lu12i.w	$r11,-499105(0x8625f)
1c00631c:	0290b16b 	addi.w	$r11,$r11,1068(0x42c)
1c006320:	29bf018d 	st.w	$r13,$r12,-64(0xfc0)
1c006324:	02801184 	addi.w	$r4,$r12,4(0x4)
1c006328:	02bfe185 	addi.w	$r5,$r12,-8(0xff8)
1c00632c:	29bf0084 	st.w	$r4,$r4,-64(0xfc0)
1c006330:	29bf00a5 	st.w	$r5,$r5,-64(0xfc0)
1c006334:	28bf018a 	ld.w	$r10,$r12,-64(0xfc0)
1c006338:	28bf0086 	ld.w	$r6,$r4,-64(0xfc0)
1c00633c:	28bf00a4 	ld.w	$r4,$r5,-64(0xfc0)
1c006340:	28bf00a6 	ld.w	$r6,$r5,-64(0xfc0)
1c006344:	5c034d4b 	bne	$r10,$r11,844(0x34c) # 1c006690 <inst_error>
1c006348:	142c482d 	lu12i.w	$r13,90689(0x16241)
1c00634c:	02b681ad 	addi.w	$r13,$r13,-608(0xda0)
1c006350:	14001a0c 	lu12i.w	$r12,208(0xd0)
1c006354:	0280018c 	addi.w	$r12,$r12,0
1c006358:	142c482b 	lu12i.w	$r11,90689(0x16241)
1c00635c:	02b6816b 	addi.w	$r11,$r11,-608(0xda0)
1c006360:	29bf118d 	st.w	$r13,$r12,-60(0xfc4)
1c006364:	02801184 	addi.w	$r4,$r12,4(0x4)
1c006368:	02bfe185 	addi.w	$r5,$r12,-8(0xff8)
1c00636c:	29bf1084 	st.w	$r4,$r4,-60(0xfc4)
1c006370:	29bf10a5 	st.w	$r5,$r5,-60(0xfc4)
1c006374:	28bf118a 	ld.w	$r10,$r12,-60(0xfc4)
1c006378:	28bf1086 	ld.w	$r6,$r4,-60(0xfc4)
1c00637c:	28bf10a4 	ld.w	$r4,$r5,-60(0xfc4)
1c006380:	28bf10a6 	ld.w	$r6,$r5,-60(0xfc4)
1c006384:	5c030d4b 	bne	$r10,$r11,780(0x30c) # 1c006690 <inst_error>
1c006388:	1464b4ad 	lu12i.w	$r13,206245(0x325a5)
1c00638c:	028b31ad 	addi.w	$r13,$r13,716(0x2cc)
1c006390:	14001a0c 	lu12i.w	$r12,208(0xd0)
1c006394:	0280018c 	addi.w	$r12,$r12,0
1c006398:	1464b4ab 	lu12i.w	$r11,206245(0x325a5)
1c00639c:	028b316b 	addi.w	$r11,$r11,716(0x2cc)
1c0063a0:	2984418d 	st.w	$r13,$r12,272(0x110)
1c0063a4:	02801184 	addi.w	$r4,$r12,4(0x4)
1c0063a8:	02bfe185 	addi.w	$r5,$r12,-8(0xff8)
1c0063ac:	29844084 	st.w	$r4,$r4,272(0x110)
1c0063b0:	298440a5 	st.w	$r5,$r5,272(0x110)
1c0063b4:	2884418a 	ld.w	$r10,$r12,272(0x110)
1c0063b8:	28844086 	ld.w	$r6,$r4,272(0x110)
1c0063bc:	288440a4 	ld.w	$r4,$r5,272(0x110)
1c0063c0:	288440a6 	ld.w	$r6,$r5,272(0x110)
1c0063c4:	5c02cd4b 	bne	$r10,$r11,716(0x2cc) # 1c006690 <inst_error>
1c0063c8:	1509198d 	lu12i.w	$r13,-505652(0x848cc)
1c0063cc:	02ab7dad 	addi.w	$r13,$r13,-1313(0xadf)
1c0063d0:	14001a0c 	lu12i.w	$r12,208(0xd0)
1c0063d4:	0280018c 	addi.w	$r12,$r12,0
1c0063d8:	1509198b 	lu12i.w	$r11,-505652(0x848cc)
1c0063dc:	02ab7d6b 	addi.w	$r11,$r11,-1313(0xadf)
1c0063e0:	2980a18d 	st.w	$r13,$r12,40(0x28)
1c0063e4:	02801184 	addi.w	$r4,$r12,4(0x4)
1c0063e8:	02bfe185 	addi.w	$r5,$r12,-8(0xff8)
1c0063ec:	2980a084 	st.w	$r4,$r4,40(0x28)
1c0063f0:	2980a0a5 	st.w	$r5,$r5,40(0x28)
1c0063f4:	2880a18a 	ld.w	$r10,$r12,40(0x28)
1c0063f8:	2880a086 	ld.w	$r6,$r4,40(0x28)
1c0063fc:	2880a0a4 	ld.w	$r4,$r5,40(0x28)
1c006400:	2880a0a6 	ld.w	$r6,$r5,40(0x28)
1c006404:	5c028d4b 	bne	$r10,$r11,652(0x28c) # 1c006690 <inst_error>
1c006408:	152ad2cd 	lu12i.w	$r13,-436586(0x95696)
1c00640c:	028e01ad 	addi.w	$r13,$r13,896(0x380)
1c006410:	14001a0c 	lu12i.w	$r12,208(0xd0)
1c006414:	0280018c 	addi.w	$r12,$r12,0
1c006418:	152ad2cb 	lu12i.w	$r11,-436586(0x95696)
1c00641c:	028e016b 	addi.w	$r11,$r11,896(0x380)
1c006420:	29b8818d 	st.w	$r13,$r12,-480(0xe20)
1c006424:	02801184 	addi.w	$r4,$r12,4(0x4)
1c006428:	02bfe185 	addi.w	$r5,$r12,-8(0xff8)
1c00642c:	29b88084 	st.w	$r4,$r4,-480(0xe20)
1c006430:	29b880a5 	st.w	$r5,$r5,-480(0xe20)
1c006434:	28b8818a 	ld.w	$r10,$r12,-480(0xe20)
1c006438:	28b88086 	ld.w	$r6,$r4,-480(0xe20)
1c00643c:	28b880a4 	ld.w	$r4,$r5,-480(0xe20)
1c006440:	28b880a6 	ld.w	$r6,$r5,-480(0xe20)
1c006444:	5c024d4b 	bne	$r10,$r11,588(0x24c) # 1c006690 <inst_error>
1c006448:	159ebf0d 	lu12i.w	$r13,-199176(0xcf5f8)
1c00644c:	02bb01ad 	addi.w	$r13,$r13,-320(0xec0)
1c006450:	14001a0c 	lu12i.w	$r12,208(0xd0)
1c006454:	0280018c 	addi.w	$r12,$r12,0
1c006458:	159ebf0b 	lu12i.w	$r11,-199176(0xcf5f8)
1c00645c:	02bb016b 	addi.w	$r11,$r11,-320(0xec0)
1c006460:	29b6318d 	st.w	$r13,$r12,-628(0xd8c)
1c006464:	02801184 	addi.w	$r4,$r12,4(0x4)
1c006468:	02bfe185 	addi.w	$r5,$r12,-8(0xff8)
1c00646c:	29b63084 	st.w	$r4,$r4,-628(0xd8c)
1c006470:	29b630a5 	st.w	$r5,$r5,-628(0xd8c)
1c006474:	28b6318a 	ld.w	$r10,$r12,-628(0xd8c)
1c006478:	28b63086 	ld.w	$r6,$r4,-628(0xd8c)
1c00647c:	28b630a4 	ld.w	$r4,$r5,-628(0xd8c)
1c006480:	28b630a6 	ld.w	$r6,$r5,-628(0xd8c)
1c006484:	5c020d4b 	bne	$r10,$r11,524(0x20c) # 1c006690 <inst_error>
1c006488:	15055ced 	lu12i.w	$r13,-513305(0x82ae7)
1c00648c:	028341ad 	addi.w	$r13,$r13,208(0xd0)
1c006490:	14001a0c 	lu12i.w	$r12,208(0xd0)
1c006494:	0280018c 	addi.w	$r12,$r12,0
1c006498:	15055ceb 	lu12i.w	$r11,-513305(0x82ae7)
1c00649c:	0283416b 	addi.w	$r11,$r11,208(0xd0)
1c0064a0:	2988918d 	st.w	$r13,$r12,548(0x224)
1c0064a4:	02801184 	addi.w	$r4,$r12,4(0x4)
1c0064a8:	02bfe185 	addi.w	$r5,$r12,-8(0xff8)
1c0064ac:	29889084 	st.w	$r4,$r4,548(0x224)
1c0064b0:	298890a5 	st.w	$r5,$r5,548(0x224)
1c0064b4:	2888918a 	ld.w	$r10,$r12,548(0x224)
1c0064b8:	28889086 	ld.w	$r6,$r4,548(0x224)
1c0064bc:	288890a4 	ld.w	$r4,$r5,548(0x224)
1c0064c0:	288890a6 	ld.w	$r6,$r5,548(0x224)
1c0064c4:	5c01cd4b 	bne	$r10,$r11,460(0x1cc) # 1c006690 <inst_error>
1c0064c8:	1586a94d 	lu12i.w	$r13,-248502(0xc354a)
1c0064cc:	029981ad 	addi.w	$r13,$r13,1632(0x660)
1c0064d0:	14001a0c 	lu12i.w	$r12,208(0xd0)
1c0064d4:	0280018c 	addi.w	$r12,$r12,0
1c0064d8:	1586a94b 	lu12i.w	$r11,-248502(0xc354a)
1c0064dc:	0299816b 	addi.w	$r11,$r11,1632(0x660)
1c0064e0:	299bc18d 	st.w	$r13,$r12,1776(0x6f0)
1c0064e4:	02801184 	addi.w	$r4,$r12,4(0x4)
1c0064e8:	02bfe185 	addi.w	$r5,$r12,-8(0xff8)
1c0064ec:	299bc084 	st.w	$r4,$r4,1776(0x6f0)
1c0064f0:	299bc0a5 	st.w	$r5,$r5,1776(0x6f0)
1c0064f4:	289bc18a 	ld.w	$r10,$r12,1776(0x6f0)
1c0064f8:	289bc086 	ld.w	$r6,$r4,1776(0x6f0)
1c0064fc:	289bc0a4 	ld.w	$r4,$r5,1776(0x6f0)
1c006500:	289bc0a6 	ld.w	$r6,$r5,1776(0x6f0)
1c006504:	5c018d4b 	bne	$r10,$r11,396(0x18c) # 1c006690 <inst_error>
1c006508:	14cd472d 	lu12i.w	$r13,420409(0x66a39)
1c00650c:	02b6d1ad 	addi.w	$r13,$r13,-588(0xdb4)
1c006510:	14001a0c 	lu12i.w	$r12,208(0xd0)
1c006514:	0280018c 	addi.w	$r12,$r12,0
1c006518:	14cd472b 	lu12i.w	$r11,420409(0x66a39)
1c00651c:	02b6d16b 	addi.w	$r11,$r11,-588(0xdb4)
1c006520:	2988c18d 	st.w	$r13,$r12,560(0x230)
1c006524:	02801184 	addi.w	$r4,$r12,4(0x4)
1c006528:	02bfe185 	addi.w	$r5,$r12,-8(0xff8)
1c00652c:	2988c084 	st.w	$r4,$r4,560(0x230)
1c006530:	2988c0a5 	st.w	$r5,$r5,560(0x230)
1c006534:	2888c18a 	ld.w	$r10,$r12,560(0x230)
1c006538:	2888c086 	ld.w	$r6,$r4,560(0x230)
1c00653c:	2888c0a4 	ld.w	$r4,$r5,560(0x230)
1c006540:	2888c0a6 	ld.w	$r6,$r5,560(0x230)
1c006544:	5c014d4b 	bne	$r10,$r11,332(0x14c) # 1c006690 <inst_error>
1c006548:	1426c92d 	lu12i.w	$r13,79433(0x13649)
1c00654c:	0280c1ad 	addi.w	$r13,$r13,48(0x30)
1c006550:	14001a0c 	lu12i.w	$r12,208(0xd0)
1c006554:	0280018c 	addi.w	$r12,$r12,0
1c006558:	1426c92b 	lu12i.w	$r11,79433(0x13649)
1c00655c:	0280c16b 	addi.w	$r11,$r11,48(0x30)
1c006560:	2997118d 	st.w	$r13,$r12,1476(0x5c4)
1c006564:	02801184 	addi.w	$r4,$r12,4(0x4)
1c006568:	02bfe185 	addi.w	$r5,$r12,-8(0xff8)
1c00656c:	29971084 	st.w	$r4,$r4,1476(0x5c4)
1c006570:	299710a5 	st.w	$r5,$r5,1476(0x5c4)
1c006574:	2897118a 	ld.w	$r10,$r12,1476(0x5c4)
1c006578:	28971086 	ld.w	$r6,$r4,1476(0x5c4)
1c00657c:	289710a4 	ld.w	$r4,$r5,1476(0x5c4)
1c006580:	289710a6 	ld.w	$r6,$r5,1476(0x5c4)
1c006584:	5c010d4b 	bne	$r10,$r11,268(0x10c) # 1c006690 <inst_error>
1c006588:	156feced 	lu12i.w	$r13,-295065(0xb7f67)
1c00658c:	02b891ad 	addi.w	$r13,$r13,-476(0xe24)
1c006590:	14001a0c 	lu12i.w	$r12,208(0xd0)
1c006594:	0280018c 	addi.w	$r12,$r12,0
1c006598:	156feceb 	lu12i.w	$r11,-295065(0xb7f67)
1c00659c:	02b8916b 	addi.w	$r11,$r11,-476(0xe24)
1c0065a0:	298ac18d 	st.w	$r13,$r12,688(0x2b0)
1c0065a4:	02801184 	addi.w	$r4,$r12,4(0x4)
1c0065a8:	02bfe185 	addi.w	$r5,$r12,-8(0xff8)
1c0065ac:	298ac084 	st.w	$r4,$r4,688(0x2b0)
1c0065b0:	298ac0a5 	st.w	$r5,$r5,688(0x2b0)
1c0065b4:	288ac18a 	ld.w	$r10,$r12,688(0x2b0)
1c0065b8:	288ac086 	ld.w	$r6,$r4,688(0x2b0)
1c0065bc:	288ac0a4 	ld.w	$r4,$r5,688(0x2b0)
1c0065c0:	288ac0a6 	ld.w	$r6,$r5,688(0x2b0)
1c0065c4:	5c00cd4b 	bne	$r10,$r11,204(0xcc) # 1c006690 <inst_error>
1c0065c8:	1584d14d 	lu12i.w	$r13,-252278(0xc268a)
1c0065cc:	029051ad 	addi.w	$r13,$r13,1044(0x414)
1c0065d0:	14001a0c 	lu12i.w	$r12,208(0xd0)
1c0065d4:	0280018c 	addi.w	$r12,$r12,0
1c0065d8:	1584d14b 	lu12i.w	$r11,-252278(0xc268a)
1c0065dc:	0290516b 	addi.w	$r11,$r11,1044(0x414)
1c0065e0:	2997018d 	st.w	$r13,$r12,1472(0x5c0)
1c0065e4:	02801184 	addi.w	$r4,$r12,4(0x4)
1c0065e8:	02bfe185 	addi.w	$r5,$r12,-8(0xff8)
1c0065ec:	29970084 	st.w	$r4,$r4,1472(0x5c0)
1c0065f0:	299700a5 	st.w	$r5,$r5,1472(0x5c0)
1c0065f4:	2897018a 	ld.w	$r10,$r12,1472(0x5c0)
1c0065f8:	28970086 	ld.w	$r6,$r4,1472(0x5c0)
1c0065fc:	289700a4 	ld.w	$r4,$r5,1472(0x5c0)
1c006600:	289700a6 	ld.w	$r6,$r5,1472(0x5c0)
1c006604:	5c008d4b 	bne	$r10,$r11,140(0x8c) # 1c006690 <inst_error>
1c006608:	1420408d 	lu12i.w	$r13,66052(0x10204)
1c00660c:	02938dad 	addi.w	$r13,$r13,1251(0x4e3)
1c006610:	14001a0c 	lu12i.w	$r12,208(0xd0)
1c006614:	0280018c 	addi.w	$r12,$r12,0
1c006618:	1420408b 	lu12i.w	$r11,66052(0x10204)
1c00661c:	02938d6b 	addi.w	$r11,$r11,1251(0x4e3)
1c006620:	298c318d 	st.w	$r13,$r12,780(0x30c)
1c006624:	02801184 	addi.w	$r4,$r12,4(0x4)
1c006628:	02bfe185 	addi.w	$r5,$r12,-8(0xff8)
1c00662c:	298c3084 	st.w	$r4,$r4,780(0x30c)
1c006630:	298c30a5 	st.w	$r5,$r5,780(0x30c)
1c006634:	288c318a 	ld.w	$r10,$r12,780(0x30c)
1c006638:	288c3086 	ld.w	$r6,$r4,780(0x30c)
1c00663c:	288c30a4 	ld.w	$r4,$r5,780(0x30c)
1c006640:	288c30a6 	ld.w	$r6,$r5,780(0x30c)
1c006644:	5c004d4b 	bne	$r10,$r11,76(0x4c) # 1c006690 <inst_error>
1c006648:	15fe1e4d 	lu12i.w	$r13,-3854(0xff0f2)
1c00664c:	02817dad 	addi.w	$r13,$r13,95(0x5f)
1c006650:	14001a0c 	lu12i.w	$r12,208(0xd0)
1c006654:	0280018c 	addi.w	$r12,$r12,0
1c006658:	15fe1e4b 	lu12i.w	$r11,-3854(0xff0f2)
1c00665c:	02817d6b 	addi.w	$r11,$r11,95(0x5f)
1c006660:	299f818d 	st.w	$r13,$r12,2016(0x7e0)
1c006664:	02801184 	addi.w	$r4,$r12,4(0x4)
1c006668:	02bfe185 	addi.w	$r5,$r12,-8(0xff8)
1c00666c:	299f8084 	st.w	$r4,$r4,2016(0x7e0)
1c006670:	299f80a5 	st.w	$r5,$r5,2016(0x7e0)
1c006674:	289f818a 	ld.w	$r10,$r12,2016(0x7e0)
1c006678:	289f8086 	ld.w	$r6,$r4,2016(0x7e0)
1c00667c:	289f80a4 	ld.w	$r4,$r5,2016(0x7e0)
1c006680:	289f80a6 	ld.w	$r6,$r5,2016(0x7e0)
1c006684:	5c000d4b 	bne	$r10,$r11,12(0xc) # 1c006690 <inst_error>
1c006688:	5c000b20 	bne	$r25,$r0,8(0x8) # 1c006690 <inst_error>
1c00668c:	0280075a 	addi.w	$r26,$r26,1(0x1)

1c006690 <inst_error>:
1c006690:	0040e2ed 	slli.w	$r13,$r23,0x18
1c006694:	001569ac 	or	$r12,$r13,$r26
1c006698:	2980030c 	st.w	$r12,$r24,0
1c00669c:	4c000020 	jirl	$r0,$r1,0

1c0066a0 <n8_or_test>:
n8_or_test():
1c0066a0:	028006f7 	addi.w	$r23,$r23,1(0x1)
1c0066a4:	00150019 	move	$r25,$r0
1c0066a8:	14a1c82c 	lu12i.w	$r12,331329(0x50e41)
1c0066ac:	0292118c 	addi.w	$r12,$r12,1156(0x484)
1c0066b0:	155a6bed 	lu12i.w	$r13,-339105(0xad35f)
1c0066b4:	02aa51ad 	addi.w	$r13,$r13,-1388(0xa94)
1c0066b8:	15fbec0b 	lu12i.w	$r11,-8352(0xfdf60)
1c0066bc:	02ba516b 	addi.w	$r11,$r11,-364(0xe94)
1c0066c0:	0015358a 	or	$r10,$r12,$r13
1c0066c4:	5c058d4b 	bne	$r10,$r11,1420(0x58c) # 1c006c50 <inst_error>
1c0066c8:	15777f6c 	lu12i.w	$r12,-279557(0xbbbfb)
1c0066cc:	02bf918c 	addi.w	$r12,$r12,-28(0xfe4)
1c0066d0:	1591d28d 	lu12i.w	$r13,-225644(0xc8e94)
1c0066d4:	029001ad 	addi.w	$r13,$r13,1024(0x400)
1c0066d8:	15f7ffeb 	lu12i.w	$r11,-16385(0xfbfff)
1c0066dc:	02bf916b 	addi.w	$r11,$r11,-28(0xfe4)
1c0066e0:	0015358a 	or	$r10,$r12,$r13
1c0066e4:	5c056d4b 	bne	$r10,$r11,1388(0x56c) # 1c006c50 <inst_error>
1c0066e8:	15e527ec 	lu12i.w	$r12,-54977(0xf293f)
1c0066ec:	0284d18c 	addi.w	$r12,$r12,308(0x134)
1c0066f0:	154f990d 	lu12i.w	$r13,-361272(0xa7cc8)
1c0066f4:	02a629ad 	addi.w	$r13,$r13,-1654(0x98a)
1c0066f8:	15efc00b 	lu12i.w	$r11,-33280(0xf7e00)
1c0066fc:	02a6f96b 	addi.w	$r11,$r11,-1602(0x9be)
1c006700:	0015358a 	or	$r10,$r12,$r13
1c006704:	5c054d4b 	bne	$r10,$r11,1356(0x54c) # 1c006c50 <inst_error>
1c006708:	15f69dec 	lu12i.w	$r12,-19217(0xfb4ef)
1c00670c:	02b9798c 	addi.w	$r12,$r12,-418(0xe5e)
1c006710:	14cd2d2d 	lu12i.w	$r13,420201(0x66969)
1c006714:	02aa41ad 	addi.w	$r13,$r13,-1392(0xa90)
1c006718:	15ffbdeb 	lu12i.w	$r11,-529(0xffdef)
1c00671c:	02bb796b 	addi.w	$r11,$r11,-290(0xede)
1c006720:	0015358a 	or	$r10,$r12,$r13
1c006724:	5c052d4b 	bne	$r10,$r11,1324(0x52c) # 1c006c50 <inst_error>
1c006728:	1579312c 	lu12i.w	$r12,-276087(0xbc989)
1c00672c:	02abdd8c 	addi.w	$r12,$r12,-1289(0xaf7)
1c006730:	1530dc4d 	lu12i.w	$r13,-424222(0x986e2)
1c006734:	0284d9ad 	addi.w	$r13,$r13,310(0x136)
1c006738:	1579fd6b 	lu12i.w	$r11,-274453(0xbcfeb)
1c00673c:	02afdd6b 	addi.w	$r11,$r11,-1033(0xbf7)
1c006740:	0015358a 	or	$r10,$r12,$r13
1c006744:	5c050d4b 	bne	$r10,$r11,1292(0x50c) # 1c006c50 <inst_error>
1c006748:	143d8f0c 	lu12i.w	$r12,126072(0x1ec78)
1c00674c:	02ae518c 	addi.w	$r12,$r12,-1132(0xb94)
1c006750:	1437e56d 	lu12i.w	$r13,114475(0x1bf2b)
1c006754:	029731ad 	addi.w	$r13,$r13,1484(0x5cc)
1c006758:	143ff00b 	lu12i.w	$r11,130944(0x1ff80)
1c00675c:	02bf716b 	addi.w	$r11,$r11,-36(0xfdc)
1c006760:	0015358a 	or	$r10,$r12,$r13
1c006764:	5c04ed4b 	bne	$r10,$r11,1260(0x4ec) # 1c006c50 <inst_error>
1c006768:	147e9e8c 	lu12i.w	$r12,259316(0x3f4f4)
1c00676c:	0283298c 	addi.w	$r12,$r12,202(0xca)
1c006770:	15137f0d 	lu12i.w	$r13,-484360(0x89bf8)
1c006774:	029ac9ad 	addi.w	$r13,$r13,1714(0x6b2)
1c006778:	157fff8b 	lu12i.w	$r11,-262148(0xbfffc)
1c00677c:	029be96b 	addi.w	$r11,$r11,1786(0x6fa)
1c006780:	0015358a 	or	$r10,$r12,$r13
1c006784:	5c04cd4b 	bne	$r10,$r11,1228(0x4cc) # 1c006c50 <inst_error>
1c006788:	159f2f6c 	lu12i.w	$r12,-198277(0xcf97b)
1c00678c:	02bfa18c 	addi.w	$r12,$r12,-24(0xfe8)
1c006790:	147908cd 	lu12i.w	$r13,247878(0x3c846)
1c006794:	02aa25ad 	addi.w	$r13,$r13,-1399(0xa89)
1c006798:	15ff300b 	lu12i.w	$r11,-1664(0xff980)
1c00679c:	02bfa56b 	addi.w	$r11,$r11,-23(0xfe9)
1c0067a0:	0015358a 	or	$r10,$r12,$r13
1c0067a4:	5c04ad4b 	bne	$r10,$r11,1196(0x4ac) # 1c006c50 <inst_error>
1c0067a8:	14e924ec 	lu12i.w	$r12,477479(0x74927)
1c0067ac:	02bbb18c 	addi.w	$r12,$r12,-276(0xeec)
1c0067b0:	14aadb8d 	lu12i.w	$r13,349916(0x556dc)
1c0067b4:	028771ad 	addi.w	$r13,$r13,476(0x1dc)
1c0067b8:	14ebffeb 	lu12i.w	$r11,483327(0x75fff)
1c0067bc:	02bff16b 	addi.w	$r11,$r11,-4(0xffc)
1c0067c0:	0015358a 	or	$r10,$r12,$r13
1c0067c4:	5c048d4b 	bne	$r10,$r11,1164(0x48c) # 1c006c50 <inst_error>
1c0067c8:	157738ac 	lu12i.w	$r12,-280123(0xbb9c5)
1c0067cc:	0289618c 	addi.w	$r12,$r12,600(0x258)
1c0067d0:	1581216d 	lu12i.w	$r13,-259829(0xc090b)
1c0067d4:	02a841ad 	addi.w	$r13,$r13,-1520(0xa10)
1c0067d8:	15f73a0b 	lu12i.w	$r11,-17968(0xfb9d0)
1c0067dc:	02a9616b 	addi.w	$r11,$r11,-1448(0xa58)
1c0067e0:	0015358a 	or	$r10,$r12,$r13
1c0067e4:	5c046d4b 	bne	$r10,$r11,1132(0x46c) # 1c006c50 <inst_error>
1c0067e8:	1595ae8c 	lu12i.w	$r12,-217740(0xcad74)
1c0067ec:	0299018c 	addi.w	$r12,$r12,1600(0x640)
1c0067f0:	15b651cd 	lu12i.w	$r13,-150898(0xdb28e)
1c0067f4:	028605ad 	addi.w	$r13,$r13,385(0x181)
1c0067f8:	15b7ffcb 	lu12i.w	$r11,-147458(0xdbffe)
1c0067fc:	029f056b 	addi.w	$r11,$r11,1985(0x7c1)
1c006800:	0015358a 	or	$r10,$r12,$r13
1c006804:	5c044d4b 	bne	$r10,$r11,1100(0x44c) # 1c006c50 <inst_error>
1c006808:	1467642c 	lu12i.w	$r12,211745(0x33b21)
1c00680c:	0292e18c 	addi.w	$r12,$r12,1208(0x4b8)
1c006810:	1594f28d 	lu12i.w	$r13,-219244(0xca794)
1c006814:	02b1a9ad 	addi.w	$r13,$r13,-918(0xc6a)
1c006818:	15f7f68b 	lu12i.w	$r11,-16460(0xfbfb4)
1c00681c:	02b3e96b 	addi.w	$r11,$r11,-774(0xcfa)
1c006820:	0015358a 	or	$r10,$r12,$r13
1c006824:	5c042d4b 	bne	$r10,$r11,1068(0x42c) # 1c006c50 <inst_error>
1c006828:	14c5c72c 	lu12i.w	$r12,405049(0x62e39)
1c00682c:	0285318c 	addi.w	$r12,$r12,332(0x14c)
1c006830:	14cec56d 	lu12i.w	$r13,423467(0x6762b)
1c006834:	02ad15ad 	addi.w	$r13,$r13,-1211(0xb45)
1c006838:	14cfc78b 	lu12i.w	$r11,425532(0x67e3c)
1c00683c:	02ad356b 	addi.w	$r11,$r11,-1203(0xb4d)
1c006840:	0015358a 	or	$r10,$r12,$r13
1c006844:	5c040d4b 	bne	$r10,$r11,1036(0x40c) # 1c006c50 <inst_error>
1c006848:	14d3ff4c 	lu12i.w	$r12,434170(0x69ffa)
1c00684c:	02ba818c 	addi.w	$r12,$r12,-352(0xea0)
1c006850:	1492208d 	lu12i.w	$r13,299268(0x49104)
1c006854:	0294b1ad 	addi.w	$r13,$r13,1324(0x52c)
1c006858:	14d3ffcb 	lu12i.w	$r11,434174(0x69ffe)
1c00685c:	02beb16b 	addi.w	$r11,$r11,-84(0xfac)
1c006860:	0015358a 	or	$r10,$r12,$r13
1c006864:	5c03ed4b 	bne	$r10,$r11,1004(0x3ec) # 1c006c50 <inst_error>
1c006868:	1438978c 	lu12i.w	$r12,115900(0x1c4bc)
1c00686c:	0293a18c 	addi.w	$r12,$r12,1256(0x4e8)
1c006870:	14b5d56d 	lu12i.w	$r13,372395(0x5aeab)
1c006874:	029851ad 	addi.w	$r13,$r13,1556(0x614)
1c006878:	14bdd7eb 	lu12i.w	$r11,388799(0x5eebf)
1c00687c:	029bf16b 	addi.w	$r11,$r11,1788(0x6fc)
1c006880:	0015358a 	or	$r10,$r12,$r13
1c006884:	5c03cd4b 	bne	$r10,$r11,972(0x3cc) # 1c006c50 <inst_error>
1c006888:	141950cc 	lu12i.w	$r12,51846(0xca86)
1c00688c:	0285118c 	addi.w	$r12,$r12,324(0x144)
1c006890:	147ffb6d 	lu12i.w	$r13,262107(0x3ffdb)
1c006894:	029531ad 	addi.w	$r13,$r13,1356(0x54c)
1c006898:	147ffbeb 	lu12i.w	$r11,262111(0x3ffdf)
1c00689c:	0295316b 	addi.w	$r11,$r11,1356(0x54c)
1c0068a0:	0015358a 	or	$r10,$r12,$r13
1c0068a4:	5c03ad4b 	bne	$r10,$r11,940(0x3ac) # 1c006c50 <inst_error>
1c0068a8:	15638eec 	lu12i.w	$r12,-320393(0xb1c77)
1c0068ac:	028c698c 	addi.w	$r12,$r12,794(0x31a)
1c0068b0:	15f492cd 	lu12i.w	$r13,-23402(0xfa496)
1c0068b4:	028871ad 	addi.w	$r13,$r13,540(0x21c)
1c0068b8:	15f79eeb 	lu12i.w	$r11,-17161(0xfbcf7)
1c0068bc:	028c796b 	addi.w	$r11,$r11,798(0x31e)
1c0068c0:	0015358a 	or	$r10,$r12,$r13
1c0068c4:	5c038d4b 	bne	$r10,$r11,908(0x38c) # 1c006c50 <inst_error>
1c0068c8:	1567b10c 	lu12i.w	$r12,-311928(0xb3d88)
1c0068cc:	0299258c 	addi.w	$r12,$r12,1609(0x649)
1c0068d0:	152c146d 	lu12i.w	$r13,-434013(0x960a3)
1c0068d4:	02a0b9ad 	addi.w	$r13,$r13,-2002(0x82e)
1c0068d8:	156fb56b 	lu12i.w	$r11,-295509(0xb7dab)
1c0068dc:	02b9bd6b 	addi.w	$r11,$r11,-401(0xe6f)
1c0068e0:	0015358a 	or	$r10,$r12,$r13
1c0068e4:	5c036d4b 	bne	$r10,$r11,876(0x36c) # 1c006c50 <inst_error>
1c0068e8:	14af5b8c 	lu12i.w	$r12,359132(0x57adc)
1c0068ec:	02be518c 	addi.w	$r12,$r12,-108(0xf94)
1c0068f0:	153435ad 	lu12i.w	$r13,-417363(0x9a1ad)
1c0068f4:	02bd01ad 	addi.w	$r13,$r13,-192(0xf40)
1c0068f8:	15bf800b 	lu12i.w	$r11,-132096(0xdfc00)
1c0068fc:	02bf516b 	addi.w	$r11,$r11,-44(0xfd4)
1c006900:	0015358a 	or	$r10,$r12,$r13
1c006904:	5c034d4b 	bne	$r10,$r11,844(0x34c) # 1c006c50 <inst_error>
1c006908:	15ebfbec 	lu12i.w	$r12,-40993(0xf5fdf)
1c00690c:	0288e18c 	addi.w	$r12,$r12,568(0x238)
1c006910:	14fcee0d 	lu12i.w	$r13,518000(0x7e770)
1c006914:	0297d9ad 	addi.w	$r13,$r13,1526(0x5f6)
1c006918:	15ffffeb 	lu12i.w	$r11,-1(0xfffff)
1c00691c:	029ff96b 	addi.w	$r11,$r11,2046(0x7fe)
1c006920:	0015358a 	or	$r10,$r12,$r13
1c006924:	5c032d4b 	bne	$r10,$r11,812(0x32c) # 1c006c50 <inst_error>
1c006928:	15af1f8c 	lu12i.w	$r12,-165636(0xd78fc)
1c00692c:	02b8018c 	addi.w	$r12,$r12,-512(0xe00)
1c006930:	14f8ab8d 	lu12i.w	$r13,509276(0x7c55c)
1c006934:	028a01ad 	addi.w	$r13,$r13,640(0x280)
1c006938:	15ffc00b 	lu12i.w	$r11,-512(0xffe00)
1c00693c:	02ba016b 	addi.w	$r11,$r11,-384(0xe80)
1c006940:	0015358a 	or	$r10,$r12,$r13
1c006944:	5c030d4b 	bne	$r10,$r11,780(0x30c) # 1c006c50 <inst_error>
1c006948:	15d868ac 	lu12i.w	$r12,-81083(0xec345)
1c00694c:	02b0798c 	addi.w	$r12,$r12,-994(0xc1e)
1c006950:	155b026d 	lu12i.w	$r13,-337901(0xad813)
1c006954:	029d79ad 	addi.w	$r13,$r13,1886(0x75e)
1c006958:	15db6b0b 	lu12i.w	$r11,-74920(0xedb58)
1c00695c:	02bd796b 	addi.w	$r11,$r11,-162(0xf5e)
1c006960:	0015358a 	or	$r10,$r12,$r13
1c006964:	5c02ed4b 	bne	$r10,$r11,748(0x2ec) # 1c006c50 <inst_error>
1c006968:	143befec 	lu12i.w	$r12,122751(0x1df7f)
1c00696c:	02a9f18c 	addi.w	$r12,$r12,-1412(0xa7c)
1c006970:	157e80ed 	lu12i.w	$r13,-265209(0xbf407)
1c006974:	029729ad 	addi.w	$r13,$r13,1482(0x5ca)
1c006978:	157ff00b 	lu12i.w	$r11,-262272(0xbff80)
1c00697c:	02bff96b 	addi.w	$r11,$r11,-2(0xffe)
1c006980:	0015358a 	or	$r10,$r12,$r13
1c006984:	5c02cd4b 	bne	$r10,$r11,716(0x2cc) # 1c006c50 <inst_error>
1c006988:	15636bac 	lu12i.w	$r12,-320675(0xb1b5d)
1c00698c:	02b5918c 	addi.w	$r12,$r12,-668(0xd64)
1c006990:	15fdd2cd 	lu12i.w	$r13,-4458(0xfee96)
1c006994:	02a481ad 	addi.w	$r13,$r13,-1760(0x920)
1c006998:	15fffbcb 	lu12i.w	$r11,-34(0xfffde)
1c00699c:	02b5916b 	addi.w	$r11,$r11,-668(0xd64)
1c0069a0:	0015358a 	or	$r10,$r12,$r13
1c0069a4:	5c02ad4b 	bne	$r10,$r11,684(0x2ac) # 1c006c50 <inst_error>
1c0069a8:	14621f0c 	lu12i.w	$r12,200952(0x310f8)
1c0069ac:	028e818c 	addi.w	$r12,$r12,928(0x3a0)
1c0069b0:	15b2d4ad 	lu12i.w	$r13,-158043(0xd96a5)
1c0069b4:	028421ad 	addi.w	$r13,$r13,264(0x108)
1c0069b8:	15f2dfab 	lu12i.w	$r11,-26883(0xf96fd)
1c0069bc:	028ea16b 	addi.w	$r11,$r11,936(0x3a8)
1c0069c0:	0015358a 	or	$r10,$r12,$r13
1c0069c4:	5c028d4b 	bne	$r10,$r11,652(0x28c) # 1c006c50 <inst_error>
1c0069c8:	14965f8c 	lu12i.w	$r12,307964(0x4b2fc)
1c0069cc:	02bbdd8c 	addi.w	$r12,$r12,-265(0xef7)
1c0069d0:	14b8852d 	lu12i.w	$r13,377897(0x5c429)
1c0069d4:	0298c9ad 	addi.w	$r13,$r13,1586(0x632)
1c0069d8:	14bedf8b 	lu12i.w	$r11,390908(0x5f6fc)
1c0069dc:	02bbdd6b 	addi.w	$r11,$r11,-265(0xef7)
1c0069e0:	0015358a 	or	$r10,$r12,$r13
1c0069e4:	5c026d4b 	bne	$r10,$r11,620(0x26c) # 1c006c50 <inst_error>
1c0069e8:	15d5ee8c 	lu12i.w	$r12,-86156(0xeaf74)
1c0069ec:	0297298c 	addi.w	$r12,$r12,1482(0x5ca)
1c0069f0:	14cac0ad 	lu12i.w	$r13,415237(0x65605)
1c0069f4:	02a771ad 	addi.w	$r13,$r13,-1572(0x9dc)
1c0069f8:	15dfeeab 	lu12i.w	$r11,-65675(0xeff75)
1c0069fc:	02b7796b 	addi.w	$r11,$r11,-546(0xdde)
1c006a00:	0015358a 	or	$r10,$r12,$r13
1c006a04:	5c024d4b 	bne	$r10,$r11,588(0x24c) # 1c006c50 <inst_error>
1c006a08:	157835ec 	lu12i.w	$r12,-278097(0xbc1af)
1c006a0c:	0282218c 	addi.w	$r12,$r12,136(0x88)
1c006a10:	15119d2d 	lu12i.w	$r13,-488215(0x88ce9)
1c006a14:	028a29ad 	addi.w	$r13,$r13,650(0x28a)
1c006a18:	1579bdeb 	lu12i.w	$r11,-274961(0xbcdef)
1c006a1c:	028a296b 	addi.w	$r11,$r11,650(0x28a)
1c006a20:	0015358a 	or	$r10,$r12,$r13
1c006a24:	5c022d4b 	bne	$r10,$r11,556(0x22c) # 1c006c50 <inst_error>
1c006a28:	14ac106c 	lu12i.w	$r12,352387(0x56083)
1c006a2c:	02b3818c 	addi.w	$r12,$r12,-800(0xce0)
1c006a30:	141e478d 	lu12i.w	$r13,62012(0xf23c)
1c006a34:	029541ad 	addi.w	$r13,$r13,1360(0x550)
1c006a38:	14be57eb 	lu12i.w	$r11,389823(0x5f2bf)
1c006a3c:	02b7c16b 	addi.w	$r11,$r11,-528(0xdf0)
1c006a40:	0015358a 	or	$r10,$r12,$r13
1c006a44:	5c020d4b 	bne	$r10,$r11,524(0x20c) # 1c006c50 <inst_error>
1c006a48:	15b746ec 	lu12i.w	$r12,-148937(0xdba37)
1c006a4c:	02b0258c 	addi.w	$r12,$r12,-1015(0xc09)
1c006a50:	148bd34d 	lu12i.w	$r13,286362(0x45e9a)
1c006a54:	029261ad 	addi.w	$r13,$r13,1176(0x498)
1c006a58:	15bfd7eb 	lu12i.w	$r11,-131393(0xdfebf)
1c006a5c:	02b2656b 	addi.w	$r11,$r11,-871(0xc99)
1c006a60:	0015358a 	or	$r10,$r12,$r13
1c006a64:	5c01ed4b 	bne	$r10,$r11,492(0x1ec) # 1c006c50 <inst_error>
1c006a68:	147d3b2c 	lu12i.w	$r12,256473(0x3e9d9)
1c006a6c:	028c818c 	addi.w	$r12,$r12,800(0x320)
1c006a70:	14cd298d 	lu12i.w	$r13,420172(0x6694c)
1c006a74:	02aee5ad 	addi.w	$r13,$r13,-1095(0xbb9)
1c006a78:	14fd3b8b 	lu12i.w	$r11,518620(0x7e9dc)
1c006a7c:	02aee56b 	addi.w	$r11,$r11,-1095(0xbb9)
1c006a80:	0015358a 	or	$r10,$r12,$r13
1c006a84:	5c01cd4b 	bne	$r10,$r11,460(0x1cc) # 1c006c50 <inst_error>
1c006a88:	1561016c 	lu12i.w	$r12,-325621(0xb080b)
1c006a8c:	02af9d8c 	addi.w	$r12,$r12,-1049(0xbe7)
1c006a90:	148ce08d 	lu12i.w	$r13,288516(0x46704)
1c006a94:	028f39ad 	addi.w	$r13,$r13,974(0x3ce)
1c006a98:	15ede1eb 	lu12i.w	$r11,-37105(0xf6f0f)
1c006a9c:	02afbd6b 	addi.w	$r11,$r11,-1041(0xbef)
1c006aa0:	0015358a 	or	$r10,$r12,$r13
1c006aa4:	5c01ad4b 	bne	$r10,$r11,428(0x1ac) # 1c006c50 <inst_error>
1c006aa8:	14e8338c 	lu12i.w	$r12,475548(0x7419c)
1c006aac:	02bac18c 	addi.w	$r12,$r12,-336(0xeb0)
1c006ab0:	1469596d 	lu12i.w	$r13,215755(0x34acb)
1c006ab4:	028301ad 	addi.w	$r13,$r13,192(0xc0)
1c006ab8:	14e97b8b 	lu12i.w	$r11,478172(0x74bdc)
1c006abc:	02bbc16b 	addi.w	$r11,$r11,-272(0xef0)
1c006ac0:	0015358a 	or	$r10,$r12,$r13
1c006ac4:	5c018d4b 	bne	$r10,$r11,396(0x18c) # 1c006c50 <inst_error>
1c006ac8:	1462ec6c 	lu12i.w	$r12,202595(0x31763)
1c006acc:	0297e18c 	addi.w	$r12,$r12,1528(0x5f8)
1c006ad0:	142326cd 	lu12i.w	$r13,71990(0x11936)
1c006ad4:	02ad31ad 	addi.w	$r13,$r13,-1204(0xb4c)
1c006ad8:	1463ef0b 	lu12i.w	$r11,204664(0x31f78)
1c006adc:	02bff16b 	addi.w	$r11,$r11,-4(0xffc)
1c006ae0:	0015358a 	or	$r10,$r12,$r13
1c006ae4:	5c016d4b 	bne	$r10,$r11,364(0x16c) # 1c006c50 <inst_error>
1c006ae8:	15e0a4cc 	lu12i.w	$r12,-64218(0xf0526)
1c006aec:	02b2818c 	addi.w	$r12,$r12,-864(0xca0)
1c006af0:	14a5d0cd 	lu12i.w	$r13,339590(0x52e86)
1c006af4:	02b0b9ad 	addi.w	$r13,$r13,-978(0xc2e)
1c006af8:	15e5f4cb 	lu12i.w	$r11,-53338(0xf2fa6)
1c006afc:	02b2b96b 	addi.w	$r11,$r11,-850(0xcae)
1c006b00:	0015358a 	or	$r10,$r12,$r13
1c006b04:	5c014d4b 	bne	$r10,$r11,332(0x14c) # 1c006c50 <inst_error>
1c006b08:	1554866c 	lu12i.w	$r12,-351181(0xaa433)
1c006b0c:	0298018c 	addi.w	$r12,$r12,1536(0x600)
1c006b10:	14e8ff4d 	lu12i.w	$r13,477178(0x747fa)
1c006b14:	02aa05ad 	addi.w	$r13,$r13,-1407(0xa81)
1c006b18:	15fcff8b 	lu12i.w	$r11,-6148(0xfe7fc)
1c006b1c:	02ba056b 	addi.w	$r11,$r11,-383(0xe81)
1c006b20:	0015358a 	or	$r10,$r12,$r13
1c006b24:	5c012d4b 	bne	$r10,$r11,300(0x12c) # 1c006c50 <inst_error>
1c006b28:	155c0d0c 	lu12i.w	$r12,-335768(0xae068)
1c006b2c:	02a9418c 	addi.w	$r12,$r12,-1456(0xa50)
1c006b30:	159c0b2d 	lu12i.w	$r13,-204711(0xce059)
1c006b34:	02b9b9ad 	addi.w	$r13,$r13,-402(0xe6e)
1c006b38:	15dc100b 	lu12i.w	$r11,-73600(0xee080)
1c006b3c:	02b9f96b 	addi.w	$r11,$r11,-386(0xe7e)
1c006b40:	0015358a 	or	$r10,$r12,$r13
1c006b44:	5c010d4b 	bne	$r10,$r11,268(0x10c) # 1c006c50 <inst_error>
1c006b48:	14eb4e0c 	lu12i.w	$r12,481904(0x75a70)
1c006b4c:	0298618c 	addi.w	$r12,$r12,1560(0x618)
1c006b50:	141e316d 	lu12i.w	$r13,61835(0xf18b)
1c006b54:	028031ad 	addi.w	$r13,$r13,12(0xc)
1c006b58:	14ff7f6b 	lu12i.w	$r11,523259(0x7fbfb)
1c006b5c:	0298716b 	addi.w	$r11,$r11,1564(0x61c)
1c006b60:	0015358a 	or	$r10,$r12,$r13
1c006b64:	5c00ed4b 	bne	$r10,$r11,236(0xec) # 1c006c50 <inst_error>
1c006b68:	149f1b4c 	lu12i.w	$r12,325850(0x4f8da)
1c006b6c:	0296018c 	addi.w	$r12,$r12,1408(0x580)
1c006b70:	14b52ced 	lu12i.w	$r13,371047(0x5a967)
1c006b74:	02be39ad 	addi.w	$r13,$r13,-114(0xf8e)
1c006b78:	14bf3feb 	lu12i.w	$r11,391679(0x5f9ff)
1c006b7c:	02be396b 	addi.w	$r11,$r11,-114(0xf8e)
1c006b80:	0015358a 	or	$r10,$r12,$r13
1c006b84:	5c00cd4b 	bne	$r10,$r11,204(0xcc) # 1c006c50 <inst_error>
1c006b88:	15f1adcc 	lu12i.w	$r12,-29330(0xf8d6e)
1c006b8c:	0297318c 	addi.w	$r12,$r12,1484(0x5cc)
1c006b90:	1510394d 	lu12i.w	$r13,-491062(0x881ca)
1c006b94:	02a5c1ad 	addi.w	$r13,$r13,-1680(0x970)
1c006b98:	15f1be0b 	lu12i.w	$r11,-29200(0xf8df0)
1c006b9c:	02b7f16b 	addi.w	$r11,$r11,-516(0xdfc)
1c006ba0:	0015358a 	or	$r10,$r12,$r13
1c006ba4:	5c00ad4b 	bne	$r10,$r11,172(0xac) # 1c006c50 <inst_error>
1c006ba8:	158f132c 	lu12i.w	$r12,-231271(0xc7899)
1c006bac:	02bf718c 	addi.w	$r12,$r12,-36(0xfdc)
1c006bb0:	159294ad 	lu12i.w	$r13,-224091(0xc94a5)
1c006bb4:	02acc1ad 	addi.w	$r13,$r13,-1232(0xb30)
1c006bb8:	159f97ab 	lu12i.w	$r11,-197443(0xcfcbd)
1c006bbc:	02bff16b 	addi.w	$r11,$r11,-4(0xffc)
1c006bc0:	0015358a 	or	$r10,$r12,$r13
1c006bc4:	5c008d4b 	bne	$r10,$r11,140(0x8c) # 1c006c50 <inst_error>
1c006bc8:	151b784c 	lu12i.w	$r12,-468030(0x8dbc2)
1c006bcc:	0299218c 	addi.w	$r12,$r12,1608(0x648)
1c006bd0:	154379ad 	lu12i.w	$r13,-386099(0xa1bcd)
1c006bd4:	02a401ad 	addi.w	$r13,$r13,-1792(0x900)
1c006bd8:	155b79eb 	lu12i.w	$r11,-336945(0xadbcf)
1c006bdc:	02bd216b 	addi.w	$r11,$r11,-184(0xf48)
1c006be0:	0015358a 	or	$r10,$r12,$r13
1c006be4:	5c006d4b 	bne	$r10,$r11,108(0x6c) # 1c006c50 <inst_error>
1c006be8:	151cb20c 	lu12i.w	$r12,-465520(0x8e590)
1c006bec:	02a8418c 	addi.w	$r12,$r12,-1520(0xa10)
1c006bf0:	15f3aead 	lu12i.w	$r13,-25227(0xf9d75)
1c006bf4:	02a941ad 	addi.w	$r13,$r13,-1456(0xa50)
1c006bf8:	15ffc00b 	lu12i.w	$r11,-512(0xffe00)
1c006bfc:	02a9416b 	addi.w	$r11,$r11,-1456(0xa50)
1c006c00:	0015358a 	or	$r10,$r12,$r13
1c006c04:	5c004d4b 	bne	$r10,$r11,76(0x4c) # 1c006c50 <inst_error>
1c006c08:	14530f4c 	lu12i.w	$r12,170106(0x2987a)
1c006c0c:	0288598c 	addi.w	$r12,$r12,534(0x216)
1c006c10:	1552f52d 	lu12i.w	$r13,-354391(0xa97a9)
1c006c14:	029401ad 	addi.w	$r13,$r13,1280(0x500)
1c006c18:	1553ff6b 	lu12i.w	$r11,-352261(0xa9ffb)
1c006c1c:	029c596b 	addi.w	$r11,$r11,1814(0x716)
1c006c20:	0015358a 	or	$r10,$r12,$r13
1c006c24:	5c002d4b 	bne	$r10,$r11,44(0x2c) # 1c006c50 <inst_error>
1c006c28:	15ef9c8c 	lu12i.w	$r12,-33564(0xf7ce4)
1c006c2c:	02b9d18c 	addi.w	$r12,$r12,-396(0xe74)
1c006c30:	151c3aad 	lu12i.w	$r13,-466475(0x8e1d5)
1c006c34:	02ae01ad 	addi.w	$r13,$r13,-1152(0xb80)
1c006c38:	15ffbf0b 	lu12i.w	$r11,-520(0xffdf8)
1c006c3c:	02bfd16b 	addi.w	$r11,$r11,-12(0xff4)
1c006c40:	0015358a 	or	$r10,$r12,$r13
1c006c44:	5c000d4b 	bne	$r10,$r11,12(0xc) # 1c006c50 <inst_error>
1c006c48:	5c000b20 	bne	$r25,$r0,8(0x8) # 1c006c50 <inst_error>
1c006c4c:	0280075a 	addi.w	$r26,$r26,1(0x1)

1c006c50 <inst_error>:
1c006c50:	0040e2ed 	slli.w	$r13,$r23,0x18
1c006c54:	001569ac 	or	$r12,$r13,$r26
1c006c58:	2980030c 	st.w	$r12,$r24,0
1c006c5c:	4c000020 	jirl	$r0,$r1,0

1c006c60 <n3_addi_w_test>:
n3_addi_w_test():
1c006c60:	028006f7 	addi.w	$r23,$r23,1(0x1)
1c006c64:	00150019 	move	$r25,$r0
1c006c68:	15f64c8c 	lu12i.w	$r12,-19868(0xfb264)
1c006c6c:	02b4418c 	addi.w	$r12,$r12,-752(0xd10)
1c006c70:	15f64c8b 	lu12i.w	$r11,-19868(0xfb264)
1c006c74:	02a6996b 	addi.w	$r11,$r11,-1626(0x9a6)
1c006c78:	02b2598a 	addi.w	$r10,$r12,-874(0xc96)
1c006c7c:	5c063d4b 	bne	$r10,$r11,1596(0x63c) # 1c0072b8 <inst_error>
1c006c80:	14fd820c 	lu12i.w	$r12,519184(0x7ec10)
1c006c84:	0294e18c 	addi.w	$r12,$r12,1336(0x538)
1c006c88:	14fd820b 	lu12i.w	$r11,519184(0x7ec10)
1c006c8c:	02bb396b 	addi.w	$r11,$r11,-306(0xece)
1c006c90:	02a6598a 	addi.w	$r10,$r12,-1642(0x996)
1c006c94:	5c06254b 	bne	$r10,$r11,1572(0x624) # 1c0072b8 <inst_error>
1c006c98:	141ca0cc 	lu12i.w	$r12,58630(0xe506)
1c006c9c:	02a8018c 	addi.w	$r12,$r12,-1536(0xa00)
1c006ca0:	141ca0cb 	lu12i.w	$r11,58630(0xe506)
1c006ca4:	0284616b 	addi.w	$r11,$r11,280(0x118)
1c006ca8:	029c618a 	addi.w	$r10,$r12,1816(0x718)
1c006cac:	5c060d4b 	bne	$r10,$r11,1548(0x60c) # 1c0072b8 <inst_error>
1c006cb0:	154a458c 	lu12i.w	$r12,-372180(0xa522c)
1c006cb4:	02a75d8c 	addi.w	$r12,$r12,-1577(0x9d7)
1c006cb8:	154a458b 	lu12i.w	$r11,-372180(0xa522c)
1c006cbc:	02856d6b 	addi.w	$r11,$r11,347(0x15b)
1c006cc0:	029e118a 	addi.w	$r10,$r12,1924(0x784)
1c006cc4:	5c05f54b 	bne	$r10,$r11,1524(0x5f4) # 1c0072b8 <inst_error>
1c006cc8:	15368bac 	lu12i.w	$r12,-412579(0x9b45d)
1c006ccc:	029f018c 	addi.w	$r12,$r12,1984(0x7c0)
1c006cd0:	15368bcb 	lu12i.w	$r11,-412578(0x9b45e)
1c006cd4:	02ba496b 	addi.w	$r11,$r11,-366(0xe92)
1c006cd8:	029b498a 	addi.w	$r10,$r12,1746(0x6d2)
1c006cdc:	5c05dd4b 	bne	$r10,$r11,1500(0x5dc) # 1c0072b8 <inst_error>
1c006ce0:	15498cac 	lu12i.w	$r12,-373659(0xa4c65)
1c006ce4:	0296e18c 	addi.w	$r12,$r12,1464(0x5b8)
1c006ce8:	15498cab 	lu12i.w	$r11,-373659(0xa4c65)
1c006cec:	0288696b 	addi.w	$r11,$r11,538(0x21a)
1c006cf0:	02b1898a 	addi.w	$r10,$r12,-926(0xc62)
1c006cf4:	5c05c54b 	bne	$r10,$r11,1476(0x5c4) # 1c0072b8 <inst_error>
1c006cf8:	154a56ec 	lu12i.w	$r12,-372041(0xa52b7)
1c006cfc:	02a5e98c 	addi.w	$r12,$r12,-1670(0x97a)
1c006d00:	154a56eb 	lu12i.w	$r11,-372041(0xa52b7)
1c006d04:	02ab4d6b 	addi.w	$r11,$r11,-1325(0xad3)
1c006d08:	0285658a 	addi.w	$r10,$r12,345(0x159)
1c006d0c:	5c05ad4b 	bne	$r10,$r11,1452(0x5ac) # 1c0072b8 <inst_error>
1c006d10:	15b9904c 	lu12i.w	$r12,-144254(0xdcc82)
1c006d14:	0299998c 	addi.w	$r12,$r12,1638(0x666)
1c006d18:	15b9906b 	lu12i.w	$r11,-144253(0xdcc83)
1c006d1c:	02b7056b 	addi.w	$r11,$r11,-575(0xdc1)
1c006d20:	029d6d8a 	addi.w	$r10,$r12,1883(0x75b)
1c006d24:	5c05954b 	bne	$r10,$r11,1428(0x594) # 1c0072b8 <inst_error>
1c006d28:	1556494c 	lu12i.w	$r12,-347574(0xab24a)
1c006d2c:	028f0d8c 	addi.w	$r12,$r12,963(0x3c3)
1c006d30:	1556494b 	lu12i.w	$r11,-347574(0xab24a)
1c006d34:	02bb496b 	addi.w	$r11,$r11,-302(0xed2)
1c006d38:	02ac3d8a 	addi.w	$r10,$r12,-1265(0xb0f)
1c006d3c:	5c057d4b 	bne	$r10,$r11,1404(0x57c) # 1c0072b8 <inst_error>
1c006d40:	15b6ca0c 	lu12i.w	$r12,-149936(0xdb650)
1c006d44:	0298118c 	addi.w	$r12,$r12,1540(0x604)
1c006d48:	15b6ca0b 	lu12i.w	$r11,-149936(0xdb650)
1c006d4c:	02bfcd6b 	addi.w	$r11,$r11,-13(0xff3)
1c006d50:	02a7bd8a 	addi.w	$r10,$r12,-1553(0x9ef)
1c006d54:	5c05654b 	bne	$r10,$r11,1380(0x564) # 1c0072b8 <inst_error>
1c006d58:	14f460ac 	lu12i.w	$r12,500485(0x7a305)
1c006d5c:	028e018c 	addi.w	$r12,$r12,896(0x380)
1c006d60:	14f460ab 	lu12i.w	$r11,500485(0x7a305)
1c006d64:	02b3d16b 	addi.w	$r11,$r11,-780(0xcf4)
1c006d68:	02a5d18a 	addi.w	$r10,$r12,-1676(0x974)
1c006d6c:	5c054d4b 	bne	$r10,$r11,1356(0x54c) # 1c0072b8 <inst_error>
1c006d70:	14d75fec 	lu12i.w	$r12,441087(0x6baff)
1c006d74:	02b4618c 	addi.w	$r12,$r12,-744(0xd18)
1c006d78:	14d75feb 	lu12i.w	$r11,441087(0x6baff)
1c006d7c:	0282d96b 	addi.w	$r11,$r11,182(0xb6)
1c006d80:	028e798a 	addi.w	$r10,$r12,926(0x39e)
1c006d84:	5c05354b 	bne	$r10,$r11,1332(0x534) # 1c0072b8 <inst_error>
1c006d88:	14edbc4c 	lu12i.w	$r12,486882(0x76de2)
1c006d8c:	02af418c 	addi.w	$r12,$r12,-1072(0xbd0)
1c006d90:	14edbc4b 	lu12i.w	$r11,486882(0x76de2)
1c006d94:	02b8b56b 	addi.w	$r11,$r11,-467(0xe2d)
1c006d98:	0289758a 	addi.w	$r10,$r12,605(0x25d)
1c006d9c:	5c051d4b 	bne	$r10,$r11,1308(0x51c) # 1c0072b8 <inst_error>
1c006da0:	158661ac 	lu12i.w	$r12,-249075(0xc330d)
1c006da4:	0289a18c 	addi.w	$r12,$r12,616(0x268)
1c006da8:	158661ab 	lu12i.w	$r11,-249075(0xc330d)
1c006dac:	02ade96b 	addi.w	$r11,$r11,-1158(0xb7a)
1c006db0:	02a4498a 	addi.w	$r10,$r12,-1774(0x912)
1c006db4:	5c05054b 	bne	$r10,$r11,1284(0x504) # 1c0072b8 <inst_error>
1c006db8:	145a4e0c 	lu12i.w	$r12,184944(0x2d270)
1c006dbc:	0287c58c 	addi.w	$r12,$r12,497(0x1f1)
1c006dc0:	145a4e0b 	lu12i.w	$r11,184944(0x2d270)
1c006dc4:	028b816b 	addi.w	$r11,$r11,736(0x2e0)
1c006dc8:	0283bd8a 	addi.w	$r10,$r12,239(0xef)
1c006dcc:	5c04ed4b 	bne	$r10,$r11,1260(0x4ec) # 1c0072b8 <inst_error>
1c006dd0:	14a8a94c 	lu12i.w	$r12,345418(0x5454a)
1c006dd4:	02a4298c 	addi.w	$r12,$r12,-1782(0x90a)
1c006dd8:	14a8a94b 	lu12i.w	$r11,345418(0x5454a)
1c006ddc:	02820d6b 	addi.w	$r11,$r11,131(0x83)
1c006de0:	029de58a 	addi.w	$r10,$r12,1913(0x779)
1c006de4:	5c04d54b 	bne	$r10,$r11,1236(0x4d4) # 1c0072b8 <inst_error>
1c006de8:	144371ac 	lu12i.w	$r12,138125(0x21b8d)
1c006dec:	02bc018c 	addi.w	$r12,$r12,-256(0xf00)
1c006df0:	1443718b 	lu12i.w	$r11,138124(0x21b8c)
1c006df4:	029fe16b 	addi.w	$r11,$r11,2040(0x7f8)
1c006df8:	02a3e18a 	addi.w	$r10,$r12,-1800(0x8f8)
1c006dfc:	5c04bd4b 	bne	$r10,$r11,1212(0x4bc) # 1c0072b8 <inst_error>
1c006e00:	1489c64c 	lu12i.w	$r12,282162(0x44e32)
1c006e04:	02bc498c 	addi.w	$r12,$r12,-238(0xf12)
1c006e08:	1489c64b 	lu12i.w	$r11,282162(0x44e32)
1c006e0c:	028a496b 	addi.w	$r11,$r11,658(0x292)
1c006e10:	028e018a 	addi.w	$r10,$r12,896(0x380)
1c006e14:	5c04a54b 	bne	$r10,$r11,1188(0x4a4) # 1c0072b8 <inst_error>
1c006e18:	1481f20c 	lu12i.w	$r12,266128(0x40f90)
1c006e1c:	02a3e18c 	addi.w	$r12,$r12,-1800(0x8f8)
1c006e20:	1481f20b 	lu12i.w	$r11,266128(0x40f90)
1c006e24:	0282a16b 	addi.w	$r11,$r11,168(0xa8)
1c006e28:	029ec18a 	addi.w	$r10,$r12,1968(0x7b0)
1c006e2c:	5c048d4b 	bne	$r10,$r11,1164(0x48c) # 1c0072b8 <inst_error>
1c006e30:	15aa00ec 	lu12i.w	$r12,-176121(0xd5007)
1c006e34:	028f418c 	addi.w	$r12,$r12,976(0x3d0)
1c006e38:	15aa00eb 	lu12i.w	$r11,-176121(0xd5007)
1c006e3c:	029b1d6b 	addi.w	$r11,$r11,1735(0x6c7)
1c006e40:	028bdd8a 	addi.w	$r10,$r12,759(0x2f7)
1c006e44:	5c04754b 	bne	$r10,$r11,1140(0x474) # 1c0072b8 <inst_error>
1c006e48:	14a44dcc 	lu12i.w	$r12,336494(0x5226e)
1c006e4c:	0286c18c 	addi.w	$r12,$r12,432(0x1b0)
1c006e50:	14a44dcb 	lu12i.w	$r11,336494(0x5226e)
1c006e54:	029b316b 	addi.w	$r11,$r11,1740(0x6cc)
1c006e58:	0294718a 	addi.w	$r10,$r12,1308(0x51c)
1c006e5c:	5c045d4b 	bne	$r10,$r11,1116(0x45c) # 1c0072b8 <inst_error>
1c006e60:	144a290c 	lu12i.w	$r12,151880(0x25148)
1c006e64:	029a018c 	addi.w	$r12,$r12,1664(0x680)
1c006e68:	144a290b 	lu12i.w	$r11,151880(0x25148)
1c006e6c:	028f016b 	addi.w	$r11,$r11,960(0x3c0)
1c006e70:	02b5018a 	addi.w	$r10,$r12,-704(0xd40)
1c006e74:	5c04454b 	bne	$r10,$r11,1092(0x444) # 1c0072b8 <inst_error>
1c006e78:	155faacc 	lu12i.w	$r12,-328362(0xafd56)
1c006e7c:	02a8d58c 	addi.w	$r12,$r12,-1483(0xa35)
1c006e80:	155faacb 	lu12i.w	$r11,-328362(0xafd56)
1c006e84:	02a1c56b 	addi.w	$r11,$r11,-1935(0x871)
1c006e88:	02b8f18a 	addi.w	$r10,$r12,-452(0xe3c)
1c006e8c:	5c042d4b 	bne	$r10,$r11,1068(0x42c) # 1c0072b8 <inst_error>
1c006e90:	15f5736c 	lu12i.w	$r12,-21605(0xfab9b)
1c006e94:	029afd8c 	addi.w	$r12,$r12,1727(0x6bf)
1c006e98:	15f5738b 	lu12i.w	$r11,-21604(0xfab9c)
1c006e9c:	02b22d6b 	addi.w	$r11,$r11,-885(0xc8b)
1c006ea0:	0297318a 	addi.w	$r10,$r12,1484(0x5cc)
1c006ea4:	5c04154b 	bne	$r10,$r11,1044(0x414) # 1c0072b8 <inst_error>
1c006ea8:	155681cc 	lu12i.w	$r12,-347122(0xab40e)
1c006eac:	0290018c 	addi.w	$r12,$r12,1024(0x400)
1c006eb0:	155681cb 	lu12i.w	$r11,-347122(0xab40e)
1c006eb4:	029ee16b 	addi.w	$r11,$r11,1976(0x7b8)
1c006eb8:	028ee18a 	addi.w	$r10,$r12,952(0x3b8)
1c006ebc:	5c03fd4b 	bne	$r10,$r11,1020(0x3fc) # 1c0072b8 <inst_error>
1c006ec0:	147dd0ec 	lu12i.w	$r12,257671(0x3ee87)
1c006ec4:	028e018c 	addi.w	$r12,$r12,896(0x380)
1c006ec8:	147dd0eb 	lu12i.w	$r11,257671(0x3ee87)
1c006ecc:	02b0996b 	addi.w	$r11,$r11,-986(0xc26)
1c006ed0:	02a2998a 	addi.w	$r10,$r12,-1882(0x8a6)
1c006ed4:	5c03e54b 	bne	$r10,$r11,996(0x3e4) # 1c0072b8 <inst_error>
1c006ed8:	145617ec 	lu12i.w	$r12,176319(0x2b0bf)
1c006edc:	0286e98c 	addi.w	$r12,$r12,442(0x1ba)
1c006ee0:	145617eb 	lu12i.w	$r11,176319(0x2b0bf)
1c006ee4:	02baa96b 	addi.w	$r11,$r11,-342(0xeaa)
1c006ee8:	02b3c18a 	addi.w	$r10,$r12,-784(0xcf0)
1c006eec:	5c03cd4b 	bne	$r10,$r11,972(0x3cc) # 1c0072b8 <inst_error>
1c006ef0:	14056b6c 	lu12i.w	$r12,11099(0x2b5b)
1c006ef4:	0298818c 	addi.w	$r12,$r12,1568(0x620)
1c006ef8:	14056b8b 	lu12i.w	$r11,11100(0x2b5c)
1c006efc:	02b1ad6b 	addi.w	$r11,$r11,-917(0xc6b)
1c006f00:	02992d8a 	addi.w	$r10,$r12,1611(0x64b)
1c006f04:	5c03b54b 	bne	$r10,$r11,948(0x3b4) # 1c0072b8 <inst_error>
1c006f08:	15cc3bec 	lu12i.w	$r12,-106017(0xe61df)
1c006f0c:	0295e98c 	addi.w	$r12,$r12,1402(0x57a)
1c006f10:	15cc3beb 	lu12i.w	$r11,-106017(0xe61df)
1c006f14:	0297896b 	addi.w	$r11,$r11,1506(0x5e2)
1c006f18:	0281a18a 	addi.w	$r10,$r12,104(0x68)
1c006f1c:	5c039d4b 	bne	$r10,$r11,924(0x39c) # 1c0072b8 <inst_error>
1c006f20:	15325f4c 	lu12i.w	$r12,-421126(0x992fa)
1c006f24:	02a0b18c 	addi.w	$r12,$r12,-2004(0x82c)
1c006f28:	15325f4b 	lu12i.w	$r11,-421126(0x992fa)
1c006f2c:	02a7d16b 	addi.w	$r11,$r11,-1548(0x9f4)
1c006f30:	0287218a 	addi.w	$r10,$r12,456(0x1c8)
1c006f34:	5c03854b 	bne	$r10,$r11,900(0x384) # 1c0072b8 <inst_error>
1c006f38:	143275cc 	lu12i.w	$r12,103342(0x193ae)
1c006f3c:	0291e18c 	addi.w	$r12,$r12,1144(0x478)
1c006f40:	143275eb 	lu12i.w	$r11,103343(0x193af)
1c006f44:	02aead6b 	addi.w	$r11,$r11,-1109(0xbab)
1c006f48:	029ccd8a 	addi.w	$r10,$r12,1843(0x733)
1c006f4c:	5c036d4b 	bne	$r10,$r11,876(0x36c) # 1c0072b8 <inst_error>
1c006f50:	156eaaac 	lu12i.w	$r12,-297643(0xb7555)
1c006f54:	02a9c18c 	addi.w	$r12,$r12,-1424(0xa70)
1c006f58:	156eaaab 	lu12i.w	$r11,-297643(0xb7555)
1c006f5c:	0282a96b 	addi.w	$r11,$r11,170(0xaa)
1c006f60:	0298e98a 	addi.w	$r10,$r12,1594(0x63a)
1c006f64:	5c03554b 	bne	$r10,$r11,852(0x354) # 1c0072b8 <inst_error>
1c006f68:	15ccc8ac 	lu12i.w	$r12,-104891(0xe6645)
1c006f6c:	02be818c 	addi.w	$r12,$r12,-96(0xfa0)
1c006f70:	15ccc8ab 	lu12i.w	$r11,-104891(0xe6645)
1c006f74:	02bc616b 	addi.w	$r11,$r11,-232(0xf18)
1c006f78:	02bde18a 	addi.w	$r10,$r12,-136(0xf78)
1c006f7c:	5c033d4b 	bne	$r10,$r11,828(0x33c) # 1c0072b8 <inst_error>
1c006f80:	15bdfe2c 	lu12i.w	$r12,-135183(0xdeff1)
1c006f84:	028f518c 	addi.w	$r12,$r12,980(0x3d4)
1c006f88:	15bdfe2b 	lu12i.w	$r11,-135183(0xdeff1)
1c006f8c:	02866d6b 	addi.w	$r11,$r11,411(0x19b)
1c006f90:	02b71d8a 	addi.w	$r10,$r12,-569(0xdc7)
1c006f94:	5c03254b 	bne	$r10,$r11,804(0x324) # 1c0072b8 <inst_error>
1c006f98:	14b80e0c 	lu12i.w	$r12,376944(0x5c070)
1c006f9c:	028df18c 	addi.w	$r12,$r12,892(0x37c)
1c006fa0:	14b80e0b 	lu12i.w	$r11,376944(0x5c070)
1c006fa4:	0287496b 	addi.w	$r11,$r11,466(0x1d2)
1c006fa8:	02b9598a 	addi.w	$r10,$r12,-426(0xe56)
1c006fac:	5c030d4b 	bne	$r10,$r11,780(0x30c) # 1c0072b8 <inst_error>
1c006fb0:	1580d8ac 	lu12i.w	$r12,-260411(0xc06c5)
1c006fb4:	0293c18c 	addi.w	$r12,$r12,1264(0x4f0)
1c006fb8:	1580d8ab 	lu12i.w	$r11,-260411(0xc06c5)
1c006fbc:	029e816b 	addi.w	$r11,$r11,1952(0x7a0)
1c006fc0:	028ac18a 	addi.w	$r10,$r12,688(0x2b0)
1c006fc4:	5c02f54b 	bne	$r10,$r11,756(0x2f4) # 1c0072b8 <inst_error>
1c006fc8:	15ebed4c 	lu12i.w	$r12,-41110(0xf5f6a)
1c006fcc:	028c718c 	addi.w	$r12,$r12,796(0x31c)
1c006fd0:	15ebed6b 	lu12i.w	$r11,-41109(0xf5f6b)
1c006fd4:	02a8716b 	addi.w	$r11,$r11,-1508(0xa1c)
1c006fd8:	029c018a 	addi.w	$r10,$r12,1792(0x700)
1c006fdc:	5c02dd4b 	bne	$r10,$r11,732(0x2dc) # 1c0072b8 <inst_error>
1c006fe0:	151b412c 	lu12i.w	$r12,-468471(0x8da09)
1c006fe4:	02b5918c 	addi.w	$r12,$r12,-668(0xd64)
1c006fe8:	151b412b 	lu12i.w	$r11,-468471(0x8da09)
1c006fec:	0281a16b 	addi.w	$r11,$r11,104(0x68)
1c006ff0:	028c118a 	addi.w	$r10,$r12,772(0x304)
1c006ff4:	5c02c54b 	bne	$r10,$r11,708(0x2c4) # 1c0072b8 <inst_error>
1c006ff8:	145e730c 	lu12i.w	$r12,193432(0x2f398)
1c006ffc:	028cc18c 	addi.w	$r12,$r12,816(0x330)
1c007000:	145e732b 	lu12i.w	$r11,193433(0x2f399)
1c007004:	02a6c16b 	addi.w	$r11,$r11,-1616(0x9b0)
1c007008:	029a018a 	addi.w	$r10,$r12,1664(0x680)
1c00700c:	5c02ad4b 	bne	$r10,$r11,684(0x2ac) # 1c0072b8 <inst_error>
1c007010:	142d68ac 	lu12i.w	$r12,92997(0x16b45)
1c007014:	02b5b98c 	addi.w	$r12,$r12,-658(0xd6e)
1c007018:	142d68ab 	lu12i.w	$r11,92997(0x16b45)
1c00701c:	02ab196b 	addi.w	$r11,$r11,-1338(0xac6)
1c007020:	02b5618a 	addi.w	$r10,$r12,-680(0xd58)
1c007024:	5c02954b 	bne	$r10,$r11,660(0x294) # 1c0072b8 <inst_error>
1c007028:	154f3f0c 	lu12i.w	$r12,-361992(0xa79f8)
1c00702c:	029ec98c 	addi.w	$r12,$r12,1970(0x7b2)
1c007030:	154f3f2b 	lu12i.w	$r11,-361991(0xa79f9)
1c007034:	02a5056b 	addi.w	$r11,$r11,-1727(0x941)
1c007038:	02863d8a 	addi.w	$r10,$r12,399(0x18f)
1c00703c:	5c027d4b 	bne	$r10,$r11,636(0x27c) # 1c0072b8 <inst_error>
1c007040:	14a5506c 	lu12i.w	$r12,338563(0x52a83)
1c007044:	029a698c 	addi.w	$r12,$r12,1690(0x69a)
1c007048:	14a5508b 	lu12i.w	$r11,338564(0x52a84)
1c00704c:	02b4e96b 	addi.w	$r11,$r11,-710(0xd3a)
1c007050:	029a818a 	addi.w	$r10,$r12,1696(0x6a0)
1c007054:	5c02654b 	bne	$r10,$r11,612(0x264) # 1c0072b8 <inst_error>
1c007058:	143181ec 	lu12i.w	$r12,101391(0x18c0f)
1c00705c:	0280398c 	addi.w	$r12,$r12,14(0xe)
1c007060:	143181eb 	lu12i.w	$r11,101391(0x18c0f)
1c007064:	02be716b 	addi.w	$r11,$r11,-100(0xf9c)
1c007068:	02be398a 	addi.w	$r10,$r12,-114(0xf8e)
1c00706c:	5c024d4b 	bne	$r10,$r11,588(0x24c) # 1c0072b8 <inst_error>
1c007070:	1467f78c 	lu12i.w	$r12,212924(0x33fbc)
1c007074:	02a7018c 	addi.w	$r12,$r12,-1600(0x9c0)
1c007078:	1467f76b 	lu12i.w	$r11,212923(0x33fbb)
1c00707c:	028c956b 	addi.w	$r11,$r11,805(0x325)
1c007080:	02a5958a 	addi.w	$r10,$r12,-1691(0x965)
1c007084:	5c02354b 	bne	$r10,$r11,564(0x234) # 1c0072b8 <inst_error>
1c007088:	14e1916c 	lu12i.w	$r12,461963(0x70c8b)
1c00708c:	0283dd8c 	addi.w	$r12,$r12,247(0xf7)
1c007090:	14e1916b 	lu12i.w	$r11,461963(0x70c8b)
1c007094:	02bd656b 	addi.w	$r11,$r11,-167(0xf59)
1c007098:	02b9898a 	addi.w	$r10,$r12,-414(0xe62)
1c00709c:	5c021d4b 	bne	$r10,$r11,540(0x21c) # 1c0072b8 <inst_error>
1c0070a0:	147e032c 	lu12i.w	$r12,258073(0x3f019)
1c0070a4:	0292d18c 	addi.w	$r12,$r12,1204(0x4b4)
1c0070a8:	147e032b 	lu12i.w	$r11,258073(0x3f019)
1c0070ac:	028e216b 	addi.w	$r11,$r11,904(0x388)
1c0070b0:	02bb518a 	addi.w	$r10,$r12,-300(0xed4)
1c0070b4:	5c02054b 	bne	$r10,$r11,516(0x204) # 1c0072b8 <inst_error>
1c0070b8:	158b82cc 	lu12i.w	$r12,-238570(0xc5c16)
1c0070bc:	029b018c 	addi.w	$r12,$r12,1728(0x6c0)
1c0070c0:	158b82eb 	lu12i.w	$r11,-238569(0xc5c17)
1c0070c4:	02b3596b 	addi.w	$r11,$r11,-810(0xcd6)
1c0070c8:	0298598a 	addi.w	$r10,$r12,1558(0x616)
1c0070cc:	5c01ed4b 	bne	$r10,$r11,492(0x1ec) # 1c0072b8 <inst_error>
1c0070d0:	1424240c 	lu12i.w	$r12,74016(0x12120)
1c0070d4:	0291818c 	addi.w	$r12,$r12,1120(0x460)
1c0070d8:	1424242b 	lu12i.w	$r11,74017(0x12121)
1c0070dc:	02a5016b 	addi.w	$r11,$r11,-1728(0x940)
1c0070e0:	0293818a 	addi.w	$r10,$r12,1248(0x4e0)
1c0070e4:	5c01d54b 	bne	$r10,$r11,468(0x1d4) # 1c0072b8 <inst_error>
1c0070e8:	145b7bcc 	lu12i.w	$r12,187358(0x2dbde)
1c0070ec:	0293198c 	addi.w	$r12,$r12,1222(0x4c6)
1c0070f0:	145b7beb 	lu12i.w	$r11,187359(0x2dbdf)
1c0070f4:	02a3756b 	addi.w	$r11,$r11,-1827(0x8dd)
1c0070f8:	02905d8a 	addi.w	$r10,$r12,1047(0x417)
1c0070fc:	5c01bd4b 	bne	$r10,$r11,444(0x1bc) # 1c0072b8 <inst_error>
1c007100:	15f73dac 	lu12i.w	$r12,-17939(0xfb9ed)
1c007104:	028d498c 	addi.w	$r12,$r12,850(0x352)
1c007108:	15f73dab 	lu12i.w	$r11,-17939(0xfb9ed)
1c00710c:	02bdd16b 	addi.w	$r11,$r11,-140(0xf74)
1c007110:	02b0898a 	addi.w	$r10,$r12,-990(0xc22)
1c007114:	5c01a54b 	bne	$r10,$r11,420(0x1a4) # 1c0072b8 <inst_error>
1c007118:	1515ccec 	lu12i.w	$r12,-479641(0x8ae67)
1c00711c:	02b6818c 	addi.w	$r12,$r12,-608(0xda0)
1c007120:	1515cceb 	lu12i.w	$r11,-479641(0x8ae67)
1c007124:	02a4816b 	addi.w	$r11,$r11,-1760(0x920)
1c007128:	02ae018a 	addi.w	$r10,$r12,-1152(0xb80)
1c00712c:	5c018d4b 	bne	$r10,$r11,396(0x18c) # 1c0072b8 <inst_error>
1c007130:	1492456c 	lu12i.w	$r12,299563(0x4922b)
1c007134:	02a4a18c 	addi.w	$r12,$r12,-1752(0x928)
1c007138:	1492456b 	lu12i.w	$r11,299563(0x4922b)
1c00713c:	02a7816b 	addi.w	$r11,$r11,-1568(0x9e0)
1c007140:	0282e18a 	addi.w	$r10,$r12,184(0xb8)
1c007144:	5c01754b 	bne	$r10,$r11,372(0x174) # 1c0072b8 <inst_error>
1c007148:	1510686c 	lu12i.w	$r12,-490685(0x88343)
1c00714c:	02bafd8c 	addi.w	$r12,$r12,-321(0xebf)
1c007150:	1510686b 	lu12i.w	$r11,-490685(0x88343)
1c007154:	02bb196b 	addi.w	$r11,$r11,-314(0xec6)
1c007158:	02801d8a 	addi.w	$r10,$r12,7(0x7)
1c00715c:	5c015d4b 	bne	$r10,$r11,348(0x15c) # 1c0072b8 <inst_error>
1c007160:	1462f6ac 	lu12i.w	$r12,202677(0x317b5)
1c007164:	0280818c 	addi.w	$r12,$r12,32(0x20)
1c007168:	1462f6ab 	lu12i.w	$r11,202677(0x317b5)
1c00716c:	02b5416b 	addi.w	$r11,$r11,-688(0xd50)
1c007170:	02b4c18a 	addi.w	$r10,$r12,-720(0xd30)
1c007174:	5c01454b 	bne	$r10,$r11,324(0x144) # 1c0072b8 <inst_error>
1c007178:	14ad83cc 	lu12i.w	$r12,355358(0x56c1e)
1c00717c:	02a0ad8c 	addi.w	$r12,$r12,-2005(0x82b)
1c007180:	14ad83ab 	lu12i.w	$r11,355357(0x56c1d)
1c007184:	02919d6b 	addi.w	$r11,$r11,1127(0x467)
1c007188:	02b0f18a 	addi.w	$r10,$r12,-964(0xc3c)
1c00718c:	5c012d4b 	bne	$r10,$r11,300(0x12c) # 1c0072b8 <inst_error>
1c007190:	1579b86c 	lu12i.w	$r12,-275005(0xbcdc3)
1c007194:	0290c18c 	addi.w	$r12,$r12,1072(0x430)
1c007198:	1579b86b 	lu12i.w	$r11,-275005(0xbcdc3)
1c00719c:	0284496b 	addi.w	$r11,$r11,274(0x112)
1c0071a0:	02b3898a 	addi.w	$r10,$r12,-798(0xce2)
1c0071a4:	5c01154b 	bne	$r10,$r11,276(0x114) # 1c0072b8 <inst_error>
1c0071a8:	143f2eac 	lu12i.w	$r12,129397(0x1f975)
1c0071ac:	0292258c 	addi.w	$r12,$r12,1161(0x489)
1c0071b0:	143f2eab 	lu12i.w	$r11,129397(0x1f975)
1c0071b4:	029aa56b 	addi.w	$r11,$r11,1705(0x6a9)
1c0071b8:	0288818a 	addi.w	$r10,$r12,544(0x220)
1c0071bc:	5c00fd4b 	bne	$r10,$r11,252(0xfc) # 1c0072b8 <inst_error>
1c0071c0:	153517cc 	lu12i.w	$r12,-415554(0x9a8be)
1c0071c4:	02a3018c 	addi.w	$r12,$r12,-1856(0x8c0)
1c0071c8:	153517ab 	lu12i.w	$r11,-415555(0x9a8bd)
1c0071cc:	028ddd6b 	addi.w	$r11,$r11,887(0x377)
1c0071d0:	02aadd8a 	addi.w	$r10,$r12,-1353(0xab7)
1c0071d4:	5c00e54b 	bne	$r10,$r11,228(0xe4) # 1c0072b8 <inst_error>
1c0071d8:	14e4d7ac 	lu12i.w	$r12,468669(0x726bd)
1c0071dc:	02b8a18c 	addi.w	$r12,$r12,-472(0xe28)
1c0071e0:	14e4d7ab 	lu12i.w	$r11,468669(0x726bd)
1c0071e4:	02ad316b 	addi.w	$r11,$r11,-1204(0xb4c)
1c0071e8:	02b4918a 	addi.w	$r10,$r12,-732(0xd24)
1c0071ec:	5c00cd4b 	bne	$r10,$r11,204(0xcc) # 1c0072b8 <inst_error>
1c0071f0:	1427418c 	lu12i.w	$r12,80396(0x13a0c)
1c0071f4:	02ad418c 	addi.w	$r12,$r12,-1200(0xb50)
1c0071f8:	1427418b 	lu12i.w	$r11,80396(0x13a0c)
1c0071fc:	0280616b 	addi.w	$r11,$r11,24(0x18)
1c007200:	0293218a 	addi.w	$r10,$r12,1224(0x4c8)
1c007204:	5c00b54b 	bne	$r10,$r11,180(0xb4) # 1c0072b8 <inst_error>
1c007208:	1414a52c 	lu12i.w	$r12,42281(0xa529)
1c00720c:	02bf818c 	addi.w	$r12,$r12,-32(0xfe0)
1c007210:	1414a52b 	lu12i.w	$r11,42281(0xa529)
1c007214:	02b9c16b 	addi.w	$r11,$r11,-400(0xe70)
1c007218:	02ba418a 	addi.w	$r10,$r12,-368(0xe90)
1c00721c:	5c009d4b 	bne	$r10,$r11,156(0x9c) # 1c0072b8 <inst_error>
1c007220:	14e0670c 	lu12i.w	$r12,459576(0x70338)
1c007224:	029a598c 	addi.w	$r12,$r12,1686(0x696)
1c007228:	14e0672b 	lu12i.w	$r11,459577(0x70339)
1c00722c:	02a85d6b 	addi.w	$r11,$r11,-1513(0xa17)
1c007230:	028e058a 	addi.w	$r10,$r12,897(0x381)
1c007234:	5c00854b 	bne	$r10,$r11,132(0x84) # 1c0072b8 <inst_error>
1c007238:	152c258c 	lu12i.w	$r12,-433876(0x9612c)
1c00723c:	02bda18c 	addi.w	$r12,$r12,-152(0xf68)
1c007240:	152c258b 	lu12i.w	$r11,-433876(0x9612c)
1c007244:	0299516b 	addi.w	$r11,$r11,1620(0x654)
1c007248:	029bb18a 	addi.w	$r10,$r12,1772(0x6ec)
1c00724c:	5c006d4b 	bne	$r10,$r11,108(0x6c) # 1c0072b8 <inst_error>
1c007250:	1400000c 	lu12i.w	$r12,0
1c007254:	0280018c 	addi.w	$r12,$r12,0
1c007258:	1400000b 	lu12i.w	$r11,0
1c00725c:	0292816b 	addi.w	$r11,$r11,1184(0x4a0)
1c007260:	0292818a 	addi.w	$r10,$r12,1184(0x4a0)
1c007264:	5c00554b 	bne	$r10,$r11,84(0x54) # 1c0072b8 <inst_error>
1c007268:	1400000c 	lu12i.w	$r12,0
1c00726c:	0280018c 	addi.w	$r12,$r12,0
1c007270:	1400000b 	lu12i.w	$r11,0
1c007274:	029b656b 	addi.w	$r11,$r11,1753(0x6d9)
1c007278:	029b658a 	addi.w	$r10,$r12,1753(0x6d9)
1c00727c:	5c003d4b 	bne	$r10,$r11,60(0x3c) # 1c0072b8 <inst_error>
1c007280:	1400000c 	lu12i.w	$r12,0
1c007284:	0280018c 	addi.w	$r12,$r12,0
1c007288:	1400000b 	lu12i.w	$r11,0
1c00728c:	02b7216b 	addi.w	$r11,$r11,-568(0xdc8)
1c007290:	02b7218a 	addi.w	$r10,$r12,-568(0xdc8)
1c007294:	5c00254b 	bne	$r10,$r11,36(0x24) # 1c0072b8 <inst_error>
1c007298:	1400000c 	lu12i.w	$r12,0
1c00729c:	0280018c 	addi.w	$r12,$r12,0
1c0072a0:	1400000b 	lu12i.w	$r11,0
1c0072a4:	0280016b 	addi.w	$r11,$r11,0
1c0072a8:	0280018a 	addi.w	$r10,$r12,0
1c0072ac:	5c000d4b 	bne	$r10,$r11,12(0xc) # 1c0072b8 <inst_error>
1c0072b0:	5c000b20 	bne	$r25,$r0,8(0x8) # 1c0072b8 <inst_error>
1c0072b4:	0280075a 	addi.w	$r26,$r26,1(0x1)

1c0072b8 <inst_error>:
1c0072b8:	0040e2ed 	slli.w	$r13,$r23,0x18
1c0072bc:	001569ac 	or	$r12,$r13,$r26
1c0072c0:	2980030c 	st.w	$r12,$r24,0
1c0072c4:	4c000020 	jirl	$r0,$r1,0

1c0072c8 <n12_srli_w_test>:
n12_srli_w_test():
1c0072c8:	028006f7 	addi.w	$r23,$r23,1(0x1)
1c0072cc:	00150019 	move	$r25,$r0
1c0072d0:	151d200c 	lu12i.w	$r12,-464640(0x8e900)
1c0072d4:	02b3818c 	addi.w	$r12,$r12,-800(0xce0)
1c0072d8:	1447480b 	lu12i.w	$r11,145984(0x23a40)
1c0072dc:	02bce16b 	addi.w	$r11,$r11,-200(0xf38)
1c0072e0:	0044898a 	srli.w	$r10,$r12,0x2
1c0072e4:	5c039d4b 	bne	$r10,$r11,924(0x39c) # 1c007680 <inst_error>
1c0072e8:	1492522c 	lu12i.w	$r12,299665(0x49291)
1c0072ec:	0288c18c 	addi.w	$r12,$r12,560(0x230)
1c0072f0:	1400012b 	lu12i.w	$r11,9(0x9)
1c0072f4:	0289496b 	addi.w	$r11,$r11,594(0x252)
1c0072f8:	0044bd8a 	srli.w	$r10,$r12,0xf
1c0072fc:	5c03854b 	bne	$r10,$r11,900(0x384) # 1c007680 <inst_error>
1c007300:	144bb4ec 	lu12i.w	$r12,155047(0x25da7)
1c007304:	02a2818c 	addi.w	$r12,$r12,-1888(0x8a0)
1c007308:	1404bb4b 	lu12i.w	$r11,9690(0x25da)
1c00730c:	029a296b 	addi.w	$r11,$r11,1674(0x68a)
1c007310:	0044918a 	srli.w	$r10,$r12,0x4
1c007314:	5c036d4b 	bne	$r10,$r11,876(0x36c) # 1c007680 <inst_error>
1c007318:	15d959ec 	lu12i.w	$r12,-79153(0xecacf)
1c00731c:	0299598c 	addi.w	$r12,$r12,1622(0x656)
1c007320:	1400076b 	lu12i.w	$r11,59(0x3b)
1c007324:	028acd6b 	addi.w	$r11,$r11,691(0x2b3)
1c007328:	0044b98a 	srli.w	$r10,$r12,0xe
1c00732c:	5c03554b 	bne	$r10,$r11,852(0x354) # 1c007680 <inst_error>
1c007330:	15cf7fac 	lu12i.w	$r12,-99331(0xe7bfd)
1c007334:	02a1218c 	addi.w	$r12,$r12,-1976(0x848)
1c007338:	1400000b 	lu12i.w	$r11,0
1c00733c:	0280056b 	addi.w	$r11,$r11,1(0x1)
1c007340:	0044fd8a 	srli.w	$r10,$r12,0x1f
1c007344:	5c033d4b 	bne	$r10,$r11,828(0x33c) # 1c007680 <inst_error>
1c007348:	140022cc 	lu12i.w	$r12,278(0x116)
1c00734c:	02a0258c 	addi.w	$r12,$r12,-2039(0x809)
1c007350:	1400000b 	lu12i.w	$r11,0
1c007354:	0280016b 	addi.w	$r11,$r11,0
1c007358:	0044fd8a 	srli.w	$r10,$r12,0x1f
1c00735c:	5c03254b 	bne	$r10,$r11,804(0x324) # 1c007680 <inst_error>
1c007360:	14f510cc 	lu12i.w	$r12,501894(0x7a886)
1c007364:	0298118c 	addi.w	$r12,$r12,1540(0x604)
1c007368:	1400000b 	lu12i.w	$r11,0
1c00736c:	0280f56b 	addi.w	$r11,$r11,61(0x3d)
1c007370:	0044e58a 	srli.w	$r10,$r12,0x19
1c007374:	5c030d4b 	bne	$r10,$r11,780(0x30c) # 1c007680 <inst_error>
1c007378:	14ffcf4c 	lu12i.w	$r12,523898(0x7fe7a)
1c00737c:	029f798c 	addi.w	$r12,$r12,2014(0x7de)
1c007380:	1400020b 	lu12i.w	$r11,16(0x10)
1c007384:	02bf3d6b 	addi.w	$r11,$r11,-49(0xfcf)
1c007388:	0044bd8a 	srli.w	$r10,$r12,0xf
1c00738c:	5c02f54b 	bne	$r10,$r11,756(0x2f4) # 1c007680 <inst_error>
1c007390:	14ed854c 	lu12i.w	$r12,486442(0x76c2a)
1c007394:	02a0e18c 	addi.w	$r12,$r12,-1992(0x838)
1c007398:	14076c2b 	lu12i.w	$r11,15201(0x3b61)
1c00739c:	0293056b 	addi.w	$r11,$r11,1217(0x4c1)
1c0073a0:	0044958a 	srli.w	$r10,$r12,0x5
1c0073a4:	5c02dd4b 	bne	$r10,$r11,732(0x2dc) # 1c007680 <inst_error>
1c0073a8:	15527ecc 	lu12i.w	$r12,-355338(0xa93f6)
1c0073ac:	02a5118c 	addi.w	$r12,$r12,-1724(0x944)
1c0073b0:	140000ab 	lu12i.w	$r11,5(0x5)
1c0073b4:	02927d6b 	addi.w	$r11,$r11,1183(0x49f)
1c0073b8:	0044c58a 	srli.w	$r10,$r12,0x11
1c0073bc:	5c02c54b 	bne	$r10,$r11,708(0x2c4) # 1c007680 <inst_error>
1c0073c0:	14bd83ac 	lu12i.w	$r12,388125(0x5ec1d)
1c0073c4:	02a4018c 	addi.w	$r12,$r12,-1792(0x900)
1c0073c8:	1400000b 	lu12i.w	$r11,0
1c0073cc:	0280016b 	addi.w	$r11,$r11,0
1c0073d0:	0044fd8a 	srli.w	$r10,$r12,0x1f
1c0073d4:	5c02ad4b 	bne	$r10,$r11,684(0x2ac) # 1c007680 <inst_error>
1c0073d8:	157e824c 	lu12i.w	$r12,-265198(0xbf412)
1c0073dc:	02a3c18c 	addi.w	$r12,$r12,-1808(0x8f0)
1c0073e0:	1400000b 	lu12i.w	$r11,0
1c0073e4:	028bf56b 	addi.w	$r11,$r11,765(0x2fd)
1c0073e8:	0044d98a 	srli.w	$r10,$r12,0x16
1c0073ec:	5c02954b 	bne	$r10,$r11,660(0x294) # 1c007680 <inst_error>
1c0073f0:	15090c2c 	lu12i.w	$r12,-505759(0x84861)
1c0073f4:	02bbb18c 	addi.w	$r12,$r12,-276(0xeec)
1c0073f8:	1400084b 	lu12i.w	$r11,66(0x42)
1c0073fc:	0290c16b 	addi.w	$r11,$r11,1072(0x430)
1c007400:	0044b58a 	srli.w	$r10,$r12,0xd
1c007404:	5c027d4b 	bne	$r10,$r11,636(0x27c) # 1c007680 <inst_error>
1c007408:	152a2e6c 	lu12i.w	$r12,-437901(0x95173)
1c00740c:	0286618c 	addi.w	$r12,$r12,408(0x198)
1c007410:	1400254b 	lu12i.w	$r11,298(0x12a)
1c007414:	028b996b 	addi.w	$r11,$r11,742(0x2e6)
1c007418:	0044ad8a 	srli.w	$r10,$r12,0xb
1c00741c:	5c02654b 	bne	$r10,$r11,612(0x264) # 1c007680 <inst_error>
1c007420:	15c3ae8c 	lu12i.w	$r12,-123532(0xe1d74)
1c007424:	02a8818c 	addi.w	$r12,$r12,-1504(0xa20)
1c007428:	1400388b 	lu12i.w	$r11,452(0x1c4)
1c00742c:	02ab9d6b 	addi.w	$r11,$r11,-1305(0xae7)
1c007430:	0044ad8a 	srli.w	$r10,$r12,0xb
1c007434:	5c024d4b 	bne	$r10,$r11,588(0x24c) # 1c007680 <inst_error>
1c007438:	1461316c 	lu12i.w	$r12,199051(0x3098b)
1c00743c:	028a5d8c 	addi.w	$r12,$r12,663(0x297)
1c007440:	1461316b 	lu12i.w	$r11,199051(0x3098b)
1c007444:	028a5d6b 	addi.w	$r11,$r11,663(0x297)
1c007448:	0044818a 	srli.w	$r10,$r12,0x0
1c00744c:	5c02354b 	bne	$r10,$r11,564(0x234) # 1c007680 <inst_error>
1c007450:	1508084c 	lu12i.w	$r12,-507838(0x84042)
1c007454:	02a3ad8c 	addi.w	$r12,$r12,-1813(0x8eb)
1c007458:	1508084b 	lu12i.w	$r11,-507838(0x84042)
1c00745c:	02a3ad6b 	addi.w	$r11,$r11,-1813(0x8eb)
1c007460:	0044818a 	srli.w	$r10,$r12,0x0
1c007464:	5c021d4b 	bne	$r10,$r11,540(0x21c) # 1c007680 <inst_error>
1c007468:	1531140c 	lu12i.w	$r12,-423776(0x988a0)
1c00746c:	02b7418c 	addi.w	$r12,$r12,-560(0xdd0)
1c007470:	1531140b 	lu12i.w	$r11,-423776(0x988a0)
1c007474:	02b7416b 	addi.w	$r11,$r11,-560(0xdd0)
1c007478:	0044818a 	srli.w	$r10,$r12,0x0
1c00747c:	5c02054b 	bne	$r10,$r11,516(0x204) # 1c007680 <inst_error>
1c007480:	15d6cc4c 	lu12i.w	$r12,-84382(0xeb662)
1c007484:	0295598c 	addi.w	$r12,$r12,1366(0x556)
1c007488:	15d6cc4b 	lu12i.w	$r11,-84382(0xeb662)
1c00748c:	0295596b 	addi.w	$r11,$r11,1366(0x556)
1c007490:	0044818a 	srli.w	$r10,$r12,0x0
1c007494:	5c01ed4b 	bne	$r10,$r11,492(0x1ec) # 1c007680 <inst_error>
1c007498:	15b25bac 	lu12i.w	$r12,-159011(0xd92dd)
1c00749c:	0284398c 	addi.w	$r12,$r12,270(0x10e)
1c0074a0:	15b25bab 	lu12i.w	$r11,-159011(0xd92dd)
1c0074a4:	0284396b 	addi.w	$r11,$r11,270(0x10e)
1c0074a8:	0044818a 	srli.w	$r10,$r12,0x0
1c0074ac:	5c01d54b 	bne	$r10,$r11,468(0x1d4) # 1c007680 <inst_error>
1c0074b0:	15d6c48c 	lu12i.w	$r12,-84444(0xeb624)
1c0074b4:	0282d18c 	addi.w	$r12,$r12,180(0xb4)
1c0074b8:	15d6c48b 	lu12i.w	$r11,-84444(0xeb624)
1c0074bc:	0282d16b 	addi.w	$r11,$r11,180(0xb4)
1c0074c0:	0044818a 	srli.w	$r10,$r12,0x0
1c0074c4:	5c01bd4b 	bne	$r10,$r11,444(0x1bc) # 1c007680 <inst_error>
1c0074c8:	14f26d2c 	lu12i.w	$r12,496489(0x79369)
1c0074cc:	02b1518c 	addi.w	$r12,$r12,-940(0xc54)
1c0074d0:	14f26d2b 	lu12i.w	$r11,496489(0x79369)
1c0074d4:	02b1516b 	addi.w	$r11,$r11,-940(0xc54)
1c0074d8:	0044818a 	srli.w	$r10,$r12,0x0
1c0074dc:	5c01a54b 	bne	$r10,$r11,420(0x1a4) # 1c007680 <inst_error>
1c0074e0:	15fb552c 	lu12i.w	$r12,-9559(0xfdaa9)
1c0074e4:	02a5018c 	addi.w	$r12,$r12,-1728(0x940)
1c0074e8:	15fb552b 	lu12i.w	$r11,-9559(0xfdaa9)
1c0074ec:	02a5016b 	addi.w	$r11,$r11,-1728(0x940)
1c0074f0:	0044818a 	srli.w	$r10,$r12,0x0
1c0074f4:	5c018d4b 	bne	$r10,$r11,396(0x18c) # 1c007680 <inst_error>
1c0074f8:	15e7d32c 	lu12i.w	$r12,-49511(0xf3e99)
1c0074fc:	0284418c 	addi.w	$r12,$r12,272(0x110)
1c007500:	15e7d32b 	lu12i.w	$r11,-49511(0xf3e99)
1c007504:	0284416b 	addi.w	$r11,$r11,272(0x110)
1c007508:	0044818a 	srli.w	$r10,$r12,0x0
1c00750c:	5c01754b 	bne	$r10,$r11,372(0x174) # 1c007680 <inst_error>
1c007510:	140a4c2c 	lu12i.w	$r12,21089(0x5261)
1c007514:	02b3a18c 	addi.w	$r12,$r12,-792(0xce8)
1c007518:	140a4c2b 	lu12i.w	$r11,21089(0x5261)
1c00751c:	02b3a16b 	addi.w	$r11,$r11,-792(0xce8)
1c007520:	0044818a 	srli.w	$r10,$r12,0x0
1c007524:	5c015d4b 	bne	$r10,$r11,348(0x15c) # 1c007680 <inst_error>
1c007528:	153a7f0c 	lu12i.w	$r12,-404488(0x9d3f8)
1c00752c:	02b3b98c 	addi.w	$r12,$r12,-786(0xcee)
1c007530:	153a7f0b 	lu12i.w	$r11,-404488(0x9d3f8)
1c007534:	02b3b96b 	addi.w	$r11,$r11,-786(0xcee)
1c007538:	0044818a 	srli.w	$r10,$r12,0x0
1c00753c:	5c01454b 	bne	$r10,$r11,324(0x144) # 1c007680 <inst_error>
1c007540:	155cbf6c 	lu12i.w	$r12,-334341(0xae5fb)
1c007544:	0299618c 	addi.w	$r12,$r12,1624(0x658)
1c007548:	155cbf6b 	lu12i.w	$r11,-334341(0xae5fb)
1c00754c:	0299616b 	addi.w	$r11,$r11,1624(0x658)
1c007550:	0044818a 	srli.w	$r10,$r12,0x0
1c007554:	5c012d4b 	bne	$r10,$r11,300(0x12c) # 1c007680 <inst_error>
1c007558:	1462cc8c 	lu12i.w	$r12,202340(0x31664)
1c00755c:	02a3a18c 	addi.w	$r12,$r12,-1816(0x8e8)
1c007560:	1462cc8b 	lu12i.w	$r11,202340(0x31664)
1c007564:	02a3a16b 	addi.w	$r11,$r11,-1816(0x8e8)
1c007568:	0044818a 	srli.w	$r10,$r12,0x0
1c00756c:	5c01154b 	bne	$r10,$r11,276(0x114) # 1c007680 <inst_error>
1c007570:	14a4a36c 	lu12i.w	$r12,337179(0x5251b)
1c007574:	0287818c 	addi.w	$r12,$r12,480(0x1e0)
1c007578:	14a4a36b 	lu12i.w	$r11,337179(0x5251b)
1c00757c:	0287816b 	addi.w	$r11,$r11,480(0x1e0)
1c007580:	0044818a 	srli.w	$r10,$r12,0x0
1c007584:	5c00fd4b 	bne	$r10,$r11,252(0xfc) # 1c007680 <inst_error>
1c007588:	154394ec 	lu12i.w	$r12,-385881(0xa1ca7)
1c00758c:	02a6818c 	addi.w	$r12,$r12,-1632(0x9a0)
1c007590:	154394eb 	lu12i.w	$r11,-385881(0xa1ca7)
1c007594:	02a6816b 	addi.w	$r11,$r11,-1632(0x9a0)
1c007598:	0044818a 	srli.w	$r10,$r12,0x0
1c00759c:	5c00e54b 	bne	$r10,$r11,228(0xe4) # 1c007680 <inst_error>
1c0075a0:	140410ec 	lu12i.w	$r12,8327(0x2087)
1c0075a4:	02be618c 	addi.w	$r12,$r12,-104(0xf98)
1c0075a8:	140410eb 	lu12i.w	$r11,8327(0x2087)
1c0075ac:	02be616b 	addi.w	$r11,$r11,-104(0xf98)
1c0075b0:	0044818a 	srli.w	$r10,$r12,0x0
1c0075b4:	5c00cd4b 	bne	$r10,$r11,204(0xcc) # 1c007680 <inst_error>
1c0075b8:	1400000c 	lu12i.w	$r12,0
1c0075bc:	0280018c 	addi.w	$r12,$r12,0
1c0075c0:	1400000b 	lu12i.w	$r11,0
1c0075c4:	0280016b 	addi.w	$r11,$r11,0
1c0075c8:	0044c18a 	srli.w	$r10,$r12,0x10
1c0075cc:	5c00b54b 	bne	$r10,$r11,180(0xb4) # 1c007680 <inst_error>
1c0075d0:	1400000c 	lu12i.w	$r12,0
1c0075d4:	0280018c 	addi.w	$r12,$r12,0
1c0075d8:	1400000b 	lu12i.w	$r11,0
1c0075dc:	0280016b 	addi.w	$r11,$r11,0
1c0075e0:	0044e18a 	srli.w	$r10,$r12,0x18
1c0075e4:	5c009d4b 	bne	$r10,$r11,156(0x9c) # 1c007680 <inst_error>
1c0075e8:	1400000c 	lu12i.w	$r12,0
1c0075ec:	0280018c 	addi.w	$r12,$r12,0
1c0075f0:	1400000b 	lu12i.w	$r11,0
1c0075f4:	0280016b 	addi.w	$r11,$r11,0
1c0075f8:	0044a58a 	srli.w	$r10,$r12,0x9
1c0075fc:	5c00854b 	bne	$r10,$r11,132(0x84) # 1c007680 <inst_error>
1c007600:	1400000c 	lu12i.w	$r12,0
1c007604:	0280018c 	addi.w	$r12,$r12,0
1c007608:	1400000b 	lu12i.w	$r11,0
1c00760c:	0280016b 	addi.w	$r11,$r11,0
1c007610:	0044e98a 	srli.w	$r10,$r12,0x1a
1c007614:	5c006d4b 	bne	$r10,$r11,108(0x6c) # 1c007680 <inst_error>
1c007618:	1400000c 	lu12i.w	$r12,0
1c00761c:	0280018c 	addi.w	$r12,$r12,0
1c007620:	1400000b 	lu12i.w	$r11,0
1c007624:	0280016b 	addi.w	$r11,$r11,0
1c007628:	0044f18a 	srli.w	$r10,$r12,0x1c
1c00762c:	5c00554b 	bne	$r10,$r11,84(0x54) # 1c007680 <inst_error>
1c007630:	1400000c 	lu12i.w	$r12,0
1c007634:	0280018c 	addi.w	$r12,$r12,0
1c007638:	1400000b 	lu12i.w	$r11,0
1c00763c:	0280016b 	addi.w	$r11,$r11,0
1c007640:	0044e18a 	srli.w	$r10,$r12,0x18
1c007644:	5c003d4b 	bne	$r10,$r11,60(0x3c) # 1c007680 <inst_error>
1c007648:	1400000c 	lu12i.w	$r12,0
1c00764c:	0280018c 	addi.w	$r12,$r12,0
1c007650:	1400000b 	lu12i.w	$r11,0
1c007654:	0280016b 	addi.w	$r11,$r11,0
1c007658:	0044918a 	srli.w	$r10,$r12,0x4
1c00765c:	5c00254b 	bne	$r10,$r11,36(0x24) # 1c007680 <inst_error>
1c007660:	1400000c 	lu12i.w	$r12,0
1c007664:	0280018c 	addi.w	$r12,$r12,0
1c007668:	1400000b 	lu12i.w	$r11,0
1c00766c:	0280016b 	addi.w	$r11,$r11,0
1c007670:	0044818a 	srli.w	$r10,$r12,0x0
1c007674:	5c000d4b 	bne	$r10,$r11,12(0xc) # 1c007680 <inst_error>
1c007678:	5c000b20 	bne	$r25,$r0,8(0x8) # 1c007680 <inst_error>
1c00767c:	0280075a 	addi.w	$r26,$r26,1(0x1)

1c007680 <inst_error>:
1c007680:	0040e2ed 	slli.w	$r13,$r23,0x18
1c007684:	001569ac 	or	$r12,$r13,$r26
1c007688:	2980030c 	st.w	$r12,$r24,0
1c00768c:	4c000020 	jirl	$r0,$r1,0

1c007690 <n2_add_w_test>:
n2_add_w_test():
1c007690:	028006f7 	addi.w	$r23,$r23,1(0x1)
1c007694:	02800019 	addi.w	$r25,$r0,0
1c007698:	1435bdec 	lu12i.w	$r12,110063(0x1adef)
1c00769c:	028c018c 	addi.w	$r12,$r12,768(0x300)
1c0076a0:	14a3bacd 	lu12i.w	$r13,335318(0x51dd6)
1c0076a4:	02a379ad 	addi.w	$r13,$r13,-1826(0x8de)
1c0076a8:	14d978ab 	lu12i.w	$r11,445381(0x6cbc5)
1c0076ac:	02af796b 	addi.w	$r11,$r11,-1058(0xbde)
1c0076b0:	0010358a 	add.w	$r10,$r12,$r13
1c0076b4:	5c0ccd4b 	bne	$r10,$r11,3276(0xccc) # 1c008380 <inst_error>
1c0076b8:	152ce9ec 	lu12i.w	$r12,-432305(0x9674f)
1c0076bc:	02a9818c 	addi.w	$r12,$r12,-1440(0xa60)
1c0076c0:	15568ead 	lu12i.w	$r13,-347019(0xab475)
1c0076c4:	029e49ad 	addi.w	$r13,$r13,1938(0x792)
1c0076c8:	1483788b 	lu12i.w	$r11,269252(0x41bc4)
1c0076cc:	0287c96b 	addi.w	$r11,$r11,498(0x1f2)
1c0076d0:	0010358a 	add.w	$r10,$r12,$r13
1c0076d4:	5c0cad4b 	bne	$r10,$r11,3244(0xcac) # 1c008380 <inst_error>
1c0076d8:	156c1b8c 	lu12i.w	$r12,-302884(0xb60dc)
1c0076dc:	02a6198c 	addi.w	$r12,$r12,-1658(0x986)
1c0076e0:	145cadad 	lu12i.w	$r13,189805(0x2e56d)
1c0076e4:	02a069ad 	addi.w	$r13,$r13,-2022(0x81a)
1c0076e8:	15c8c90b 	lu12i.w	$r11,-113080(0xe4648)
1c0076ec:	0286816b 	addi.w	$r11,$r11,416(0x1a0)
1c0076f0:	0010358a 	add.w	$r10,$r12,$r13
1c0076f4:	5c0c8d4b 	bne	$r10,$r11,3212(0xc8c) # 1c008380 <inst_error>
1c0076f8:	15aabdcc 	lu12i.w	$r12,-174610(0xd55ee)
1c0076fc:	02af018c 	addi.w	$r12,$r12,-1088(0xbc0)
1c007700:	14c1ebad 	lu12i.w	$r13,397149(0x60f5d)
1c007704:	02ac31ad 	addi.w	$r13,$r13,-1268(0xb0c)
1c007708:	146ca94b 	lu12i.w	$r11,222538(0x3654a)
1c00770c:	029b316b 	addi.w	$r11,$r11,1740(0x6cc)
1c007710:	0010358a 	add.w	$r10,$r12,$r13
1c007714:	5c0c6d4b 	bne	$r10,$r11,3180(0xc6c) # 1c008380 <inst_error>
1c007718:	154571cc 	lu12i.w	$r12,-382066(0xa2b8e)
1c00771c:	0293818c 	addi.w	$r12,$r12,1248(0x4e0)
1c007720:	158dcced 	lu12i.w	$r13,-233881(0xc6e67)
1c007724:	02aa81ad 	addi.w	$r13,$r13,-1376(0xaa0)
1c007728:	14d33eab 	lu12i.w	$r11,432629(0x699f5)
1c00772c:	02be016b 	addi.w	$r11,$r11,-128(0xf80)
1c007730:	0010358a 	add.w	$r10,$r12,$r13
1c007734:	5c0c4d4b 	bne	$r10,$r11,3148(0xc4c) # 1c008380 <inst_error>
1c007738:	15d80a0c 	lu12i.w	$r12,-81840(0xec050)
1c00773c:	0286858c 	addi.w	$r12,$r12,417(0x1a1)
1c007740:	14304d0d 	lu12i.w	$r13,98920(0x18268)
1c007744:	02a499ad 	addi.w	$r13,$r13,-1754(0x926)
1c007748:	1408570b 	lu12i.w	$r11,17080(0x42b8)
1c00774c:	02ab1d6b 	addi.w	$r11,$r11,-1337(0xac7)
1c007750:	0010358a 	add.w	$r10,$r12,$r13
1c007754:	5c0c2d4b 	bne	$r10,$r11,3116(0xc2c) # 1c008380 <inst_error>
1c007758:	14d5bc6c 	lu12i.w	$r12,437731(0x6ade3)
1c00775c:	029ac18c 	addi.w	$r12,$r12,1712(0x6b0)
1c007760:	15803a8d 	lu12i.w	$r13,-261676(0xc01d4)
1c007764:	028801ad 	addi.w	$r13,$r13,512(0x200)
1c007768:	1455f70b 	lu12i.w	$r11,176056(0x2afb8)
1c00776c:	02a2c16b 	addi.w	$r11,$r11,-1872(0x8b0)
1c007770:	0010358a 	add.w	$r10,$r12,$r13
1c007774:	5c0c0d4b 	bne	$r10,$r11,3084(0xc0c) # 1c008380 <inst_error>
1c007778:	14d8112c 	lu12i.w	$r12,442505(0x6c089)
1c00777c:	02b3a18c 	addi.w	$r12,$r12,-792(0xce8)
1c007780:	15439c8d 	lu12i.w	$r13,-385820(0xa1ce4)
1c007784:	028101ad 	addi.w	$r13,$r13,64(0x40)
1c007788:	141badab 	lu12i.w	$r11,56685(0xdd6d)
1c00778c:	02b4a16b 	addi.w	$r11,$r11,-728(0xd28)
1c007790:	0010358a 	add.w	$r10,$r12,$r13
1c007794:	5c0bed4b 	bne	$r10,$r11,3052(0xbec) # 1c008380 <inst_error>
1c007798:	149e2dec 	lu12i.w	$r12,323951(0x4f16f)
1c00779c:	02a31d8c 	addi.w	$r12,$r12,-1849(0x8c7)
1c0077a0:	1448258d 	lu12i.w	$r13,147756(0x2412c)
1c0077a4:	02b341ad 	addi.w	$r13,$r13,-816(0xcd0)
1c0077a8:	14e6534b 	lu12i.w	$r11,471706(0x7329a)
1c0077ac:	02965d6b 	addi.w	$r11,$r11,1431(0x597)
1c0077b0:	0010358a 	add.w	$r10,$r12,$r13
1c0077b4:	5c0bcd4b 	bne	$r10,$r11,3020(0xbcc) # 1c008380 <inst_error>
1c0077b8:	140414ac 	lu12i.w	$r12,8357(0x20a5)
1c0077bc:	02876d8c 	addi.w	$r12,$r12,475(0x1db)
1c0077c0:	156d176d 	lu12i.w	$r13,-300869(0xb68bb)
1c0077c4:	0292e9ad 	addi.w	$r13,$r13,1210(0x4ba)
1c0077c8:	15712c0b 	lu12i.w	$r11,-292512(0xb8960)
1c0077cc:	029a556b 	addi.w	$r11,$r11,1685(0x695)
1c0077d0:	0010358a 	add.w	$r10,$r12,$r13
1c0077d4:	5c0bad4b 	bne	$r10,$r11,2988(0xbac) # 1c008380 <inst_error>
1c0077d8:	1480f32c 	lu12i.w	$r12,264089(0x40799)
1c0077dc:	02a6818c 	addi.w	$r12,$r12,-1632(0x9a0)
1c0077e0:	14e02aad 	lu12i.w	$r13,459093(0x70155)
1c0077e4:	029afdad 	addi.w	$r13,$r13,1727(0x6bf)
1c0077e8:	15611dcb 	lu12i.w	$r11,-325394(0xb08ee)
1c0077ec:	02817d6b 	addi.w	$r11,$r11,95(0x5f)
1c0077f0:	0010358a 	add.w	$r10,$r12,$r13
1c0077f4:	5c0b8d4b 	bne	$r10,$r11,2956(0xb8c) # 1c008380 <inst_error>
1c0077f8:	1479302c 	lu12i.w	$r12,248193(0x3c981)
1c0077fc:	0295a18c 	addi.w	$r12,$r12,1384(0x568)
1c007800:	1447504d 	lu12i.w	$r13,146050(0x23a82)
1c007804:	029801ad 	addi.w	$r13,$r13,1536(0x600)
1c007808:	14c0808b 	lu12i.w	$r11,394244(0x60404)
1c00780c:	02ada16b 	addi.w	$r11,$r11,-1176(0xb68)
1c007810:	0010358a 	add.w	$r10,$r12,$r13
1c007814:	5c0b6d4b 	bne	$r10,$r11,2924(0xb6c) # 1c008380 <inst_error>
1c007818:	1525c6ac 	lu12i.w	$r12,-446923(0x92e35)
1c00781c:	0295018c 	addi.w	$r12,$r12,1344(0x540)
1c007820:	14e3bacd 	lu12i.w	$r13,466390(0x71dd6)
1c007824:	029439ad 	addi.w	$r13,$r13,1294(0x50e)
1c007828:	1409818b 	lu12i.w	$r11,19468(0x4c0c)
1c00782c:	02a9396b 	addi.w	$r11,$r11,-1458(0xa4e)
1c007830:	0010358a 	add.w	$r10,$r12,$r13
1c007834:	5c0b4d4b 	bne	$r10,$r11,2892(0xb4c) # 1c008380 <inst_error>
1c007838:	147a1d6c 	lu12i.w	$r12,250091(0x3d0eb)
1c00783c:	02b8d98c 	addi.w	$r12,$r12,-458(0xe36)
1c007840:	1490f62d 	lu12i.w	$r13,296881(0x487b1)
1c007844:	02ae91ad 	addi.w	$r13,$r13,-1116(0xba4)
1c007848:	150b138b 	lu12i.w	$r11,-501604(0x8589c)
1c00784c:	02a7696b 	addi.w	$r11,$r11,-1574(0x9da)
1c007850:	0010358a 	add.w	$r10,$r12,$r13
1c007854:	5c0b2d4b 	bne	$r10,$r11,2860(0xb2c) # 1c008380 <inst_error>
1c007858:	14a9746c 	lu12i.w	$r12,347043(0x54ba3)
1c00785c:	02a1818c 	addi.w	$r12,$r12,-1952(0x860)
1c007860:	14c1f08d 	lu12i.w	$r13,397188(0x60f84)
1c007864:	0290a1ad 	addi.w	$r13,$r13,1064(0x428)
1c007868:	156b64eb 	lu12i.w	$r11,-304345(0xb5b27)
1c00786c:	02b2216b 	addi.w	$r11,$r11,-888(0xc88)
1c007870:	0010358a 	add.w	$r10,$r12,$r13
1c007874:	5c0b0d4b 	bne	$r10,$r11,2828(0xb0c) # 1c008380 <inst_error>
1c007878:	145ffecc 	lu12i.w	$r12,196598(0x2fff6)
1c00787c:	0294898c 	addi.w	$r12,$r12,1314(0x522)
1c007880:	150fc60d 	lu12i.w	$r13,-491984(0x87e30)
1c007884:	0296c1ad 	addi.w	$r13,$r13,1456(0x5b0)
1c007888:	156fc4eb 	lu12i.w	$r11,-295385(0xb7e27)
1c00788c:	02ab496b 	addi.w	$r11,$r11,-1326(0xad2)
1c007890:	0010358a 	add.w	$r10,$r12,$r13
1c007894:	5c0aed4b 	bne	$r10,$r11,2796(0xaec) # 1c008380 <inst_error>
1c007898:	1494cdec 	lu12i.w	$r12,304751(0x4a66f)
1c00789c:	0299a98c 	addi.w	$r12,$r12,1642(0x66a)
1c0078a0:	15a6038d 	lu12i.w	$r13,-184292(0xd301c)
1c0078a4:	02a361ad 	addi.w	$r13,$r13,-1832(0x8d8)
1c0078a8:	143ad16b 	lu12i.w	$r11,120459(0x1d68b)
1c0078ac:	02bd096b 	addi.w	$r11,$r11,-190(0xf42)
1c0078b0:	0010358a 	add.w	$r10,$r12,$r13
1c0078b4:	5c0acd4b 	bne	$r10,$r11,2764(0xacc) # 1c008380 <inst_error>
1c0078b8:	15188bcc 	lu12i.w	$r12,-474018(0x8c45e)
1c0078bc:	02b3418c 	addi.w	$r12,$r12,-816(0xcd0)
1c0078c0:	14d2418d 	lu12i.w	$r13,430604(0x6920c)
1c0078c4:	0296e1ad 	addi.w	$r13,$r13,1464(0x5b8)
1c0078c8:	15eacd4b 	lu12i.w	$r11,-43414(0xf566a)
1c0078cc:	028a216b 	addi.w	$r11,$r11,648(0x288)
1c0078d0:	0010358a 	add.w	$r10,$r12,$r13
1c0078d4:	5c0aad4b 	bne	$r10,$r11,2732(0xaac) # 1c008380 <inst_error>
1c0078d8:	15966e6c 	lu12i.w	$r12,-216205(0xcb373)
1c0078dc:	02b2818c 	addi.w	$r12,$r12,-864(0xca0)
1c0078e0:	143c754d 	lu12i.w	$r13,123818(0x1e3aa)
1c0078e4:	028481ad 	addi.w	$r13,$r13,288(0x120)
1c0078e8:	15d2e3ab 	lu12i.w	$r11,-92387(0xe971d)
1c0078ec:	02b7016b 	addi.w	$r11,$r11,-576(0xdc0)
1c0078f0:	0010358a 	add.w	$r10,$r12,$r13
1c0078f4:	5c0a8d4b 	bne	$r10,$r11,2700(0xa8c) # 1c008380 <inst_error>
1c0078f8:	1518ee2c 	lu12i.w	$r12,-473231(0x8c771)
1c0078fc:	0286218c 	addi.w	$r12,$r12,392(0x188)
1c007900:	144a936d 	lu12i.w	$r13,152731(0x2549b)
1c007904:	02b6e9ad 	addi.w	$r13,$r13,-582(0xdba)
1c007908:	1563818b 	lu12i.w	$r11,-320500(0xb1c0c)
1c00790c:	02bd096b 	addi.w	$r11,$r11,-190(0xf42)
1c007910:	0010358a 	add.w	$r10,$r12,$r13
1c007914:	5c0a6d4b 	bne	$r10,$r11,2668(0xa6c) # 1c008380 <inst_error>
1c007918:	141b934c 	lu12i.w	$r12,56474(0xdc9a)
1c00791c:	0297c18c 	addi.w	$r12,$r12,1520(0x5f0)
1c007920:	14d0a80d 	lu12i.w	$r13,427328(0x68540)
1c007924:	029d49ad 	addi.w	$r13,$r13,1874(0x752)
1c007928:	14ec3b6b 	lu12i.w	$r11,483803(0x761db)
1c00792c:	02b5096b 	addi.w	$r11,$r11,-702(0xd42)
1c007930:	0010358a 	add.w	$r10,$r12,$r13
1c007934:	5c0a4d4b 	bne	$r10,$r11,2636(0xa4c) # 1c008380 <inst_error>
1c007938:	158b9b4c 	lu12i.w	$r12,-238374(0xc5cda)
1c00793c:	0287c18c 	addi.w	$r12,$r12,496(0x1f0)
1c007940:	158f4a4d 	lu12i.w	$r13,-230830(0xc7a52)
1c007944:	02a4c1ad 	addi.w	$r13,$r13,-1744(0x930)
1c007948:	151ae58b 	lu12i.w	$r11,-469204(0x8d72c)
1c00794c:	02ac816b 	addi.w	$r11,$r11,-1248(0xb20)
1c007950:	0010358a 	add.w	$r10,$r12,$r13
1c007954:	5c0a2d4b 	bne	$r10,$r11,2604(0xa2c) # 1c008380 <inst_error>
1c007958:	14329f0c 	lu12i.w	$r12,103672(0x194f8)
1c00795c:	02a9398c 	addi.w	$r12,$r12,-1458(0xa4e)
1c007960:	15a384cd 	lu12i.w	$r13,-189402(0xd1c26)
1c007964:	02b809ad 	addi.w	$r13,$r13,-510(0xe02)
1c007968:	15d623cb 	lu12i.w	$r11,-85730(0xeb11e)
1c00796c:	02a1416b 	addi.w	$r11,$r11,-1968(0x850)
1c007970:	0010358a 	add.w	$r10,$r12,$r13
1c007974:	5c0a0d4b 	bne	$r10,$r11,2572(0xa0c) # 1c008380 <inst_error>
1c007978:	15fbf2ec 	lu12i.w	$r12,-8297(0xfdf97)
1c00797c:	0296e98c 	addi.w	$r12,$r12,1466(0x5ba)
1c007980:	14e7540d 	lu12i.w	$r13,473760(0x73aa0)
1c007984:	029a5dad 	addi.w	$r13,$r13,1687(0x697)
1c007988:	14e3470b 	lu12i.w	$r11,465464(0x71a38)
1c00798c:	02b1456b 	addi.w	$r11,$r11,-943(0xc51)
1c007990:	0010358a 	add.w	$r10,$r12,$r13
1c007994:	5c09ed4b 	bne	$r10,$r11,2540(0x9ec) # 1c008380 <inst_error>
1c007998:	15d9bd6c 	lu12i.w	$r12,-78357(0xecdeb)
1c00799c:	02ad218c 	addi.w	$r12,$r12,-1208(0xb48)
1c0079a0:	1554932d 	lu12i.w	$r13,-351079(0xaa499)
1c0079a4:	02a641ad 	addi.w	$r13,$r13,-1648(0x990)
1c0079a8:	152e506b 	lu12i.w	$r11,-429437(0x97283)
1c0079ac:	0293616b 	addi.w	$r11,$r11,1240(0x4d8)
1c0079b0:	0010358a 	add.w	$r10,$r12,$r13
1c0079b4:	5c09cd4b 	bne	$r10,$r11,2508(0x9cc) # 1c008380 <inst_error>
1c0079b8:	1446788c 	lu12i.w	$r12,144324(0x233c4)
1c0079bc:	0280d18c 	addi.w	$r12,$r12,52(0x34)
1c0079c0:	15feab0d 	lu12i.w	$r13,-2728(0xff558)
1c0079c4:	02a2e1ad 	addi.w	$r13,$r13,-1864(0x8b8)
1c0079c8:	1445238b 	lu12i.w	$r11,141596(0x2291c)
1c0079cc:	02a3b16b 	addi.w	$r11,$r11,-1812(0x8ec)
1c0079d0:	0010358a 	add.w	$r10,$r12,$r13
1c0079d4:	5c09ad4b 	bne	$r10,$r11,2476(0x9ac) # 1c008380 <inst_error>
1c0079d8:	14675cec 	lu12i.w	$r12,211687(0x33ae7)
1c0079dc:	02ba418c 	addi.w	$r12,$r12,-368(0xe90)
1c0079e0:	1565ba4d 	lu12i.w	$r13,-315950(0xb2dd2)
1c0079e4:	02a0c1ad 	addi.w	$r13,$r13,-2000(0x830)
1c0079e8:	15cd170b 	lu12i.w	$r11,-104264(0xe68b8)
1c0079ec:	029b016b 	addi.w	$r11,$r11,1728(0x6c0)
1c0079f0:	0010358a 	add.w	$r10,$r12,$r13
1c0079f4:	5c098d4b 	bne	$r10,$r11,2444(0x98c) # 1c008380 <inst_error>
1c0079f8:	1518d54c 	lu12i.w	$r12,-473430(0x8c6aa)
1c0079fc:	0288298c 	addi.w	$r12,$r12,522(0x20a)
1c007a00:	1507be8d 	lu12i.w	$r13,-508428(0x83df4)
1c007a04:	02b559ad 	addi.w	$r13,$r13,-682(0xd56)
1c007a08:	142093cb 	lu12i.w	$r11,66718(0x1049e)
1c007a0c:	02bd816b 	addi.w	$r11,$r11,-160(0xf60)
1c007a10:	0010358a 	add.w	$r10,$r12,$r13
1c007a14:	5c096d4b 	bne	$r10,$r11,2412(0x96c) # 1c008380 <inst_error>
1c007a18:	140111ec 	lu12i.w	$r12,2191(0x88f)
1c007a1c:	02be618c 	addi.w	$r12,$r12,-104(0xf98)
1c007a20:	155e4a4d 	lu12i.w	$r13,-331182(0xaf252)
1c007a24:	028c11ad 	addi.w	$r13,$r13,772(0x304)
1c007a28:	155f5c2b 	lu12i.w	$r11,-328991(0xafae1)
1c007a2c:	028a716b 	addi.w	$r11,$r11,668(0x29c)
1c007a30:	0010358a 	add.w	$r10,$r12,$r13
1c007a34:	5c094d4b 	bne	$r10,$r11,2380(0x94c) # 1c008380 <inst_error>
1c007a38:	15b2bc6c 	lu12i.w	$r12,-158237(0xd95e3)
1c007a3c:	02b4c18c 	addi.w	$r12,$r12,-720(0xd30)
1c007a40:	1426cecd 	lu12i.w	$r13,79478(0x13676)
1c007a44:	029c59ad 	addi.w	$r13,$r13,1814(0x716)
1c007a48:	15d98b2b 	lu12i.w	$r11,-78759(0xecc59)
1c007a4c:	0291196b 	addi.w	$r11,$r11,1094(0x446)
1c007a50:	0010358a 	add.w	$r10,$r12,$r13
1c007a54:	5c092d4b 	bne	$r10,$r11,2348(0x92c) # 1c008380 <inst_error>
1c007a58:	1539ff6c 	lu12i.w	$r12,-405509(0x9cffb)
1c007a5c:	02b5218c 	addi.w	$r12,$r12,-696(0xd48)
1c007a60:	15f5948d 	lu12i.w	$r13,-21340(0xfaca4)
1c007a64:	02b071ad 	addi.w	$r13,$r13,-996(0xc1c)
1c007a68:	152f93eb 	lu12i.w	$r11,-426849(0x97c9f)
1c007a6c:	02a5916b 	addi.w	$r11,$r11,-1692(0x964)
1c007a70:	0010358a 	add.w	$r10,$r12,$r13
1c007a74:	5c090d4b 	bne	$r10,$r11,2316(0x90c) # 1c008380 <inst_error>
1c007a78:	1468594c 	lu12i.w	$r12,213706(0x342ca)
1c007a7c:	02b7e18c 	addi.w	$r12,$r12,-520(0xdf8)
1c007a80:	14ebd8ad 	lu12i.w	$r13,483013(0x75ec5)
1c007a84:	029a25ad 	addi.w	$r13,$r13,1673(0x689)
1c007a88:	155431eb 	lu12i.w	$r11,-351857(0xaa18f)
1c007a8c:	0292056b 	addi.w	$r11,$r11,1153(0x481)
1c007a90:	0010358a 	add.w	$r10,$r12,$r13
1c007a94:	5c08ed4b 	bne	$r10,$r11,2284(0x8ec) # 1c008380 <inst_error>
1c007a98:	14adfa6c 	lu12i.w	$r12,356307(0x56fd3)
1c007a9c:	02ac018c 	addi.w	$r12,$r12,-1280(0xb00)
1c007aa0:	14e225cd 	lu12i.w	$r13,463150(0x7112e)
1c007aa4:	02881dad 	addi.w	$r13,$r13,519(0x207)
1c007aa8:	1590202b 	lu12i.w	$r11,-229119(0xc8101)
1c007aac:	02b41d6b 	addi.w	$r11,$r11,-761(0xd07)
1c007ab0:	0010358a 	add.w	$r10,$r12,$r13
1c007ab4:	5c08cd4b 	bne	$r10,$r11,2252(0x8cc) # 1c008380 <inst_error>
1c007ab8:	14fb670c 	lu12i.w	$r12,514872(0x7db38)
1c007abc:	0282998c 	addi.w	$r12,$r12,166(0xa6)
1c007ac0:	1585f6cd 	lu12i.w	$r13,-249930(0xc2fb6)
1c007ac4:	02b371ad 	addi.w	$r13,$r13,-804(0xcdc)
1c007ac8:	14815dcb 	lu12i.w	$r11,264942(0x40aee)
1c007acc:	02b6096b 	addi.w	$r11,$r11,-638(0xd82)
1c007ad0:	0010358a 	add.w	$r10,$r12,$r13
1c007ad4:	5c08ad4b 	bne	$r10,$r11,2220(0x8ac) # 1c008380 <inst_error>
1c007ad8:	15cc7c2c 	lu12i.w	$r12,-105503(0xe63e1)
1c007adc:	029f018c 	addi.w	$r12,$r12,1984(0x7c0)
1c007ae0:	144ed3cd 	lu12i.w	$r13,161438(0x2769e)
1c007ae4:	02b639ad 	addi.w	$r13,$r13,-626(0xd8e)
1c007ae8:	141b4feb 	lu12i.w	$r11,55935(0xda7f)
1c007aec:	0295396b 	addi.w	$r11,$r11,1358(0x54e)
1c007af0:	0010358a 	add.w	$r10,$r12,$r13
1c007af4:	5c088d4b 	bne	$r10,$r11,2188(0x88c) # 1c008380 <inst_error>
1c007af8:	15d2c5ec 	lu12i.w	$r12,-92625(0xe962f)
1c007afc:	02a3318c 	addi.w	$r12,$r12,-1844(0x8cc)
1c007b00:	1561fe0d 	lu12i.w	$r13,-323600(0xb0ff0)
1c007b04:	02b379ad 	addi.w	$r13,$r13,-802(0xcde)
1c007b08:	1534c3cb 	lu12i.w	$r11,-416226(0x9a61e)
1c007b0c:	0296a96b 	addi.w	$r11,$r11,1450(0x5aa)
1c007b10:	0010358a 	add.w	$r10,$r12,$r13
1c007b14:	5c086d4b 	bne	$r10,$r11,2156(0x86c) # 1c008380 <inst_error>
1c007b18:	14fa4b2c 	lu12i.w	$r12,512601(0x7d259)
1c007b1c:	0284018c 	addi.w	$r12,$r12,256(0x100)
1c007b20:	15913dcd 	lu12i.w	$r13,-226834(0xc89ee)
1c007b24:	02a691ad 	addi.w	$r13,$r13,-1628(0x9a4)
1c007b28:	148b88eb 	lu12i.w	$r11,285767(0x45c47)
1c007b2c:	02aa916b 	addi.w	$r11,$r11,-1372(0xaa4)
1c007b30:	0010358a 	add.w	$r10,$r12,$r13
1c007b34:	5c084d4b 	bne	$r10,$r11,2124(0x84c) # 1c008380 <inst_error>
1c007b38:	1471852c 	lu12i.w	$r12,232489(0x38c29)
1c007b3c:	02a0018c 	addi.w	$r12,$r12,-2048(0x800)
1c007b40:	152b7d0d 	lu12i.w	$r13,-435224(0x95be8)
1c007b44:	02a511ad 	addi.w	$r13,$r13,-1724(0x944)
1c007b48:	159d020b 	lu12i.w	$r11,-202736(0xce810)
1c007b4c:	0285116b 	addi.w	$r11,$r11,324(0x144)
1c007b50:	0010358a 	add.w	$r10,$r12,$r13
1c007b54:	5c082d4b 	bne	$r10,$r11,2092(0x82c) # 1c008380 <inst_error>
1c007b58:	14349d6c 	lu12i.w	$r12,107755(0x1a4eb)
1c007b5c:	02a4998c 	addi.w	$r12,$r12,-1754(0x926)
1c007b60:	14c33b8d 	lu12i.w	$r13,399836(0x619dc)
1c007b64:	029f8dad 	addi.w	$r13,$r13,2019(0x7e3)
1c007b68:	14f7d8eb 	lu12i.w	$r11,507591(0x7bec7)
1c007b6c:	0284256b 	addi.w	$r11,$r11,265(0x109)
1c007b70:	0010358a 	add.w	$r10,$r12,$r13
1c007b74:	5c080d4b 	bne	$r10,$r11,2060(0x80c) # 1c008380 <inst_error>
1c007b78:	153beeac 	lu12i.w	$r12,-401547(0x9df75)
1c007b7c:	02b7a18c 	addi.w	$r12,$r12,-536(0xde8)
1c007b80:	148f5f2d 	lu12i.w	$r13,293625(0x47af9)
1c007b84:	029061ad 	addi.w	$r13,$r13,1048(0x418)
1c007b88:	15cb4dcb 	lu12i.w	$r11,-107922(0xe5a6e)
1c007b8c:	0288016b 	addi.w	$r11,$r11,512(0x200)
1c007b90:	0010358a 	add.w	$r10,$r12,$r13
1c007b94:	5c07ed4b 	bne	$r10,$r11,2028(0x7ec) # 1c008380 <inst_error>
1c007b98:	141b9e4c 	lu12i.w	$r12,56562(0xdcf2)
1c007b9c:	029a418c 	addi.w	$r12,$r12,1680(0x690)
1c007ba0:	15a405ed 	lu12i.w	$r13,-188369(0xd202f)
1c007ba4:	028fa9ad 	addi.w	$r13,$r13,1002(0x3ea)
1c007ba8:	15bfa44b 	lu12i.w	$r11,-131806(0xdfd22)
1c007bac:	02a9e96b 	addi.w	$r11,$r11,-1414(0xa7a)
1c007bb0:	0010358a 	add.w	$r10,$r12,$r13
1c007bb4:	5c07cd4b 	bne	$r10,$r11,1996(0x7cc) # 1c008380 <inst_error>
1c007bb8:	14fdb3ac 	lu12i.w	$r12,519581(0x7ed9d)
1c007bbc:	02b2418c 	addi.w	$r12,$r12,-880(0xc90)
1c007bc0:	158614ed 	lu12i.w	$r13,-249689(0xc30a7)
1c007bc4:	02a161ad 	addi.w	$r13,$r13,-1960(0x858)
1c007bc8:	1483c86b 	lu12i.w	$r11,269891(0x41e43)
1c007bcc:	0293a16b 	addi.w	$r11,$r11,1256(0x4e8)
1c007bd0:	0010358a 	add.w	$r10,$r12,$r13
1c007bd4:	5c07ad4b 	bne	$r10,$r11,1964(0x7ac) # 1c008380 <inst_error>
1c007bd8:	1599a6ac 	lu12i.w	$r12,-209611(0xccd35)
1c007bdc:	0285cd8c 	addi.w	$r12,$r12,371(0x173)
1c007be0:	15f2fa2d 	lu12i.w	$r13,-26671(0xf97d1)
1c007be4:	029711ad 	addi.w	$r13,$r13,1476(0x5c4)
1c007be8:	158ca0cb 	lu12i.w	$r11,-236282(0xc6506)
1c007bec:	029cdd6b 	addi.w	$r11,$r11,1847(0x737)
1c007bf0:	0010358a 	add.w	$r10,$r12,$r13
1c007bf4:	5c078d4b 	bne	$r10,$r11,1932(0x78c) # 1c008380 <inst_error>
1c007bf8:	1567250c 	lu12i.w	$r12,-313048(0xb3928)
1c007bfc:	0289618c 	addi.w	$r12,$r12,600(0x258)
1c007c00:	15d312ed 	lu12i.w	$r13,-92009(0xe9897)
1c007c04:	02bd01ad 	addi.w	$r13,$r13,-192(0xf40)
1c007c08:	153a37eb 	lu12i.w	$r11,-405057(0x9d1bf)
1c007c0c:	0286616b 	addi.w	$r11,$r11,408(0x198)
1c007c10:	0010358a 	add.w	$r10,$r12,$r13
1c007c14:	5c076d4b 	bne	$r10,$r11,1900(0x76c) # 1c008380 <inst_error>
1c007c18:	146236ac 	lu12i.w	$r12,201141(0x311b5)
1c007c1c:	02ba418c 	addi.w	$r12,$r12,-368(0xe90)
1c007c20:	155ad3ed 	lu12i.w	$r13,-338273(0xad69f)
1c007c24:	02b641ad 	addi.w	$r13,$r13,-624(0xd90)
1c007c28:	15bd0a8b 	lu12i.w	$r11,-137132(0xde854)
1c007c2c:	02b0816b 	addi.w	$r11,$r11,-992(0xc20)
1c007c30:	0010358a 	add.w	$r10,$r12,$r13
1c007c34:	5c074d4b 	bne	$r10,$r11,1868(0x74c) # 1c008380 <inst_error>
1c007c38:	148c286c 	lu12i.w	$r12,287043(0x46143)
1c007c3c:	0284d18c 	addi.w	$r12,$r12,308(0x134)
1c007c40:	159d84cd 	lu12i.w	$r13,-201690(0xcec26)
1c007c44:	028e79ad 	addi.w	$r13,$r13,926(0x39e)
1c007c48:	1429ad2b 	lu12i.w	$r11,85353(0x14d69)
1c007c4c:	0293496b 	addi.w	$r11,$r11,1234(0x4d2)
1c007c50:	0010358a 	add.w	$r10,$r12,$r13
1c007c54:	5c072d4b 	bne	$r10,$r11,1836(0x72c) # 1c008380 <inst_error>
1c007c58:	1588cdac 	lu12i.w	$r12,-244115(0xc466d)
1c007c5c:	02a3518c 	addi.w	$r12,$r12,-1836(0x8d4)
1c007c60:	15f409ad 	lu12i.w	$r13,-24499(0xfa04d)
1c007c64:	02b299ad 	addi.w	$r13,$r13,-858(0xca6)
1c007c68:	157cd72b 	lu12i.w	$r11,-268615(0xbe6b9)
1c007c6c:	0295e96b 	addi.w	$r11,$r11,1402(0x57a)
1c007c70:	0010358a 	add.w	$r10,$r12,$r13
1c007c74:	5c070d4b 	bne	$r10,$r11,1804(0x70c) # 1c008380 <inst_error>
1c007c78:	14f1d0ac 	lu12i.w	$r12,495237(0x78e85)
1c007c7c:	0293818c 	addi.w	$r12,$r12,1248(0x4e0)
1c007c80:	15642acd 	lu12i.w	$r13,-319146(0xb2156)
1c007c84:	0299c1ad 	addi.w	$r13,$r13,1648(0x670)
1c007c88:	1455fb8b 	lu12i.w	$r11,176092(0x2afdc)
1c007c8c:	02ad416b 	addi.w	$r11,$r11,-1200(0xb50)
1c007c90:	0010358a 	add.w	$r10,$r12,$r13
1c007c94:	5c06ed4b 	bne	$r10,$r11,1772(0x6ec) # 1c008380 <inst_error>
1c007c98:	1590de4c 	lu12i.w	$r12,-227598(0xc86f2)
1c007c9c:	0287818c 	addi.w	$r12,$r12,480(0x1e0)
1c007ca0:	1552750d 	lu12i.w	$r13,-355416(0xa93a8)
1c007ca4:	02b1e1ad 	addi.w	$r13,$r13,-904(0xc78)
1c007ca8:	14e3534b 	lu12i.w	$r11,465562(0x71a9a)
1c007cac:	02b9616b 	addi.w	$r11,$r11,-424(0xe58)
1c007cb0:	0010358a 	add.w	$r10,$r12,$r13
1c007cb4:	5c06cd4b 	bne	$r10,$r11,1740(0x6cc) # 1c008380 <inst_error>
1c007cb8:	15290bac 	lu12i.w	$r12,-440227(0x9485d)
1c007cbc:	02a7c18c 	addi.w	$r12,$r12,-1552(0x9f0)
1c007cc0:	14a7766d 	lu12i.w	$r13,342963(0x53bb3)
1c007cc4:	02af21ad 	addi.w	$r13,$r13,-1080(0xbc8)
1c007cc8:	15d081eb 	lu12i.w	$r11,-97265(0xe840f)
1c007ccc:	0296e16b 	addi.w	$r11,$r11,1464(0x5b8)
1c007cd0:	0010358a 	add.w	$r10,$r12,$r13
1c007cd4:	5c06ad4b 	bne	$r10,$r11,1708(0x6ac) # 1c008380 <inst_error>
1c007cd8:	141f9dcc 	lu12i.w	$r12,64750(0xfcee)
1c007cdc:	0284d18c 	addi.w	$r12,$r12,308(0x134)
1c007ce0:	1455478d 	lu12i.w	$r13,174652(0x2aa3c)
1c007ce4:	029a11ad 	addi.w	$r13,$r13,1668(0x684)
1c007ce8:	1474e54b 	lu12i.w	$r11,239402(0x3a72a)
1c007cec:	029ee16b 	addi.w	$r11,$r11,1976(0x7b8)
1c007cf0:	0010358a 	add.w	$r10,$r12,$r13
1c007cf4:	5c068d4b 	bne	$r10,$r11,1676(0x68c) # 1c008380 <inst_error>
1c007cf8:	156c20cc 	lu12i.w	$r12,-302842(0xb6106)
1c007cfc:	02b00d8c 	addi.w	$r12,$r12,-1021(0xc03)
1c007d00:	15f879cd 	lu12i.w	$r13,-15410(0xfc3ce)
1c007d04:	02a169ad 	addi.w	$r13,$r13,-1958(0x85a)
1c007d08:	15649a6b 	lu12i.w	$r11,-318253(0xb24d3)
1c007d0c:	0291756b 	addi.w	$r11,$r11,1117(0x45d)
1c007d10:	0010358a 	add.w	$r10,$r12,$r13
1c007d14:	5c066d4b 	bne	$r10,$r11,1644(0x66c) # 1c008380 <inst_error>
1c007d18:	14efe4cc 	lu12i.w	$r12,491302(0x77f26)
1c007d1c:	02a4618c 	addi.w	$r12,$r12,-1768(0x918)
1c007d20:	149d21cd 	lu12i.w	$r13,321806(0x4e90e)
1c007d24:	02af81ad 	addi.w	$r13,$r13,-1056(0xbe0)
1c007d28:	158d066b 	lu12i.w	$r11,-235469(0xc6833)
1c007d2c:	0293e16b 	addi.w	$r11,$r11,1272(0x4f8)
1c007d30:	0010358a 	add.w	$r10,$r12,$r13
1c007d34:	5c064d4b 	bne	$r10,$r11,1612(0x64c) # 1c008380 <inst_error>
1c007d38:	15d14a8c 	lu12i.w	$r12,-95660(0xe8a54)
1c007d3c:	028c018c 	addi.w	$r12,$r12,768(0x300)
1c007d40:	143dfe8d 	lu12i.w	$r13,126964(0x1eff4)
1c007d44:	02a371ad 	addi.w	$r13,$r13,-1828(0x8dc)
1c007d48:	140f490b 	lu12i.w	$r11,31304(0x7a48)
1c007d4c:	02af716b 	addi.w	$r11,$r11,-1060(0xbdc)
1c007d50:	0010358a 	add.w	$r10,$r12,$r13
1c007d54:	5c062d4b 	bne	$r10,$r11,1580(0x62c) # 1c008380 <inst_error>
1c007d58:	14f1e8ac 	lu12i.w	$r12,495429(0x78f45)
1c007d5c:	028a758c 	addi.w	$r12,$r12,669(0x29d)
1c007d60:	14321a0d 	lu12i.w	$r13,102608(0x190d0)
1c007d64:	02b011ad 	addi.w	$r13,$r13,-1020(0xc04)
1c007d68:	152402ab 	lu12i.w	$r11,-450539(0x92015)
1c007d6c:	02ba856b 	addi.w	$r11,$r11,-351(0xea1)
1c007d70:	0010358a 	add.w	$r10,$r12,$r13
1c007d74:	5c060d4b 	bne	$r10,$r11,1548(0x60c) # 1c008380 <inst_error>
1c007d78:	156ee36c 	lu12i.w	$r12,-297189(0xb771b)
1c007d7c:	02bf818c 	addi.w	$r12,$r12,-32(0xfe0)
1c007d80:	152e5fad 	lu12i.w	$r13,-429315(0x972fd)
1c007d84:	02af11ad 	addi.w	$r13,$r13,-1084(0xbc4)
1c007d88:	149d430b 	lu12i.w	$r11,322072(0x4ea18)
1c007d8c:	02ae916b 	addi.w	$r11,$r11,-1116(0xba4)
1c007d90:	0010358a 	add.w	$r10,$r12,$r13
1c007d94:	5c05ed4b 	bne	$r10,$r11,1516(0x5ec) # 1c008380 <inst_error>
1c007d98:	1532e8ac 	lu12i.w	$r12,-420027(0x99745)
1c007d9c:	0288018c 	addi.w	$r12,$r12,512(0x200)
1c007da0:	155bd1cd 	lu12i.w	$r13,-336242(0xade8e)
1c007da4:	0280a5ad 	addi.w	$r13,$r13,41(0x29)
1c007da8:	148eba6b 	lu12i.w	$r11,292307(0x475d3)
1c007dac:	0288a56b 	addi.w	$r11,$r11,553(0x229)
1c007db0:	0010358a 	add.w	$r10,$r12,$r13
1c007db4:	5c05cd4b 	bne	$r10,$r11,1484(0x5cc) # 1c008380 <inst_error>
1c007db8:	1484df0c 	lu12i.w	$r12,272120(0x426f8)
1c007dbc:	02b1c18c 	addi.w	$r12,$r12,-912(0xc70)
1c007dc0:	1566a0ad 	lu12i.w	$r13,-314107(0xb3505)
1c007dc4:	028f59ad 	addi.w	$r13,$r13,982(0x3d6)
1c007dc8:	15eb7fab 	lu12i.w	$r11,-41987(0xf5bfd)
1c007dcc:	0281196b 	addi.w	$r11,$r11,70(0x46)
1c007dd0:	0010358a 	add.w	$r10,$r12,$r13
1c007dd4:	5c05ad4b 	bne	$r10,$r11,1452(0x5ac) # 1c008380 <inst_error>
1c007dd8:	152ef98c 	lu12i.w	$r12,-428084(0x977cc)
1c007ddc:	02bcf98c 	addi.w	$r12,$r12,-194(0xf3e)
1c007de0:	154e7a6d 	lu12i.w	$r13,-363565(0xa73d3)
1c007de4:	02bdddad 	addi.w	$r13,$r13,-137(0xf77)
1c007de8:	147d73eb 	lu12i.w	$r11,256927(0x3eb9f)
1c007dec:	02bad56b 	addi.w	$r11,$r11,-331(0xeb5)
1c007df0:	0010358a 	add.w	$r10,$r12,$r13
1c007df4:	5c058d4b 	bne	$r10,$r11,1420(0x58c) # 1c008380 <inst_error>
1c007df8:	14ab048c 	lu12i.w	$r12,350244(0x55824)
1c007dfc:	02a2718c 	addi.w	$r12,$r12,-1892(0x89c)
1c007e00:	15823a6d 	lu12i.w	$r13,-257581(0xc11d3)
1c007e04:	02bc41ad 	addi.w	$r13,$r13,-240(0xf10)
1c007e08:	142d3ecb 	lu12i.w	$r11,92662(0x169f6)
1c007e0c:	029eb16b 	addi.w	$r11,$r11,1964(0x7ac)
1c007e10:	0010358a 	add.w	$r10,$r12,$r13
1c007e14:	5c056d4b 	bne	$r10,$r11,1388(0x56c) # 1c008380 <inst_error>
1c007e18:	15d4b28c 	lu12i.w	$r12,-88684(0xea594)
1c007e1c:	02b2718c 	addi.w	$r12,$r12,-868(0xc9c)
1c007e20:	14d7856d 	lu12i.w	$r13,441387(0x6bc2b)
1c007e24:	02a6adad 	addi.w	$r13,$r13,-1621(0x9ab)
1c007e28:	14ac37cb 	lu12i.w	$r11,352702(0x561be)
1c007e2c:	02991d6b 	addi.w	$r11,$r11,1607(0x647)
1c007e30:	0010358a 	add.w	$r10,$r12,$r13
1c007e34:	5c054d4b 	bne	$r10,$r11,1356(0x54c) # 1c008380 <inst_error>
1c007e38:	14a2b2cc 	lu12i.w	$r12,333206(0x51596)
1c007e3c:	02be018c 	addi.w	$r12,$r12,-128(0xf80)
1c007e40:	15fab54d 	lu12i.w	$r13,-10838(0xfd5aa)
1c007e44:	0291b5ad 	addi.w	$r13,$r13,1133(0x46d)
1c007e48:	149d680b 	lu12i.w	$r11,322368(0x4eb40)
1c007e4c:	028fb56b 	addi.w	$r11,$r11,1005(0x3ed)
1c007e50:	0010358a 	add.w	$r10,$r12,$r13
1c007e54:	5c052d4b 	bne	$r10,$r11,1324(0x52c) # 1c008380 <inst_error>
1c007e58:	141f698c 	lu12i.w	$r12,64332(0xfb4c)
1c007e5c:	028b698c 	addi.w	$r12,$r12,730(0x2da)
1c007e60:	1506284d 	lu12i.w	$r13,-511678(0x83142)
1c007e64:	02a969ad 	addi.w	$r13,$r13,-1446(0xa5a)
1c007e68:	152591cb 	lu12i.w	$r11,-447346(0x92c8e)
1c007e6c:	02b4d16b 	addi.w	$r11,$r11,-716(0xd34)
1c007e70:	0010358a 	add.w	$r10,$r12,$r13
1c007e74:	5c050d4b 	bne	$r10,$r11,1292(0x50c) # 1c008380 <inst_error>
1c007e78:	15e07c6c 	lu12i.w	$r12,-64541(0xf03e3)
1c007e7c:	0280d18c 	addi.w	$r12,$r12,52(0x34)
1c007e80:	1417152d 	lu12i.w	$r13,47273(0xb8a9)
1c007e84:	029c01ad 	addi.w	$r13,$r13,1792(0x700)
1c007e88:	15f7918b 	lu12i.w	$r11,-17268(0xfbc8c)
1c007e8c:	029cd16b 	addi.w	$r11,$r11,1844(0x734)
1c007e90:	0010358a 	add.w	$r10,$r12,$r13
1c007e94:	5c04ed4b 	bne	$r10,$r11,1260(0x4ec) # 1c008380 <inst_error>
1c007e98:	155aa80c 	lu12i.w	$r12,-338624(0xad540)
1c007e9c:	02b1398c 	addi.w	$r12,$r12,-946(0xc4e)
1c007ea0:	152d986d 	lu12i.w	$r13,-430909(0x96cc3)
1c007ea4:	028da1ad 	addi.w	$r13,$r13,872(0x368)
1c007ea8:	1488406b 	lu12i.w	$r11,279043(0x44203)
1c007eac:	02bed96b 	addi.w	$r11,$r11,-74(0xfb6)
1c007eb0:	0010358a 	add.w	$r10,$r12,$r13
1c007eb4:	5c04cd4b 	bne	$r10,$r11,1228(0x4cc) # 1c008380 <inst_error>
1c007eb8:	14f31f0c 	lu12i.w	$r12,497912(0x798f8)
1c007ebc:	02b8ed8c 	addi.w	$r12,$r12,-453(0xe3b)
1c007ec0:	14d6760d 	lu12i.w	$r13,439216(0x6b3b0)
1c007ec4:	028601ad 	addi.w	$r13,$r13,384(0x180)
1c007ec8:	15c9950b 	lu12i.w	$r11,-111448(0xe4ca8)
1c007ecc:	02beed6b 	addi.w	$r11,$r11,-69(0xfbb)
1c007ed0:	0010358a 	add.w	$r10,$r12,$r13
1c007ed4:	5c04ad4b 	bne	$r10,$r11,1196(0x4ac) # 1c008380 <inst_error>
1c007ed8:	14d366ac 	lu12i.w	$r12,432949(0x69b35)
1c007edc:	02a7e18c 	addi.w	$r12,$r12,-1544(0x9f8)
1c007ee0:	1579ef4d 	lu12i.w	$r13,-274566(0xbcf7a)
1c007ee4:	02b661ad 	addi.w	$r13,$r13,-616(0xd98)
1c007ee8:	144d55cb 	lu12i.w	$r11,158382(0x26aae)
1c007eec:	029e416b 	addi.w	$r11,$r11,1936(0x790)
1c007ef0:	0010358a 	add.w	$r10,$r12,$r13
1c007ef4:	5c048d4b 	bne	$r10,$r11,1164(0x48c) # 1c008380 <inst_error>
1c007ef8:	1583ec6c 	lu12i.w	$r12,-254109(0xc1f63)
1c007efc:	029cc18c 	addi.w	$r12,$r12,1840(0x730)
1c007f00:	145ac86d 	lu12i.w	$r13,185923(0x2d643)
1c007f04:	028e41ad 	addi.w	$r13,$r13,912(0x390)
1c007f08:	15deb4eb 	lu12i.w	$r11,-68185(0xef5a7)
1c007f0c:	02ab016b 	addi.w	$r11,$r11,-1344(0xac0)
1c007f10:	0010358a 	add.w	$r10,$r12,$r13
1c007f14:	5c046d4b 	bne	$r10,$r11,1132(0x46c) # 1c008380 <inst_error>
1c007f18:	15f4ce6c 	lu12i.w	$r12,-22925(0xfa673)
1c007f1c:	02a0c18c 	addi.w	$r12,$r12,-2000(0x830)
1c007f20:	1535f3cd 	lu12i.w	$r13,-413794(0x9af9e)
1c007f24:	02a681ad 	addi.w	$r13,$r13,-1632(0x9a0)
1c007f28:	152ac20b 	lu12i.w	$r11,-436720(0x95610)
1c007f2c:	0287416b 	addi.w	$r11,$r11,464(0x1d0)
1c007f30:	0010358a 	add.w	$r10,$r12,$r13
1c007f34:	5c044d4b 	bne	$r10,$r11,1100(0x44c) # 1c008380 <inst_error>
1c007f38:	1525ffec 	lu12i.w	$r12,-446465(0x92fff)
1c007f3c:	02ac218c 	addi.w	$r12,$r12,-1272(0xb08)
1c007f40:	14bc2b8d 	lu12i.w	$r13,385372(0x5e15c)
1c007f44:	029431ad 	addi.w	$r13,$r13,1292(0x50c)
1c007f48:	15e22b6b 	lu12i.w	$r11,-61093(0xf115b)
1c007f4c:	0280516b 	addi.w	$r11,$r11,20(0x14)
1c007f50:	0010358a 	add.w	$r10,$r12,$r13
1c007f54:	5c042d4b 	bne	$r10,$r11,1068(0x42c) # 1c008380 <inst_error>
1c007f58:	1449966c 	lu12i.w	$r12,150707(0x24cb3)
1c007f5c:	0288b18c 	addi.w	$r12,$r12,556(0x22c)
1c007f60:	1534e66d 	lu12i.w	$r13,-415949(0x9a733)
1c007f64:	02a559ad 	addi.w	$r13,$r13,-1706(0x956)
1c007f68:	157e7ccb 	lu12i.w	$r11,-265242(0xbf3e6)
1c007f6c:	02ae096b 	addi.w	$r11,$r11,-1150(0xb82)
1c007f70:	0010358a 	add.w	$r10,$r12,$r13
1c007f74:	5c040d4b 	bne	$r10,$r11,1036(0x40c) # 1c008380 <inst_error>
1c007f78:	1516ffac 	lu12i.w	$r12,-477187(0x8b7fd)
1c007f7c:	02b2818c 	addi.w	$r12,$r12,-864(0xca0)
1c007f80:	15bcfa6d 	lu12i.w	$r13,-137261(0xde7d3)
1c007f84:	02b4c1ad 	addi.w	$r13,$r13,-720(0xd30)
1c007f88:	14d3fa0b 	lu12i.w	$r11,434128(0x69fd0)
1c007f8c:	02a7416b 	addi.w	$r11,$r11,-1584(0x9d0)
1c007f90:	0010358a 	add.w	$r10,$r12,$r13
1c007f94:	5c03ed4b 	bne	$r10,$r11,1004(0x3ec) # 1c008380 <inst_error>
1c007f98:	1435066c 	lu12i.w	$r12,108595(0x1a833)
1c007f9c:	02bdc18c 	addi.w	$r12,$r12,-144(0xf70)
1c007fa0:	150a00cd 	lu12i.w	$r13,-503802(0x85006)
1c007fa4:	02b291ad 	addi.w	$r13,$r13,-860(0xca4)
1c007fa8:	153f072b 	lu12i.w	$r11,-395207(0x9f839)
1c007fac:	02b0516b 	addi.w	$r11,$r11,-1004(0xc14)
1c007fb0:	0010358a 	add.w	$r10,$r12,$r13
1c007fb4:	5c03cd4b 	bne	$r10,$r11,972(0x3cc) # 1c008380 <inst_error>
1c007fb8:	14c4e52c 	lu12i.w	$r12,403241(0x62729)
1c007fbc:	029c018c 	addi.w	$r12,$r12,1792(0x700)
1c007fc0:	1471748d 	lu12i.w	$r13,232356(0x38ba4)
1c007fc4:	0283d1ad 	addi.w	$r13,$r13,244(0xf4)
1c007fc8:	153659ab 	lu12i.w	$r11,-412979(0x9b2cd)
1c007fcc:	029fd16b 	addi.w	$r11,$r11,2036(0x7f4)
1c007fd0:	0010358a 	add.w	$r10,$r12,$r13
1c007fd4:	5c03ad4b 	bne	$r10,$r11,940(0x3ac) # 1c008380 <inst_error>
1c007fd8:	152a53ac 	lu12i.w	$r12,-437603(0x9529d)
1c007fdc:	0290118c 	addi.w	$r12,$r12,1028(0x404)
1c007fe0:	158a758d 	lu12i.w	$r13,-240724(0xc53ac)
1c007fe4:	02ac81ad 	addi.w	$r13,$r13,-1248(0xb20)
1c007fe8:	14b4c92b 	lu12i.w	$r11,370249(0x5a649)
1c007fec:	02bc916b 	addi.w	$r11,$r11,-220(0xf24)
1c007ff0:	0010358a 	add.w	$r10,$r12,$r13
1c007ff4:	5c038d4b 	bne	$r10,$r11,908(0x38c) # 1c008380 <inst_error>
1c007ff8:	158644ac 	lu12i.w	$r12,-249307(0xc3225)
1c007ffc:	02b9cd8c 	addi.w	$r12,$r12,-397(0xe73)
1c008000:	145563cd 	lu12i.w	$r13,174878(0x2ab1e)
1c008004:	029f41ad 	addi.w	$r13,$r13,2000(0x7d0)
1c008008:	15dba86b 	lu12i.w	$r11,-74429(0xedd43)
1c00800c:	02990d6b 	addi.w	$r11,$r11,1603(0x643)
1c008010:	0010358a 	add.w	$r10,$r12,$r13
1c008014:	5c036d4b 	bne	$r10,$r11,876(0x36c) # 1c008380 <inst_error>
1c008018:	144b8a6c 	lu12i.w	$r12,154707(0x25c53)
1c00801c:	0292c18c 	addi.w	$r12,$r12,1200(0x4b0)
1c008020:	14e149ad 	lu12i.w	$r13,461389(0x70a4d)
1c008024:	029a01ad 	addi.w	$r13,$r13,1664(0x680)
1c008028:	152cd42b 	lu12i.w	$r11,-432479(0x966a1)
1c00802c:	02acc16b 	addi.w	$r11,$r11,-1232(0xb30)
1c008030:	0010358a 	add.w	$r10,$r12,$r13
1c008034:	5c034d4b 	bne	$r10,$r11,844(0x34c) # 1c008380 <inst_error>
1c008038:	150b82cc 	lu12i.w	$r12,-500714(0x85c16)
1c00803c:	02a9018c 	addi.w	$r12,$r12,-1472(0xa40)
1c008040:	14e6c3ed 	lu12i.w	$r13,472607(0x7361f)
1c008044:	02888dad 	addi.w	$r13,$r13,547(0x223)
1c008048:	15f246ab 	lu12i.w	$r11,-28107(0xf9235)
1c00804c:	02b18d6b 	addi.w	$r11,$r11,-925(0xc63)
1c008050:	0010358a 	add.w	$r10,$r12,$r13
1c008054:	5c032d4b 	bne	$r10,$r11,812(0x32c) # 1c008380 <inst_error>
1c008058:	141cadec 	lu12i.w	$r12,58735(0xe56f)
1c00805c:	029d818c 	addi.w	$r12,$r12,1888(0x760)
1c008060:	147cb3cd 	lu12i.w	$r13,255390(0x3e59e)
1c008064:	02a101ad 	addi.w	$r13,$r13,-1984(0x840)
1c008068:	149961ab 	lu12i.w	$r11,314125(0x4cb0d)
1c00806c:	02be816b 	addi.w	$r11,$r11,-96(0xfa0)
1c008070:	0010358a 	add.w	$r10,$r12,$r13
1c008074:	5c030d4b 	bne	$r10,$r11,780(0x30c) # 1c008380 <inst_error>
1c008078:	147043ac 	lu12i.w	$r12,229917(0x3821d)
1c00807c:	02a7118c 	addi.w	$r12,$r12,-1596(0x9c4)
1c008080:	1562feed 	lu12i.w	$r13,-321545(0xb17f7)
1c008084:	028001ad 	addi.w	$r13,$r13,0
1c008088:	15d3428b 	lu12i.w	$r11,-91628(0xe9a14)
1c00808c:	02a7116b 	addi.w	$r11,$r11,-1596(0x9c4)
1c008090:	0010358a 	add.w	$r10,$r12,$r13
1c008094:	5c02ed4b 	bne	$r10,$r11,748(0x2ec) # 1c008380 <inst_error>
1c008098:	15a9062c 	lu12i.w	$r12,-178127(0xd4831)
1c00809c:	0287c18c 	addi.w	$r12,$r12,496(0x1f0)
1c0080a0:	154c18ad 	lu12i.w	$r13,-368443(0xa60c5)
1c0080a4:	0283e1ad 	addi.w	$r13,$r13,248(0xf8)
1c0080a8:	14f51ecb 	lu12i.w	$r11,502006(0x7a8f6)
1c0080ac:	028ba16b 	addi.w	$r11,$r11,744(0x2e8)
1c0080b0:	0010358a 	add.w	$r10,$r12,$r13
1c0080b4:	5c02cd4b 	bne	$r10,$r11,716(0x2cc) # 1c008380 <inst_error>
1c0080b8:	150f0eec 	lu12i.w	$r12,-493449(0x87877)
1c0080bc:	0296318c 	addi.w	$r12,$r12,1420(0x58c)
1c0080c0:	14ecb34d 	lu12i.w	$r13,484762(0x7659a)
1c0080c4:	02a331ad 	addi.w	$r13,$r13,-1844(0x8cc)
1c0080c8:	15fbc22b 	lu12i.w	$r11,-8687(0xfde11)
1c0080cc:	02b9616b 	addi.w	$r11,$r11,-424(0xe58)
1c0080d0:	0010358a 	add.w	$r10,$r12,$r13
1c0080d4:	5c02ad4b 	bne	$r10,$r11,684(0x2ac) # 1c008380 <inst_error>
1c0080d8:	15efb98c 	lu12i.w	$r12,-33332(0xf7dcc)
1c0080dc:	0286218c 	addi.w	$r12,$r12,392(0x188)
1c0080e0:	1550020d 	lu12i.w	$r13,-360432(0xa8010)
1c0080e4:	02a3a9ad 	addi.w	$r13,$r13,-1814(0x8ea)
1c0080e8:	153fbb8b 	lu12i.w	$r11,-393764(0x9fddc)
1c0080ec:	02a9c96b 	addi.w	$r11,$r11,-1422(0xa72)
1c0080f0:	0010358a 	add.w	$r10,$r12,$r13
1c0080f4:	5c028d4b 	bne	$r10,$r11,652(0x28c) # 1c008380 <inst_error>
1c0080f8:	15ea532c 	lu12i.w	$r12,-44391(0xf5299)
1c0080fc:	02a0718c 	addi.w	$r12,$r12,-2020(0x81c)
1c008100:	15e247ad 	lu12i.w	$r13,-60867(0xf123d)
1c008104:	029135ad 	addi.w	$r13,$r13,1101(0x44d)
1c008108:	15cc9acb 	lu12i.w	$r11,-105258(0xe64d6)
1c00810c:	02b1a56b 	addi.w	$r11,$r11,-919(0xc69)
1c008110:	0010358a 	add.w	$r10,$r12,$r13
1c008114:	5c026d4b 	bne	$r10,$r11,620(0x26c) # 1c008380 <inst_error>
1c008118:	15f104cc 	lu12i.w	$r12,-30682(0xf8826)
1c00811c:	028a558c 	addi.w	$r12,$r12,661(0x295)
1c008120:	154960cd 	lu12i.w	$r13,-374010(0xa4b06)
1c008124:	02b145ad 	addi.w	$r13,$r13,-943(0xc51)
1c008128:	153a658b 	lu12i.w	$r11,-404692(0x9d32c)
1c00812c:	02bb996b 	addi.w	$r11,$r11,-282(0xee6)
1c008130:	0010358a 	add.w	$r10,$r12,$r13
1c008134:	5c024d4b 	bne	$r10,$r11,588(0x24c) # 1c008380 <inst_error>
1c008138:	15d4d14c 	lu12i.w	$r12,-88438(0xea68a)
1c00813c:	02b2a98c 	addi.w	$r12,$r12,-854(0xcaa)
1c008140:	1534158d 	lu12i.w	$r13,-417620(0x9a0ac)
1c008144:	029549ad 	addi.w	$r13,$r13,1362(0x552)
1c008148:	1508e6cb 	lu12i.w	$r11,-506058(0x84736)
1c00814c:	0287f16b 	addi.w	$r11,$r11,508(0x1fc)
1c008150:	0010358a 	add.w	$r10,$r12,$r13
1c008154:	5c022d4b 	bne	$r10,$r11,556(0x22c) # 1c008380 <inst_error>
1c008158:	141204ac 	lu12i.w	$r12,36901(0x9025)
1c00815c:	0282018c 	addi.w	$r12,$r12,128(0x80)
1c008160:	14bef2cd 	lu12i.w	$r13,391062(0x5f796)
1c008164:	02a715ad 	addi.w	$r13,$r13,-1595(0x9c5)
1c008168:	14d0f76b 	lu12i.w	$r11,427963(0x687bb)
1c00816c:	02a9156b 	addi.w	$r11,$r11,-1467(0xa45)
1c008170:	0010358a 	add.w	$r10,$r12,$r13
1c008174:	5c020d4b 	bne	$r10,$r11,524(0x20c) # 1c008380 <inst_error>
1c008178:	15b1850c 	lu12i.w	$r12,-160728(0xd8c28)
1c00817c:	0295558c 	addi.w	$r12,$r12,1365(0x555)
1c008180:	150ec3ad 	lu12i.w	$r13,-494051(0x8761d)
1c008184:	02bb81ad 	addi.w	$r13,$r13,-288(0xee0)
1c008188:	14c048ab 	lu12i.w	$r11,393797(0x60245)
1c00818c:	0290d56b 	addi.w	$r11,$r11,1077(0x435)
1c008190:	0010358a 	add.w	$r10,$r12,$r13
1c008194:	5c01ed4b 	bne	$r10,$r11,492(0x1ec) # 1c008380 <inst_error>
1c008198:	14fa390c 	lu12i.w	$r12,512456(0x7d1c8)
1c00819c:	0292c58c 	addi.w	$r12,$r12,1201(0x4b1)
1c0081a0:	15d68e0d 	lu12i.w	$r13,-84880(0xeb470)
1c0081a4:	02be71ad 	addi.w	$r13,$r13,-100(0xf9c)
1c0081a8:	14d0c70b 	lu12i.w	$r11,427576(0x68638)
1c0081ac:	0291356b 	addi.w	$r11,$r11,1101(0x44d)
1c0081b0:	0010358a 	add.w	$r10,$r12,$r13
1c0081b4:	5c01cd4b 	bne	$r10,$r11,460(0x1cc) # 1c008380 <inst_error>
1c0081b8:	15cf066c 	lu12i.w	$r12,-100301(0xe7833)
1c0081bc:	02ba618c 	addi.w	$r12,$r12,-360(0xe98)
1c0081c0:	158de3cd 	lu12i.w	$r13,-233698(0xc6f1e)
1c0081c4:	02aec1ad 	addi.w	$r13,$r13,-1104(0xbb0)
1c0081c8:	155cea2b 	lu12i.w	$r11,-333999(0xae751)
1c0081cc:	02a9216b 	addi.w	$r11,$r11,-1464(0xa48)
1c0081d0:	0010358a 	add.w	$r10,$r12,$r13
1c0081d4:	5c01ad4b 	bne	$r10,$r11,428(0x1ac) # 1c008380 <inst_error>
1c0081d8:	14e03fac 	lu12i.w	$r12,459261(0x701fd)
1c0081dc:	0296b98c 	addi.w	$r12,$r12,1454(0x5ae)
1c0081e0:	1415390d 	lu12i.w	$r13,43464(0xa9c8)
1c0081e4:	02a251ad 	addi.w	$r13,$r13,-1900(0x894)
1c0081e8:	14f578ab 	lu12i.w	$r11,502725(0x7abc5)
1c0081ec:	02b9096b 	addi.w	$r11,$r11,-446(0xe42)
1c0081f0:	0010358a 	add.w	$r10,$r12,$r13
1c0081f4:	5c018d4b 	bne	$r10,$r11,396(0x18c) # 1c008380 <inst_error>
1c0081f8:	15772eec 	lu12i.w	$r12,-280201(0xbb977)
1c0081fc:	02bb418c 	addi.w	$r12,$r12,-304(0xed0)
1c008200:	150d880d 	lu12i.w	$r13,-496576(0x86c40)
1c008204:	02ab89ad 	addi.w	$r13,$r13,-1310(0xae2)
1c008208:	1484b6eb 	lu12i.w	$r11,271799(0x425b7)
1c00820c:	02a6c96b 	addi.w	$r11,$r11,-1614(0x9b2)
1c008210:	0010358a 	add.w	$r10,$r12,$r13
1c008214:	5c016d4b 	bne	$r10,$r11,364(0x16c) # 1c008380 <inst_error>
1c008218:	15b6f96c 	lu12i.w	$r12,-149557(0xdb7cb)
1c00821c:	028c318c 	addi.w	$r12,$r12,780(0x30c)
1c008220:	142424cd 	lu12i.w	$r13,74022(0x12126)
1c008224:	02aaa9ad 	addi.w	$r13,$r13,-1366(0xaaa)
1c008228:	15db1e2b 	lu12i.w	$r11,-75535(0xed8f1)
1c00822c:	02b6d96b 	addi.w	$r11,$r11,-586(0xdb6)
1c008230:	0010358a 	add.w	$r10,$r12,$r13
1c008234:	5c014d4b 	bne	$r10,$r11,332(0x14c) # 1c008380 <inst_error>
1c008238:	141e1e0c 	lu12i.w	$r12,61680(0xf0f0)
1c00823c:	02a47d8c 	addi.w	$r12,$r12,-1761(0x91f)
1c008240:	15e54f0d 	lu12i.w	$r13,-54664(0xf2a78)
1c008244:	02b4edad 	addi.w	$r13,$r13,-709(0xd3b)
1c008248:	14036ceb 	lu12i.w	$r11,7015(0x1b67)
1c00824c:	0299696b 	addi.w	$r11,$r11,1626(0x65a)
1c008250:	0010358a 	add.w	$r10,$r12,$r13
1c008254:	5c012d4b 	bne	$r10,$r11,300(0x12c) # 1c008380 <inst_error>
1c008258:	1580246c 	lu12i.w	$r12,-261853(0xc0123)
1c00825c:	029c218c 	addi.w	$r12,$r12,1800(0x708)
1c008260:	154bcf4d 	lu12i.w	$r13,-369030(0xa5e7a)
1c008264:	0295e1ad 	addi.w	$r13,$r13,1400(0x578)
1c008268:	14cbf3cb 	lu12i.w	$r11,417694(0x65f9e)
1c00826c:	02b2016b 	addi.w	$r11,$r11,-896(0xc80)
1c008270:	0010358a 	add.w	$r10,$r12,$r13
1c008274:	5c010d4b 	bne	$r10,$r11,268(0x10c) # 1c008380 <inst_error>
1c008278:	143972ac 	lu12i.w	$r12,117653(0x1cb95)
1c00827c:	02ab058c 	addi.w	$r12,$r12,-1343(0xac1)
1c008280:	159f3a0d 	lu12i.w	$r13,-198192(0xcf9d0)
1c008284:	0285a1ad 	addi.w	$r13,$r13,360(0x168)
1c008288:	15d8acab 	lu12i.w	$r11,-80539(0xec565)
1c00828c:	02b0a56b 	addi.w	$r11,$r11,-983(0xc29)
1c008290:	0010358a 	add.w	$r10,$r12,$r13
1c008294:	5c00ed4b 	bne	$r10,$r11,236(0xec) # 1c008380 <inst_error>
1c008298:	14d374ec 	lu12i.w	$r12,433063(0x69ba7)
1c00829c:	02aba98c 	addi.w	$r12,$r12,-1302(0xaea)
1c0082a0:	141fad6d 	lu12i.w	$r13,64875(0xfd6b)
1c0082a4:	02a171ad 	addi.w	$r13,$r13,-1956(0x85c)
1c0082a8:	14f3222b 	lu12i.w	$r11,497937(0x79911)
1c0082ac:	028d196b 	addi.w	$r11,$r11,838(0x346)
1c0082b0:	0010358a 	add.w	$r10,$r12,$r13
1c0082b4:	5c00cd4b 	bne	$r10,$r11,204(0xcc) # 1c008380 <inst_error>
1c0082b8:	14c277ac 	lu12i.w	$r12,398269(0x613bd)
1c0082bc:	02b5718c 	addi.w	$r12,$r12,-676(0xd5c)
1c0082c0:	1489068d 	lu12i.w	$r13,280628(0x44834)
1c0082c4:	029c19ad 	addi.w	$r13,$r13,1798(0x706)
1c0082c8:	154b7e2b 	lu12i.w	$r11,-369679(0xa5bf1)
1c0082cc:	0291896b 	addi.w	$r11,$r11,1122(0x462)
1c0082d0:	0010358a 	add.w	$r10,$r12,$r13
1c0082d4:	5c00ad4b 	bne	$r10,$r11,172(0xac) # 1c008380 <inst_error>
1c0082d8:	154efb8c 	lu12i.w	$r12,-362532(0xa77dc)
1c0082dc:	028d358c 	addi.w	$r12,$r12,845(0x34d)
1c0082e0:	142c36cd 	lu12i.w	$r13,90550(0x161b6)
1c0082e4:	02b5e1ad 	addi.w	$r13,$r13,-648(0xd78)
1c0082e8:	157b324b 	lu12i.w	$r11,-271982(0xbd992)
1c0082ec:	0283156b 	addi.w	$r11,$r11,197(0xc5)
1c0082f0:	0010358a 	add.w	$r10,$r12,$r13
1c0082f4:	5c008d4b 	bne	$r10,$r11,140(0x8c) # 1c008380 <inst_error>
1c0082f8:	1599f70c 	lu12i.w	$r12,-208968(0xccfb8)
1c0082fc:	0283798c 	addi.w	$r12,$r12,222(0xde)
1c008300:	14bcca8d 	lu12i.w	$r13,386644(0x5e654)
1c008304:	02bf61ad 	addi.w	$r13,$r13,-40(0xfd8)
1c008308:	1456c18b 	lu12i.w	$r11,177676(0x2b60c)
1c00830c:	0282d96b 	addi.w	$r11,$r11,182(0xb6)
1c008310:	0010358a 	add.w	$r10,$r12,$r13
1c008314:	5c006d4b 	bne	$r10,$r11,108(0x6c) # 1c008380 <inst_error>
1c008318:	14909d8c 	lu12i.w	$r12,296172(0x484ec)
1c00831c:	0297018c 	addi.w	$r12,$r12,1472(0x5c0)
1c008320:	15706ccd 	lu12i.w	$r13,-294042(0xb8366)
1c008324:	02a835ad 	addi.w	$r13,$r13,-1523(0xa0d)
1c008328:	14010a4b 	lu12i.w	$r11,2130(0x852)
1c00832c:	02bf356b 	addi.w	$r11,$r11,-51(0xfcd)
1c008330:	0010358a 	add.w	$r10,$r12,$r13
1c008334:	5c004d4b 	bne	$r10,$r11,76(0x4c) # 1c008380 <inst_error>
1c008338:	1589b0ac 	lu12i.w	$r12,-242299(0xc4d85)
1c00833c:	028f818c 	addi.w	$r12,$r12,992(0x3e0)
1c008340:	14201a4d 	lu12i.w	$r13,65746(0x100d2)
1c008344:	02bf01ad 	addi.w	$r13,$r13,-64(0xfc0)
1c008348:	15a9caeb 	lu12i.w	$r11,-176553(0xd4e57)
1c00834c:	028e816b 	addi.w	$r11,$r11,928(0x3a0)
1c008350:	0010358a 	add.w	$r10,$r12,$r13
1c008354:	5c002d4b 	bne	$r10,$r11,44(0x2c) # 1c008380 <inst_error>
1c008358:	141d6ccc 	lu12i.w	$r12,60262(0xeb66)
1c00835c:	0287358c 	addi.w	$r12,$r12,461(0x1cd)
1c008360:	1439078d 	lu12i.w	$r13,116796(0x1c83c)
1c008364:	02a539ad 	addi.w	$r13,$r13,-1714(0x94e)
1c008368:	1456744b 	lu12i.w	$r11,177058(0x2b3a2)
1c00836c:	02ac6d6b 	addi.w	$r11,$r11,-1253(0xb1b)
1c008370:	0010358a 	add.w	$r10,$r12,$r13
1c008374:	5c000d4b 	bne	$r10,$r11,12(0xc) # 1c008380 <inst_error>
1c008378:	5c000b20 	bne	$r25,$r0,8(0x8) # 1c008380 <inst_error>
1c00837c:	0280075a 	addi.w	$r26,$r26,1(0x1)

1c008380 <inst_error>:
1c008380:	0040e2ed 	slli.w	$r13,$r23,0x18
1c008384:	001569ac 	or	$r12,$r13,$r26
1c008388:	2980030c 	st.w	$r12,$r24,0
1c00838c:	4c000020 	jirl	$r0,$r1,0

1c008390 <n5_slt_test>:
n5_slt_test():
1c008390:	028006f7 	addi.w	$r23,$r23,1(0x1)
1c008394:	14000019 	lu12i.w	$r25,0
1c008398:	14e48a6c 	lu12i.w	$r12,468051(0x72453)
1c00839c:	0285a98c 	addi.w	$r12,$r12,362(0x16a)
1c0083a0:	14f06a0d 	lu12i.w	$r13,492368(0x78350)
1c0083a4:	029bc1ad 	addi.w	$r13,$r13,1776(0x6f0)
1c0083a8:	1400000b 	lu12i.w	$r11,0
1c0083ac:	0280056b 	addi.w	$r11,$r11,1(0x1)
1c0083b0:	0012358a 	slt	$r10,$r12,$r13
1c0083b4:	5c016d4b 	bne	$r10,$r11,364(0x16c) # 1c008520 <inst_error>
1c0083b8:	15f2744c 	lu12i.w	$r12,-27742(0xf93a2)
1c0083bc:	0281f98c 	addi.w	$r12,$r12,126(0x7e)
1c0083c0:	15225dad 	lu12i.w	$r13,-453907(0x912ed)
1c0083c4:	028821ad 	addi.w	$r13,$r13,520(0x208)
1c0083c8:	1400000b 	lu12i.w	$r11,0
1c0083cc:	0280016b 	addi.w	$r11,$r11,0
1c0083d0:	0012358a 	slt	$r10,$r12,$r13
1c0083d4:	5c014d4b 	bne	$r10,$r11,332(0x14c) # 1c008520 <inst_error>
1c0083d8:	148f2e8c 	lu12i.w	$r12,293236(0x47974)
1c0083dc:	0294598c 	addi.w	$r12,$r12,1302(0x516)
1c0083e0:	1571faad 	lu12i.w	$r13,-290859(0xb8fd5)
1c0083e4:	02b471ad 	addi.w	$r13,$r13,-740(0xd1c)
1c0083e8:	1400000b 	lu12i.w	$r11,0
1c0083ec:	0280016b 	addi.w	$r11,$r11,0
1c0083f0:	0012358a 	slt	$r10,$r12,$r13
1c0083f4:	5c012d4b 	bne	$r10,$r11,300(0x12c) # 1c008520 <inst_error>
1c0083f8:	1471260c 	lu12i.w	$r12,231728(0x38930)
1c0083fc:	02b8818c 	addi.w	$r12,$r12,-480(0xe20)
1c008400:	15807a2d 	lu12i.w	$r13,-261167(0xc03d1)
1c008404:	0297c1ad 	addi.w	$r13,$r13,1520(0x5f0)
1c008408:	1400000b 	lu12i.w	$r11,0
1c00840c:	0280016b 	addi.w	$r11,$r11,0
1c008410:	0012358a 	slt	$r10,$r12,$r13
1c008414:	5c010d4b 	bne	$r10,$r11,268(0x10c) # 1c008520 <inst_error>
1c008418:	14fcab4c 	lu12i.w	$r12,517466(0x7e55a)
1c00841c:	02bac18c 	addi.w	$r12,$r12,-336(0xeb0)
1c008420:	144c520d 	lu12i.w	$r13,156304(0x26290)
1c008424:	02b001ad 	addi.w	$r13,$r13,-1024(0xc00)
1c008428:	1400000b 	lu12i.w	$r11,0
1c00842c:	0280016b 	addi.w	$r11,$r11,0
1c008430:	0012358a 	slt	$r10,$r12,$r13
1c008434:	5c00ed4b 	bne	$r10,$r11,236(0xec) # 1c008520 <inst_error>
1c008438:	15e0c66c 	lu12i.w	$r12,-63949(0xf0633)
1c00843c:	028e118c 	addi.w	$r12,$r12,900(0x384)
1c008440:	1471c9ad 	lu12i.w	$r13,233037(0x38e4d)
1c008444:	02a8c9ad 	addi.w	$r13,$r13,-1486(0xa32)
1c008448:	1400000b 	lu12i.w	$r11,0
1c00844c:	0280056b 	addi.w	$r11,$r11,1(0x1)
1c008450:	0012358a 	slt	$r10,$r12,$r13
1c008454:	5c00cd4b 	bne	$r10,$r11,204(0xcc) # 1c008520 <inst_error>
1c008458:	1454150c 	lu12i.w	$r12,172200(0x2a0a8)
1c00845c:	029f418c 	addi.w	$r12,$r12,2000(0x7d0)
1c008460:	15134d8d 	lu12i.w	$r13,-484756(0x89a6c)
1c008464:	02a901ad 	addi.w	$r13,$r13,-1472(0xa40)
1c008468:	1400000b 	lu12i.w	$r11,0
1c00846c:	0280016b 	addi.w	$r11,$r11,0
1c008470:	0012358a 	slt	$r10,$r12,$r13
1c008474:	5c00ad4b 	bne	$r10,$r11,172(0xac) # 1c008520 <inst_error>
1c008478:	144aee8c 	lu12i.w	$r12,153460(0x25774)
1c00847c:	028be18c 	addi.w	$r12,$r12,760(0x2f8)
1c008480:	1520e60d 	lu12i.w	$r13,-456912(0x90730)
1c008484:	028081ad 	addi.w	$r13,$r13,32(0x20)
1c008488:	1400000b 	lu12i.w	$r11,0
1c00848c:	0280016b 	addi.w	$r11,$r11,0
1c008490:	0012358a 	slt	$r10,$r12,$r13
1c008494:	5c008d4b 	bne	$r10,$r11,140(0x8c) # 1c008520 <inst_error>
1c008498:	14ec8f0c 	lu12i.w	$r12,484472(0x76478)
1c00849c:	02a4d18c 	addi.w	$r12,$r12,-1740(0x934)
1c0084a0:	148c9f4d 	lu12i.w	$r13,287994(0x464fa)
1c0084a4:	0285d9ad 	addi.w	$r13,$r13,374(0x176)
1c0084a8:	1400000b 	lu12i.w	$r11,0
1c0084ac:	0280016b 	addi.w	$r11,$r11,0
1c0084b0:	0012358a 	slt	$r10,$r12,$r13
1c0084b4:	5c006d4b 	bne	$r10,$r11,108(0x6c) # 1c008520 <inst_error>
1c0084b8:	140094ac 	lu12i.w	$r12,1189(0x4a5)
1c0084bc:	028ce98c 	addi.w	$r12,$r12,826(0x33a)
1c0084c0:	1553b5cd 	lu12i.w	$r13,-352850(0xa9dae)
1c0084c4:	02a981ad 	addi.w	$r13,$r13,-1440(0xa60)
1c0084c8:	1400000b 	lu12i.w	$r11,0
1c0084cc:	0280016b 	addi.w	$r11,$r11,0
1c0084d0:	0012358a 	slt	$r10,$r12,$r13
1c0084d4:	5c004d4b 	bne	$r10,$r11,76(0x4c) # 1c008520 <inst_error>
1c0084d8:	1400000c 	lu12i.w	$r12,0
1c0084dc:	0280018c 	addi.w	$r12,$r12,0
1c0084e0:	156acccd 	lu12i.w	$r13,-305562(0xb5666)
1c0084e4:	0298adad 	addi.w	$r13,$r13,1579(0x62b)
1c0084e8:	1400000b 	lu12i.w	$r11,0
1c0084ec:	0280016b 	addi.w	$r11,$r11,0
1c0084f0:	0012358a 	slt	$r10,$r12,$r13
1c0084f4:	5c002d4b 	bne	$r10,$r11,44(0x2c) # 1c008520 <inst_error>
1c0084f8:	1400000c 	lu12i.w	$r12,0
1c0084fc:	0280018c 	addi.w	$r12,$r12,0
1c008500:	1400000d 	lu12i.w	$r13,0
1c008504:	028001ad 	addi.w	$r13,$r13,0
1c008508:	1400000b 	lu12i.w	$r11,0
1c00850c:	0280016b 	addi.w	$r11,$r11,0
1c008510:	0012358a 	slt	$r10,$r12,$r13
1c008514:	5c000d4b 	bne	$r10,$r11,12(0xc) # 1c008520 <inst_error>
1c008518:	5c000b20 	bne	$r25,$r0,8(0x8) # 1c008520 <inst_error>
1c00851c:	0280075a 	addi.w	$r26,$r26,1(0x1)

1c008520 <inst_error>:
1c008520:	0040e2ed 	slli.w	$r13,$r23,0x18
1c008524:	001569ac 	or	$r12,$r13,$r26
1c008528:	2980030c 	st.w	$r12,$r24,0
1c00852c:	4c000020 	jirl	$r0,$r1,0

1c008530 <n18_bl_test>:
n18_bl_test():
1c008530:	028006f7 	addi.w	$r23,$r23,1(0x1)
1c008534:	00150019 	move	$r25,$r0
1c008538:	0010041e 	add.w	$r30,$r0,$r1
1c00853c:	15187c50 	lu12i.w	$r16,-474142(0x8c3e2)
1c008540:	02bbea10 	addi.w	$r16,$r16,-262(0xefa)
1c008544:	15d657b1 	lu12i.w	$r17,-85315(0xeb2bd)
1c008548:	0295f231 	addi.w	$r17,$r17,1404(0x57c)
1c00854c:	1400000a 	lu12i.w	$r10,0
1c008550:	1400000b 	lu12i.w	$r11,0
1c008554:	54001800 	bl	24(0x18) # 1c00856c <n18_bl_test+0x3c>
1c008558:	00100025 	add.w	$r5,$r1,$r0
1c00855c:	15187c4a 	lu12i.w	$r10,-474142(0x8c3e2)
1c008560:	02bbe94a 	addi.w	$r10,$r10,-262(0xefa)
1c008564:	54001400 	bl	20(0x14) # 1c008578 <n18_bl_test+0x48>
1c008568:	50001c00 	b	28(0x1c) # 1c008584 <n18_bl_test+0x54>
1c00856c:	00100024 	add.w	$r4,$r1,$r0
1c008570:	57ffebff 	bl	-24(0xfffffe8) # 1c008558 <n18_bl_test+0x28>
1c008574:	50001000 	b	16(0x10) # 1c008584 <n18_bl_test+0x54>
1c008578:	00100026 	add.w	$r6,$r1,$r0
1c00857c:	15d657ab 	lu12i.w	$r11,-85315(0xeb2bd)
1c008580:	0295f16b 	addi.w	$r11,$r11,1404(0x57c)
1c008584:	00107801 	add.w	$r1,$r0,$r30
1c008588:	15187c51 	lu12i.w	$r17,-474142(0x8c3e2)
1c00858c:	02bbea31 	addi.w	$r17,$r17,-262(0xefa)
1c008590:	15d657b0 	lu12i.w	$r16,-85315(0xeb2bd)
1c008594:	0295f210 	addi.w	$r16,$r16,1404(0x57c)
1c008598:	5c0b0951 	bne	$r10,$r17,2824(0xb08) # 1c0090a0 <inst_error>
1c00859c:	028030c6 	addi.w	$r6,$r6,12(0xc)
1c0085a0:	5c0b0170 	bne	$r11,$r16,2816(0xb00) # 1c0090a0 <inst_error>
1c0085a4:	5c0afcc5 	bne	$r6,$r5,2812(0xafc) # 1c0090a0 <inst_error>
1c0085a8:	0010041e 	add.w	$r30,$r0,$r1
1c0085ac:	15f783f0 	lu12i.w	$r16,-17377(0xfbc1f)
1c0085b0:	02974210 	addi.w	$r16,$r16,1488(0x5d0)
1c0085b4:	15723791 	lu12i.w	$r17,-290372(0xb91bc)
1c0085b8:	0282c231 	addi.w	$r17,$r17,176(0xb0)
1c0085bc:	1400000a 	lu12i.w	$r10,0
1c0085c0:	1400000b 	lu12i.w	$r11,0
1c0085c4:	54001800 	bl	24(0x18) # 1c0085dc <n18_bl_test+0xac>
1c0085c8:	00100025 	add.w	$r5,$r1,$r0
1c0085cc:	15f783ea 	lu12i.w	$r10,-17377(0xfbc1f)
1c0085d0:	0297414a 	addi.w	$r10,$r10,1488(0x5d0)
1c0085d4:	54001400 	bl	20(0x14) # 1c0085e8 <n18_bl_test+0xb8>
1c0085d8:	50001c00 	b	28(0x1c) # 1c0085f4 <n18_bl_test+0xc4>
1c0085dc:	00100024 	add.w	$r4,$r1,$r0
1c0085e0:	57ffebff 	bl	-24(0xfffffe8) # 1c0085c8 <n18_bl_test+0x98>
1c0085e4:	50001000 	b	16(0x10) # 1c0085f4 <n18_bl_test+0xc4>
1c0085e8:	00100026 	add.w	$r6,$r1,$r0
1c0085ec:	1572378b 	lu12i.w	$r11,-290372(0xb91bc)
1c0085f0:	0282c16b 	addi.w	$r11,$r11,176(0xb0)
1c0085f4:	00107801 	add.w	$r1,$r0,$r30
1c0085f8:	15f783f1 	lu12i.w	$r17,-17377(0xfbc1f)
1c0085fc:	02974231 	addi.w	$r17,$r17,1488(0x5d0)
1c008600:	15723790 	lu12i.w	$r16,-290372(0xb91bc)
1c008604:	0282c210 	addi.w	$r16,$r16,176(0xb0)
1c008608:	5c0a9951 	bne	$r10,$r17,2712(0xa98) # 1c0090a0 <inst_error>
1c00860c:	028030c6 	addi.w	$r6,$r6,12(0xc)
1c008610:	5c0a9170 	bne	$r11,$r16,2704(0xa90) # 1c0090a0 <inst_error>
1c008614:	5c0a8cc5 	bne	$r6,$r5,2700(0xa8c) # 1c0090a0 <inst_error>
1c008618:	0010041e 	add.w	$r30,$r0,$r1
1c00861c:	15820c50 	lu12i.w	$r16,-257950(0xc1062)
1c008620:	028d5a10 	addi.w	$r16,$r16,854(0x356)
1c008624:	15f1ac31 	lu12i.w	$r17,-29343(0xf8d61)
1c008628:	02b18231 	addi.w	$r17,$r17,-928(0xc60)
1c00862c:	1400000a 	lu12i.w	$r10,0
1c008630:	1400000b 	lu12i.w	$r11,0
1c008634:	54001800 	bl	24(0x18) # 1c00864c <n18_bl_test+0x11c>
1c008638:	00100025 	add.w	$r5,$r1,$r0
1c00863c:	15820c4a 	lu12i.w	$r10,-257950(0xc1062)
1c008640:	028d594a 	addi.w	$r10,$r10,854(0x356)
1c008644:	54001400 	bl	20(0x14) # 1c008658 <n18_bl_test+0x128>
1c008648:	50001c00 	b	28(0x1c) # 1c008664 <n18_bl_test+0x134>
1c00864c:	00100024 	add.w	$r4,$r1,$r0
1c008650:	57ffebff 	bl	-24(0xfffffe8) # 1c008638 <n18_bl_test+0x108>
1c008654:	50001000 	b	16(0x10) # 1c008664 <n18_bl_test+0x134>
1c008658:	00100026 	add.w	$r6,$r1,$r0
1c00865c:	15f1ac2b 	lu12i.w	$r11,-29343(0xf8d61)
1c008660:	02b1816b 	addi.w	$r11,$r11,-928(0xc60)
1c008664:	00107801 	add.w	$r1,$r0,$r30
1c008668:	15820c51 	lu12i.w	$r17,-257950(0xc1062)
1c00866c:	028d5a31 	addi.w	$r17,$r17,854(0x356)
1c008670:	15f1ac30 	lu12i.w	$r16,-29343(0xf8d61)
1c008674:	02b18210 	addi.w	$r16,$r16,-928(0xc60)
1c008678:	5c0a2951 	bne	$r10,$r17,2600(0xa28) # 1c0090a0 <inst_error>
1c00867c:	028030c6 	addi.w	$r6,$r6,12(0xc)
1c008680:	5c0a2170 	bne	$r11,$r16,2592(0xa20) # 1c0090a0 <inst_error>
1c008684:	5c0a1cc5 	bne	$r6,$r5,2588(0xa1c) # 1c0090a0 <inst_error>
1c008688:	0010041e 	add.w	$r30,$r0,$r1
1c00868c:	14f63470 	lu12i.w	$r16,504227(0x7b1a3)
1c008690:	02aa8610 	addi.w	$r16,$r16,-1375(0xaa1)
1c008694:	152898b1 	lu12i.w	$r17,-441147(0x944c5)
1c008698:	02a46231 	addi.w	$r17,$r17,-1768(0x918)
1c00869c:	1400000a 	lu12i.w	$r10,0
1c0086a0:	1400000b 	lu12i.w	$r11,0
1c0086a4:	54001800 	bl	24(0x18) # 1c0086bc <n18_bl_test+0x18c>
1c0086a8:	00100025 	add.w	$r5,$r1,$r0
1c0086ac:	14f6346a 	lu12i.w	$r10,504227(0x7b1a3)
1c0086b0:	02aa854a 	addi.w	$r10,$r10,-1375(0xaa1)
1c0086b4:	54001400 	bl	20(0x14) # 1c0086c8 <n18_bl_test+0x198>
1c0086b8:	50001c00 	b	28(0x1c) # 1c0086d4 <n18_bl_test+0x1a4>
1c0086bc:	00100024 	add.w	$r4,$r1,$r0
1c0086c0:	57ffebff 	bl	-24(0xfffffe8) # 1c0086a8 <n18_bl_test+0x178>
1c0086c4:	50001000 	b	16(0x10) # 1c0086d4 <n18_bl_test+0x1a4>
1c0086c8:	00100026 	add.w	$r6,$r1,$r0
1c0086cc:	152898ab 	lu12i.w	$r11,-441147(0x944c5)
1c0086d0:	02a4616b 	addi.w	$r11,$r11,-1768(0x918)
1c0086d4:	00107801 	add.w	$r1,$r0,$r30
1c0086d8:	14f63471 	lu12i.w	$r17,504227(0x7b1a3)
1c0086dc:	02aa8631 	addi.w	$r17,$r17,-1375(0xaa1)
1c0086e0:	152898b0 	lu12i.w	$r16,-441147(0x944c5)
1c0086e4:	02a46210 	addi.w	$r16,$r16,-1768(0x918)
1c0086e8:	5c09b951 	bne	$r10,$r17,2488(0x9b8) # 1c0090a0 <inst_error>
1c0086ec:	028030c6 	addi.w	$r6,$r6,12(0xc)
1c0086f0:	5c09b170 	bne	$r11,$r16,2480(0x9b0) # 1c0090a0 <inst_error>
1c0086f4:	5c09acc5 	bne	$r6,$r5,2476(0x9ac) # 1c0090a0 <inst_error>
1c0086f8:	0010041e 	add.w	$r30,$r0,$r1
1c0086fc:	14fd0df0 	lu12i.w	$r16,518255(0x7e86f)
1c008700:	02ad6610 	addi.w	$r16,$r16,-1191(0xb59)
1c008704:	156a8531 	lu12i.w	$r17,-306135(0xb5429)
1c008708:	02ad3231 	addi.w	$r17,$r17,-1204(0xb4c)
1c00870c:	1400000a 	lu12i.w	$r10,0
1c008710:	1400000b 	lu12i.w	$r11,0
1c008714:	54001800 	bl	24(0x18) # 1c00872c <n18_bl_test+0x1fc>
1c008718:	00100025 	add.w	$r5,$r1,$r0
1c00871c:	14fd0dea 	lu12i.w	$r10,518255(0x7e86f)
1c008720:	02ad654a 	addi.w	$r10,$r10,-1191(0xb59)
1c008724:	54001400 	bl	20(0x14) # 1c008738 <n18_bl_test+0x208>
1c008728:	50001c00 	b	28(0x1c) # 1c008744 <n18_bl_test+0x214>
1c00872c:	00100024 	add.w	$r4,$r1,$r0
1c008730:	57ffebff 	bl	-24(0xfffffe8) # 1c008718 <n18_bl_test+0x1e8>
1c008734:	50001000 	b	16(0x10) # 1c008744 <n18_bl_test+0x214>
1c008738:	00100026 	add.w	$r6,$r1,$r0
1c00873c:	156a852b 	lu12i.w	$r11,-306135(0xb5429)
1c008740:	02ad316b 	addi.w	$r11,$r11,-1204(0xb4c)
1c008744:	00107801 	add.w	$r1,$r0,$r30
1c008748:	14fd0df1 	lu12i.w	$r17,518255(0x7e86f)
1c00874c:	02ad6631 	addi.w	$r17,$r17,-1191(0xb59)
1c008750:	156a8530 	lu12i.w	$r16,-306135(0xb5429)
1c008754:	02ad3210 	addi.w	$r16,$r16,-1204(0xb4c)
1c008758:	5c094951 	bne	$r10,$r17,2376(0x948) # 1c0090a0 <inst_error>
1c00875c:	028030c6 	addi.w	$r6,$r6,12(0xc)
1c008760:	5c094170 	bne	$r11,$r16,2368(0x940) # 1c0090a0 <inst_error>
1c008764:	5c093cc5 	bne	$r6,$r5,2364(0x93c) # 1c0090a0 <inst_error>
1c008768:	0010041e 	add.w	$r30,$r0,$r1
1c00876c:	14f7f130 	lu12i.w	$r16,507785(0x7bf89)
1c008770:	02bac210 	addi.w	$r16,$r16,-336(0xeb0)
1c008774:	14ee6171 	lu12i.w	$r17,488203(0x7730b)
1c008778:	02880231 	addi.w	$r17,$r17,512(0x200)
1c00877c:	1400000a 	lu12i.w	$r10,0
1c008780:	1400000b 	lu12i.w	$r11,0
1c008784:	54001800 	bl	24(0x18) # 1c00879c <n18_bl_test+0x26c>
1c008788:	00100025 	add.w	$r5,$r1,$r0
1c00878c:	14f7f12a 	lu12i.w	$r10,507785(0x7bf89)
1c008790:	02bac14a 	addi.w	$r10,$r10,-336(0xeb0)
1c008794:	54001400 	bl	20(0x14) # 1c0087a8 <n18_bl_test+0x278>
1c008798:	50001c00 	b	28(0x1c) # 1c0087b4 <n18_bl_test+0x284>
1c00879c:	00100024 	add.w	$r4,$r1,$r0
1c0087a0:	57ffebff 	bl	-24(0xfffffe8) # 1c008788 <n18_bl_test+0x258>
1c0087a4:	50001000 	b	16(0x10) # 1c0087b4 <n18_bl_test+0x284>
1c0087a8:	00100026 	add.w	$r6,$r1,$r0
1c0087ac:	14ee616b 	lu12i.w	$r11,488203(0x7730b)
1c0087b0:	0288016b 	addi.w	$r11,$r11,512(0x200)
1c0087b4:	00107801 	add.w	$r1,$r0,$r30
1c0087b8:	14f7f131 	lu12i.w	$r17,507785(0x7bf89)
1c0087bc:	02bac231 	addi.w	$r17,$r17,-336(0xeb0)
1c0087c0:	14ee6170 	lu12i.w	$r16,488203(0x7730b)
1c0087c4:	02880210 	addi.w	$r16,$r16,512(0x200)
1c0087c8:	5c08d951 	bne	$r10,$r17,2264(0x8d8) # 1c0090a0 <inst_error>
1c0087cc:	028030c6 	addi.w	$r6,$r6,12(0xc)
1c0087d0:	5c08d170 	bne	$r11,$r16,2256(0x8d0) # 1c0090a0 <inst_error>
1c0087d4:	5c08ccc5 	bne	$r6,$r5,2252(0x8cc) # 1c0090a0 <inst_error>
1c0087d8:	0010041e 	add.w	$r30,$r0,$r1
1c0087dc:	14d1c250 	lu12i.w	$r16,429586(0x68e12)
1c0087e0:	02a58210 	addi.w	$r16,$r16,-1696(0x960)
1c0087e4:	15176cd1 	lu12i.w	$r17,-476314(0x8bb66)
1c0087e8:	02a40231 	addi.w	$r17,$r17,-1792(0x900)
1c0087ec:	1400000a 	lu12i.w	$r10,0
1c0087f0:	1400000b 	lu12i.w	$r11,0
1c0087f4:	54001800 	bl	24(0x18) # 1c00880c <n18_bl_test+0x2dc>
1c0087f8:	00100025 	add.w	$r5,$r1,$r0
1c0087fc:	14d1c24a 	lu12i.w	$r10,429586(0x68e12)
1c008800:	02a5814a 	addi.w	$r10,$r10,-1696(0x960)
1c008804:	54001400 	bl	20(0x14) # 1c008818 <n18_bl_test+0x2e8>
1c008808:	50001c00 	b	28(0x1c) # 1c008824 <n18_bl_test+0x2f4>
1c00880c:	00100024 	add.w	$r4,$r1,$r0
1c008810:	57ffebff 	bl	-24(0xfffffe8) # 1c0087f8 <n18_bl_test+0x2c8>
1c008814:	50001000 	b	16(0x10) # 1c008824 <n18_bl_test+0x2f4>
1c008818:	00100026 	add.w	$r6,$r1,$r0
1c00881c:	15176ccb 	lu12i.w	$r11,-476314(0x8bb66)
1c008820:	02a4016b 	addi.w	$r11,$r11,-1792(0x900)
1c008824:	00107801 	add.w	$r1,$r0,$r30
1c008828:	14d1c251 	lu12i.w	$r17,429586(0x68e12)
1c00882c:	02a58231 	addi.w	$r17,$r17,-1696(0x960)
1c008830:	15176cd0 	lu12i.w	$r16,-476314(0x8bb66)
1c008834:	02a40210 	addi.w	$r16,$r16,-1792(0x900)
1c008838:	5c086951 	bne	$r10,$r17,2152(0x868) # 1c0090a0 <inst_error>
1c00883c:	028030c6 	addi.w	$r6,$r6,12(0xc)
1c008840:	5c086170 	bne	$r11,$r16,2144(0x860) # 1c0090a0 <inst_error>
1c008844:	5c085cc5 	bne	$r6,$r5,2140(0x85c) # 1c0090a0 <inst_error>
1c008848:	0010041e 	add.w	$r30,$r0,$r1
1c00884c:	14ec3bf0 	lu12i.w	$r16,483807(0x761df)
1c008850:	02939210 	addi.w	$r16,$r16,1252(0x4e4)
1c008854:	155396b1 	lu12i.w	$r17,-353099(0xa9cb5)
1c008858:	02ae5231 	addi.w	$r17,$r17,-1132(0xb94)
1c00885c:	1400000a 	lu12i.w	$r10,0
1c008860:	1400000b 	lu12i.w	$r11,0
1c008864:	54001800 	bl	24(0x18) # 1c00887c <n18_bl_test+0x34c>
1c008868:	00100025 	add.w	$r5,$r1,$r0
1c00886c:	14ec3bea 	lu12i.w	$r10,483807(0x761df)
1c008870:	0293914a 	addi.w	$r10,$r10,1252(0x4e4)
1c008874:	54001400 	bl	20(0x14) # 1c008888 <n18_bl_test+0x358>
1c008878:	50001c00 	b	28(0x1c) # 1c008894 <n18_bl_test+0x364>
1c00887c:	00100024 	add.w	$r4,$r1,$r0
1c008880:	57ffebff 	bl	-24(0xfffffe8) # 1c008868 <n18_bl_test+0x338>
1c008884:	50001000 	b	16(0x10) # 1c008894 <n18_bl_test+0x364>
1c008888:	00100026 	add.w	$r6,$r1,$r0
1c00888c:	155396ab 	lu12i.w	$r11,-353099(0xa9cb5)
1c008890:	02ae516b 	addi.w	$r11,$r11,-1132(0xb94)
1c008894:	00107801 	add.w	$r1,$r0,$r30
1c008898:	14ec3bf1 	lu12i.w	$r17,483807(0x761df)
1c00889c:	02939231 	addi.w	$r17,$r17,1252(0x4e4)
1c0088a0:	155396b0 	lu12i.w	$r16,-353099(0xa9cb5)
1c0088a4:	02ae5210 	addi.w	$r16,$r16,-1132(0xb94)
1c0088a8:	5c07f951 	bne	$r10,$r17,2040(0x7f8) # 1c0090a0 <inst_error>
1c0088ac:	028030c6 	addi.w	$r6,$r6,12(0xc)
1c0088b0:	5c07f170 	bne	$r11,$r16,2032(0x7f0) # 1c0090a0 <inst_error>
1c0088b4:	5c07ecc5 	bne	$r6,$r5,2028(0x7ec) # 1c0090a0 <inst_error>
1c0088b8:	0010041e 	add.w	$r30,$r0,$r1
1c0088bc:	14c4d910 	lu12i.w	$r16,403144(0x626c8)
1c0088c0:	02a8ee10 	addi.w	$r16,$r16,-1477(0xa3b)
1c0088c4:	15844f51 	lu12i.w	$r17,-253318(0xc227a)
1c0088c8:	02a80231 	addi.w	$r17,$r17,-1536(0xa00)
1c0088cc:	1400000a 	lu12i.w	$r10,0
1c0088d0:	1400000b 	lu12i.w	$r11,0
1c0088d4:	54001800 	bl	24(0x18) # 1c0088ec <n18_bl_test+0x3bc>
1c0088d8:	00100025 	add.w	$r5,$r1,$r0
1c0088dc:	14c4d90a 	lu12i.w	$r10,403144(0x626c8)
1c0088e0:	02a8ed4a 	addi.w	$r10,$r10,-1477(0xa3b)
1c0088e4:	54001400 	bl	20(0x14) # 1c0088f8 <n18_bl_test+0x3c8>
1c0088e8:	50001c00 	b	28(0x1c) # 1c008904 <n18_bl_test+0x3d4>
1c0088ec:	00100024 	add.w	$r4,$r1,$r0
1c0088f0:	57ffebff 	bl	-24(0xfffffe8) # 1c0088d8 <n18_bl_test+0x3a8>
1c0088f4:	50001000 	b	16(0x10) # 1c008904 <n18_bl_test+0x3d4>
1c0088f8:	00100026 	add.w	$r6,$r1,$r0
1c0088fc:	15844f4b 	lu12i.w	$r11,-253318(0xc227a)
1c008900:	02a8016b 	addi.w	$r11,$r11,-1536(0xa00)
1c008904:	00107801 	add.w	$r1,$r0,$r30
1c008908:	14c4d911 	lu12i.w	$r17,403144(0x626c8)
1c00890c:	02a8ee31 	addi.w	$r17,$r17,-1477(0xa3b)
1c008910:	15844f50 	lu12i.w	$r16,-253318(0xc227a)
1c008914:	02a80210 	addi.w	$r16,$r16,-1536(0xa00)
1c008918:	5c078951 	bne	$r10,$r17,1928(0x788) # 1c0090a0 <inst_error>
1c00891c:	028030c6 	addi.w	$r6,$r6,12(0xc)
1c008920:	5c078170 	bne	$r11,$r16,1920(0x780) # 1c0090a0 <inst_error>
1c008924:	5c077cc5 	bne	$r6,$r5,1916(0x77c) # 1c0090a0 <inst_error>
1c008928:	0010041e 	add.w	$r30,$r0,$r1
1c00892c:	15a0b1b0 	lu12i.w	$r16,-195187(0xd058d)
1c008930:	02a97610 	addi.w	$r16,$r16,-1443(0xa5d)
1c008934:	150e0691 	lu12i.w	$r17,-495564(0x87034)
1c008938:	02b46631 	addi.w	$r17,$r17,-743(0xd19)
1c00893c:	1400000a 	lu12i.w	$r10,0
1c008940:	1400000b 	lu12i.w	$r11,0
1c008944:	54001800 	bl	24(0x18) # 1c00895c <n18_bl_test+0x42c>
1c008948:	00100025 	add.w	$r5,$r1,$r0
1c00894c:	15a0b1aa 	lu12i.w	$r10,-195187(0xd058d)
1c008950:	02a9754a 	addi.w	$r10,$r10,-1443(0xa5d)
1c008954:	54001400 	bl	20(0x14) # 1c008968 <n18_bl_test+0x438>
1c008958:	50001c00 	b	28(0x1c) # 1c008974 <n18_bl_test+0x444>
1c00895c:	00100024 	add.w	$r4,$r1,$r0
1c008960:	57ffebff 	bl	-24(0xfffffe8) # 1c008948 <n18_bl_test+0x418>
1c008964:	50001000 	b	16(0x10) # 1c008974 <n18_bl_test+0x444>
1c008968:	00100026 	add.w	$r6,$r1,$r0
1c00896c:	150e068b 	lu12i.w	$r11,-495564(0x87034)
1c008970:	02b4656b 	addi.w	$r11,$r11,-743(0xd19)
1c008974:	00107801 	add.w	$r1,$r0,$r30
1c008978:	15a0b1b1 	lu12i.w	$r17,-195187(0xd058d)
1c00897c:	02a97631 	addi.w	$r17,$r17,-1443(0xa5d)
1c008980:	150e0690 	lu12i.w	$r16,-495564(0x87034)
1c008984:	02b46610 	addi.w	$r16,$r16,-743(0xd19)
1c008988:	5c071951 	bne	$r10,$r17,1816(0x718) # 1c0090a0 <inst_error>
1c00898c:	028030c6 	addi.w	$r6,$r6,12(0xc)
1c008990:	5c071170 	bne	$r11,$r16,1808(0x710) # 1c0090a0 <inst_error>
1c008994:	5c070cc5 	bne	$r6,$r5,1804(0x70c) # 1c0090a0 <inst_error>
1c008998:	0010041e 	add.w	$r30,$r0,$r1
1c00899c:	14910650 	lu12i.w	$r16,297010(0x48832)
1c0089a0:	02956a10 	addi.w	$r16,$r16,1370(0x55a)
1c0089a4:	14a4e471 	lu12i.w	$r17,337699(0x52723)
1c0089a8:	02874231 	addi.w	$r17,$r17,464(0x1d0)
1c0089ac:	1400000a 	lu12i.w	$r10,0
1c0089b0:	1400000b 	lu12i.w	$r11,0
1c0089b4:	54001800 	bl	24(0x18) # 1c0089cc <n18_bl_test+0x49c>
1c0089b8:	00100025 	add.w	$r5,$r1,$r0
1c0089bc:	1491064a 	lu12i.w	$r10,297010(0x48832)
1c0089c0:	0295694a 	addi.w	$r10,$r10,1370(0x55a)
1c0089c4:	54001400 	bl	20(0x14) # 1c0089d8 <n18_bl_test+0x4a8>
1c0089c8:	50001c00 	b	28(0x1c) # 1c0089e4 <n18_bl_test+0x4b4>
1c0089cc:	00100024 	add.w	$r4,$r1,$r0
1c0089d0:	57ffebff 	bl	-24(0xfffffe8) # 1c0089b8 <n18_bl_test+0x488>
1c0089d4:	50001000 	b	16(0x10) # 1c0089e4 <n18_bl_test+0x4b4>
1c0089d8:	00100026 	add.w	$r6,$r1,$r0
1c0089dc:	14a4e46b 	lu12i.w	$r11,337699(0x52723)
1c0089e0:	0287416b 	addi.w	$r11,$r11,464(0x1d0)
1c0089e4:	00107801 	add.w	$r1,$r0,$r30
1c0089e8:	14910651 	lu12i.w	$r17,297010(0x48832)
1c0089ec:	02956a31 	addi.w	$r17,$r17,1370(0x55a)
1c0089f0:	14a4e470 	lu12i.w	$r16,337699(0x52723)
1c0089f4:	02874210 	addi.w	$r16,$r16,464(0x1d0)
1c0089f8:	5c06a951 	bne	$r10,$r17,1704(0x6a8) # 1c0090a0 <inst_error>
1c0089fc:	028030c6 	addi.w	$r6,$r6,12(0xc)
1c008a00:	5c06a170 	bne	$r11,$r16,1696(0x6a0) # 1c0090a0 <inst_error>
1c008a04:	5c069cc5 	bne	$r6,$r5,1692(0x69c) # 1c0090a0 <inst_error>
1c008a08:	0010041e 	add.w	$r30,$r0,$r1
1c008a0c:	14905ab0 	lu12i.w	$r16,295637(0x482d5)
1c008a10:	02ae8210 	addi.w	$r16,$r16,-1120(0xba0)
1c008a14:	142cdfd1 	lu12i.w	$r17,91902(0x166fe)
1c008a18:	028d8a31 	addi.w	$r17,$r17,866(0x362)
1c008a1c:	1400000a 	lu12i.w	$r10,0
1c008a20:	1400000b 	lu12i.w	$r11,0
1c008a24:	54001800 	bl	24(0x18) # 1c008a3c <n18_bl_test+0x50c>
1c008a28:	00100025 	add.w	$r5,$r1,$r0
1c008a2c:	14905aaa 	lu12i.w	$r10,295637(0x482d5)
1c008a30:	02ae814a 	addi.w	$r10,$r10,-1120(0xba0)
1c008a34:	54001400 	bl	20(0x14) # 1c008a48 <n18_bl_test+0x518>
1c008a38:	50001c00 	b	28(0x1c) # 1c008a54 <n18_bl_test+0x524>
1c008a3c:	00100024 	add.w	$r4,$r1,$r0
1c008a40:	57ffebff 	bl	-24(0xfffffe8) # 1c008a28 <n18_bl_test+0x4f8>
1c008a44:	50001000 	b	16(0x10) # 1c008a54 <n18_bl_test+0x524>
1c008a48:	00100026 	add.w	$r6,$r1,$r0
1c008a4c:	142cdfcb 	lu12i.w	$r11,91902(0x166fe)
1c008a50:	028d896b 	addi.w	$r11,$r11,866(0x362)
1c008a54:	00107801 	add.w	$r1,$r0,$r30
1c008a58:	14905ab1 	lu12i.w	$r17,295637(0x482d5)
1c008a5c:	02ae8231 	addi.w	$r17,$r17,-1120(0xba0)
1c008a60:	142cdfd0 	lu12i.w	$r16,91902(0x166fe)
1c008a64:	028d8a10 	addi.w	$r16,$r16,866(0x362)
1c008a68:	5c063951 	bne	$r10,$r17,1592(0x638) # 1c0090a0 <inst_error>
1c008a6c:	028030c6 	addi.w	$r6,$r6,12(0xc)
1c008a70:	5c063170 	bne	$r11,$r16,1584(0x630) # 1c0090a0 <inst_error>
1c008a74:	5c062cc5 	bne	$r6,$r5,1580(0x62c) # 1c0090a0 <inst_error>
1c008a78:	0010041e 	add.w	$r30,$r0,$r1
1c008a7c:	155515f0 	lu12i.w	$r16,-350033(0xaa8af)
1c008a80:	02973210 	addi.w	$r16,$r16,1484(0x5cc)
1c008a84:	1425fb91 	lu12i.w	$r17,77788(0x12fdc)
1c008a88:	02995231 	addi.w	$r17,$r17,1620(0x654)
1c008a8c:	1400000a 	lu12i.w	$r10,0
1c008a90:	1400000b 	lu12i.w	$r11,0
1c008a94:	54001800 	bl	24(0x18) # 1c008aac <n18_bl_test+0x57c>
1c008a98:	00100025 	add.w	$r5,$r1,$r0
1c008a9c:	155515ea 	lu12i.w	$r10,-350033(0xaa8af)
1c008aa0:	0297314a 	addi.w	$r10,$r10,1484(0x5cc)
1c008aa4:	54001400 	bl	20(0x14) # 1c008ab8 <n18_bl_test+0x588>
1c008aa8:	50001c00 	b	28(0x1c) # 1c008ac4 <n18_bl_test+0x594>
1c008aac:	00100024 	add.w	$r4,$r1,$r0
1c008ab0:	57ffebff 	bl	-24(0xfffffe8) # 1c008a98 <n18_bl_test+0x568>
1c008ab4:	50001000 	b	16(0x10) # 1c008ac4 <n18_bl_test+0x594>
1c008ab8:	00100026 	add.w	$r6,$r1,$r0
1c008abc:	1425fb8b 	lu12i.w	$r11,77788(0x12fdc)
1c008ac0:	0299516b 	addi.w	$r11,$r11,1620(0x654)
1c008ac4:	00107801 	add.w	$r1,$r0,$r30
1c008ac8:	155515f1 	lu12i.w	$r17,-350033(0xaa8af)
1c008acc:	02973231 	addi.w	$r17,$r17,1484(0x5cc)
1c008ad0:	1425fb90 	lu12i.w	$r16,77788(0x12fdc)
1c008ad4:	02995210 	addi.w	$r16,$r16,1620(0x654)
1c008ad8:	5c05c951 	bne	$r10,$r17,1480(0x5c8) # 1c0090a0 <inst_error>
1c008adc:	028030c6 	addi.w	$r6,$r6,12(0xc)
1c008ae0:	5c05c170 	bne	$r11,$r16,1472(0x5c0) # 1c0090a0 <inst_error>
1c008ae4:	5c05bcc5 	bne	$r6,$r5,1468(0x5bc) # 1c0090a0 <inst_error>
1c008ae8:	0010041e 	add.w	$r30,$r0,$r1
1c008aec:	14c18d70 	lu12i.w	$r16,396395(0x60c6b)
1c008af0:	028b1210 	addi.w	$r16,$r16,708(0x2c4)
1c008af4:	14db07f1 	lu12i.w	$r17,448575(0x6d83f)
1c008af8:	02a02a31 	addi.w	$r17,$r17,-2038(0x80a)
1c008afc:	1400000a 	lu12i.w	$r10,0
1c008b00:	1400000b 	lu12i.w	$r11,0
1c008b04:	54001800 	bl	24(0x18) # 1c008b1c <n18_bl_test+0x5ec>
1c008b08:	00100025 	add.w	$r5,$r1,$r0
1c008b0c:	14c18d6a 	lu12i.w	$r10,396395(0x60c6b)
1c008b10:	028b114a 	addi.w	$r10,$r10,708(0x2c4)
1c008b14:	54001400 	bl	20(0x14) # 1c008b28 <n18_bl_test+0x5f8>
1c008b18:	50001c00 	b	28(0x1c) # 1c008b34 <n18_bl_test+0x604>
1c008b1c:	00100024 	add.w	$r4,$r1,$r0
1c008b20:	57ffebff 	bl	-24(0xfffffe8) # 1c008b08 <n18_bl_test+0x5d8>
1c008b24:	50001000 	b	16(0x10) # 1c008b34 <n18_bl_test+0x604>
1c008b28:	00100026 	add.w	$r6,$r1,$r0
1c008b2c:	14db07eb 	lu12i.w	$r11,448575(0x6d83f)
1c008b30:	02a0296b 	addi.w	$r11,$r11,-2038(0x80a)
1c008b34:	00107801 	add.w	$r1,$r0,$r30
1c008b38:	14c18d71 	lu12i.w	$r17,396395(0x60c6b)
1c008b3c:	028b1231 	addi.w	$r17,$r17,708(0x2c4)
1c008b40:	14db07f0 	lu12i.w	$r16,448575(0x6d83f)
1c008b44:	02a02a10 	addi.w	$r16,$r16,-2038(0x80a)
1c008b48:	5c055951 	bne	$r10,$r17,1368(0x558) # 1c0090a0 <inst_error>
1c008b4c:	028030c6 	addi.w	$r6,$r6,12(0xc)
1c008b50:	5c055170 	bne	$r11,$r16,1360(0x550) # 1c0090a0 <inst_error>
1c008b54:	5c054cc5 	bne	$r6,$r5,1356(0x54c) # 1c0090a0 <inst_error>
1c008b58:	0010041e 	add.w	$r30,$r0,$r1
1c008b5c:	150c8f50 	lu12i.w	$r16,-498566(0x8647a)
1c008b60:	02b2e210 	addi.w	$r16,$r16,-840(0xcb8)
1c008b64:	156f1f71 	lu12i.w	$r17,-296709(0xb78fb)
1c008b68:	029e8a31 	addi.w	$r17,$r17,1954(0x7a2)
1c008b6c:	1400000a 	lu12i.w	$r10,0
1c008b70:	1400000b 	lu12i.w	$r11,0
1c008b74:	54001800 	bl	24(0x18) # 1c008b8c <n18_bl_test+0x65c>
1c008b78:	00100025 	add.w	$r5,$r1,$r0
1c008b7c:	150c8f4a 	lu12i.w	$r10,-498566(0x8647a)
1c008b80:	02b2e14a 	addi.w	$r10,$r10,-840(0xcb8)
1c008b84:	54001400 	bl	20(0x14) # 1c008b98 <n18_bl_test+0x668>
1c008b88:	50001c00 	b	28(0x1c) # 1c008ba4 <n18_bl_test+0x674>
1c008b8c:	00100024 	add.w	$r4,$r1,$r0
1c008b90:	57ffebff 	bl	-24(0xfffffe8) # 1c008b78 <n18_bl_test+0x648>
1c008b94:	50001000 	b	16(0x10) # 1c008ba4 <n18_bl_test+0x674>
1c008b98:	00100026 	add.w	$r6,$r1,$r0
1c008b9c:	156f1f6b 	lu12i.w	$r11,-296709(0xb78fb)
1c008ba0:	029e896b 	addi.w	$r11,$r11,1954(0x7a2)
1c008ba4:	00107801 	add.w	$r1,$r0,$r30
1c008ba8:	150c8f51 	lu12i.w	$r17,-498566(0x8647a)
1c008bac:	02b2e231 	addi.w	$r17,$r17,-840(0xcb8)
1c008bb0:	156f1f70 	lu12i.w	$r16,-296709(0xb78fb)
1c008bb4:	029e8a10 	addi.w	$r16,$r16,1954(0x7a2)
1c008bb8:	5c04e951 	bne	$r10,$r17,1256(0x4e8) # 1c0090a0 <inst_error>
1c008bbc:	028030c6 	addi.w	$r6,$r6,12(0xc)
1c008bc0:	5c04e170 	bne	$r11,$r16,1248(0x4e0) # 1c0090a0 <inst_error>
1c008bc4:	5c04dcc5 	bne	$r6,$r5,1244(0x4dc) # 1c0090a0 <inst_error>
1c008bc8:	0010041e 	add.w	$r30,$r0,$r1
1c008bcc:	1556d6f0 	lu12i.w	$r16,-346441(0xab6b7)
1c008bd0:	0299f210 	addi.w	$r16,$r16,1660(0x67c)
1c008bd4:	147bc6f1 	lu12i.w	$r17,253495(0x3de37)
1c008bd8:	0284da31 	addi.w	$r17,$r17,310(0x136)
1c008bdc:	1400000a 	lu12i.w	$r10,0
1c008be0:	1400000b 	lu12i.w	$r11,0
1c008be4:	54001800 	bl	24(0x18) # 1c008bfc <n18_bl_test+0x6cc>
1c008be8:	00100025 	add.w	$r5,$r1,$r0
1c008bec:	1556d6ea 	lu12i.w	$r10,-346441(0xab6b7)
1c008bf0:	0299f14a 	addi.w	$r10,$r10,1660(0x67c)
1c008bf4:	54001400 	bl	20(0x14) # 1c008c08 <n18_bl_test+0x6d8>
1c008bf8:	50001c00 	b	28(0x1c) # 1c008c14 <n18_bl_test+0x6e4>
1c008bfc:	00100024 	add.w	$r4,$r1,$r0
1c008c00:	57ffebff 	bl	-24(0xfffffe8) # 1c008be8 <n18_bl_test+0x6b8>
1c008c04:	50001000 	b	16(0x10) # 1c008c14 <n18_bl_test+0x6e4>
1c008c08:	00100026 	add.w	$r6,$r1,$r0
1c008c0c:	147bc6eb 	lu12i.w	$r11,253495(0x3de37)
1c008c10:	0284d96b 	addi.w	$r11,$r11,310(0x136)
1c008c14:	00107801 	add.w	$r1,$r0,$r30
1c008c18:	1556d6f1 	lu12i.w	$r17,-346441(0xab6b7)
1c008c1c:	0299f231 	addi.w	$r17,$r17,1660(0x67c)
1c008c20:	147bc6f0 	lu12i.w	$r16,253495(0x3de37)
1c008c24:	0284da10 	addi.w	$r16,$r16,310(0x136)
1c008c28:	5c047951 	bne	$r10,$r17,1144(0x478) # 1c0090a0 <inst_error>
1c008c2c:	028030c6 	addi.w	$r6,$r6,12(0xc)
1c008c30:	5c047170 	bne	$r11,$r16,1136(0x470) # 1c0090a0 <inst_error>
1c008c34:	5c046cc5 	bne	$r6,$r5,1132(0x46c) # 1c0090a0 <inst_error>
1c008c38:	0010041e 	add.w	$r30,$r0,$r1
1c008c3c:	149e58d0 	lu12i.w	$r16,324294(0x4f2c6)
1c008c40:	029c0210 	addi.w	$r16,$r16,1792(0x700)
1c008c44:	14b8dc31 	lu12i.w	$r17,378593(0x5c6e1)
1c008c48:	02982231 	addi.w	$r17,$r17,1544(0x608)
1c008c4c:	1400000a 	lu12i.w	$r10,0
1c008c50:	1400000b 	lu12i.w	$r11,0
1c008c54:	54001800 	bl	24(0x18) # 1c008c6c <n18_bl_test+0x73c>
1c008c58:	00100025 	add.w	$r5,$r1,$r0
1c008c5c:	149e58ca 	lu12i.w	$r10,324294(0x4f2c6)
1c008c60:	029c014a 	addi.w	$r10,$r10,1792(0x700)
1c008c64:	54001400 	bl	20(0x14) # 1c008c78 <n18_bl_test+0x748>
1c008c68:	50001c00 	b	28(0x1c) # 1c008c84 <n18_bl_test+0x754>
1c008c6c:	00100024 	add.w	$r4,$r1,$r0
1c008c70:	57ffebff 	bl	-24(0xfffffe8) # 1c008c58 <n18_bl_test+0x728>
1c008c74:	50001000 	b	16(0x10) # 1c008c84 <n18_bl_test+0x754>
1c008c78:	00100026 	add.w	$r6,$r1,$r0
1c008c7c:	14b8dc2b 	lu12i.w	$r11,378593(0x5c6e1)
1c008c80:	0298216b 	addi.w	$r11,$r11,1544(0x608)
1c008c84:	00107801 	add.w	$r1,$r0,$r30
1c008c88:	149e58d1 	lu12i.w	$r17,324294(0x4f2c6)
1c008c8c:	029c0231 	addi.w	$r17,$r17,1792(0x700)
1c008c90:	14b8dc30 	lu12i.w	$r16,378593(0x5c6e1)
1c008c94:	02982210 	addi.w	$r16,$r16,1544(0x608)
1c008c98:	5c040951 	bne	$r10,$r17,1032(0x408) # 1c0090a0 <inst_error>
1c008c9c:	028030c6 	addi.w	$r6,$r6,12(0xc)
1c008ca0:	5c040170 	bne	$r11,$r16,1024(0x400) # 1c0090a0 <inst_error>
1c008ca4:	5c03fcc5 	bne	$r6,$r5,1020(0x3fc) # 1c0090a0 <inst_error>
1c008ca8:	0010041e 	add.w	$r30,$r0,$r1
1c008cac:	1506e450 	lu12i.w	$r16,-510174(0x83722)
1c008cb0:	02878210 	addi.w	$r16,$r16,480(0x1e0)
1c008cb4:	15ecf451 	lu12i.w	$r17,-39006(0xf67a2)
1c008cb8:	02a20a31 	addi.w	$r17,$r17,-1918(0x882)
1c008cbc:	1400000a 	lu12i.w	$r10,0
1c008cc0:	1400000b 	lu12i.w	$r11,0
1c008cc4:	54001800 	bl	24(0x18) # 1c008cdc <n18_bl_test+0x7ac>
1c008cc8:	00100025 	add.w	$r5,$r1,$r0
1c008ccc:	1506e44a 	lu12i.w	$r10,-510174(0x83722)
1c008cd0:	0287814a 	addi.w	$r10,$r10,480(0x1e0)
1c008cd4:	54001400 	bl	20(0x14) # 1c008ce8 <n18_bl_test+0x7b8>
1c008cd8:	50001c00 	b	28(0x1c) # 1c008cf4 <n18_bl_test+0x7c4>
1c008cdc:	00100024 	add.w	$r4,$r1,$r0
1c008ce0:	57ffebff 	bl	-24(0xfffffe8) # 1c008cc8 <n18_bl_test+0x798>
1c008ce4:	50001000 	b	16(0x10) # 1c008cf4 <n18_bl_test+0x7c4>
1c008ce8:	00100026 	add.w	$r6,$r1,$r0
1c008cec:	15ecf44b 	lu12i.w	$r11,-39006(0xf67a2)
1c008cf0:	02a2096b 	addi.w	$r11,$r11,-1918(0x882)
1c008cf4:	00107801 	add.w	$r1,$r0,$r30
1c008cf8:	1506e451 	lu12i.w	$r17,-510174(0x83722)
1c008cfc:	02878231 	addi.w	$r17,$r17,480(0x1e0)
1c008d00:	15ecf450 	lu12i.w	$r16,-39006(0xf67a2)
1c008d04:	02a20a10 	addi.w	$r16,$r16,-1918(0x882)
1c008d08:	5c039951 	bne	$r10,$r17,920(0x398) # 1c0090a0 <inst_error>
1c008d0c:	028030c6 	addi.w	$r6,$r6,12(0xc)
1c008d10:	5c039170 	bne	$r11,$r16,912(0x390) # 1c0090a0 <inst_error>
1c008d14:	5c038cc5 	bne	$r6,$r5,908(0x38c) # 1c0090a0 <inst_error>
1c008d18:	0010041e 	add.w	$r30,$r0,$r1
1c008d1c:	15d0c150 	lu12i.w	$r16,-96758(0xe860a)
1c008d20:	02abce10 	addi.w	$r16,$r16,-1293(0xaf3)
1c008d24:	15d18db1 	lu12i.w	$r17,-95123(0xe8c6d)
1c008d28:	0288f231 	addi.w	$r17,$r17,572(0x23c)
1c008d2c:	1400000a 	lu12i.w	$r10,0
1c008d30:	1400000b 	lu12i.w	$r11,0
1c008d34:	54001800 	bl	24(0x18) # 1c008d4c <n18_bl_test+0x81c>
1c008d38:	00100025 	add.w	$r5,$r1,$r0
1c008d3c:	15d0c14a 	lu12i.w	$r10,-96758(0xe860a)
1c008d40:	02abcd4a 	addi.w	$r10,$r10,-1293(0xaf3)
1c008d44:	54001400 	bl	20(0x14) # 1c008d58 <n18_bl_test+0x828>
1c008d48:	50001c00 	b	28(0x1c) # 1c008d64 <n18_bl_test+0x834>
1c008d4c:	00100024 	add.w	$r4,$r1,$r0
1c008d50:	57ffebff 	bl	-24(0xfffffe8) # 1c008d38 <n18_bl_test+0x808>
1c008d54:	50001000 	b	16(0x10) # 1c008d64 <n18_bl_test+0x834>
1c008d58:	00100026 	add.w	$r6,$r1,$r0
1c008d5c:	15d18dab 	lu12i.w	$r11,-95123(0xe8c6d)
1c008d60:	0288f16b 	addi.w	$r11,$r11,572(0x23c)
1c008d64:	00107801 	add.w	$r1,$r0,$r30
1c008d68:	15d0c151 	lu12i.w	$r17,-96758(0xe860a)
1c008d6c:	02abce31 	addi.w	$r17,$r17,-1293(0xaf3)
1c008d70:	15d18db0 	lu12i.w	$r16,-95123(0xe8c6d)
1c008d74:	0288f210 	addi.w	$r16,$r16,572(0x23c)
1c008d78:	5c032951 	bne	$r10,$r17,808(0x328) # 1c0090a0 <inst_error>
1c008d7c:	028030c6 	addi.w	$r6,$r6,12(0xc)
1c008d80:	5c032170 	bne	$r11,$r16,800(0x320) # 1c0090a0 <inst_error>
1c008d84:	5c031cc5 	bne	$r6,$r5,796(0x31c) # 1c0090a0 <inst_error>
1c008d88:	0010041e 	add.w	$r30,$r0,$r1
1c008d8c:	153e8690 	lu12i.w	$r16,-396236(0x9f434)
1c008d90:	02800a10 	addi.w	$r16,$r16,2(0x2)
1c008d94:	14eeba11 	lu12i.w	$r17,488912(0x775d0)
1c008d98:	029bf231 	addi.w	$r17,$r17,1788(0x6fc)
1c008d9c:	1400000a 	lu12i.w	$r10,0
1c008da0:	1400000b 	lu12i.w	$r11,0
1c008da4:	54001800 	bl	24(0x18) # 1c008dbc <n18_bl_test+0x88c>
1c008da8:	00100025 	add.w	$r5,$r1,$r0
1c008dac:	153e868a 	lu12i.w	$r10,-396236(0x9f434)
1c008db0:	0280094a 	addi.w	$r10,$r10,2(0x2)
1c008db4:	54001400 	bl	20(0x14) # 1c008dc8 <n18_bl_test+0x898>
1c008db8:	50001c00 	b	28(0x1c) # 1c008dd4 <n18_bl_test+0x8a4>
1c008dbc:	00100024 	add.w	$r4,$r1,$r0
1c008dc0:	57ffebff 	bl	-24(0xfffffe8) # 1c008da8 <n18_bl_test+0x878>
1c008dc4:	50001000 	b	16(0x10) # 1c008dd4 <n18_bl_test+0x8a4>
1c008dc8:	00100026 	add.w	$r6,$r1,$r0
1c008dcc:	14eeba0b 	lu12i.w	$r11,488912(0x775d0)
1c008dd0:	029bf16b 	addi.w	$r11,$r11,1788(0x6fc)
1c008dd4:	00107801 	add.w	$r1,$r0,$r30
1c008dd8:	153e8691 	lu12i.w	$r17,-396236(0x9f434)
1c008ddc:	02800a31 	addi.w	$r17,$r17,2(0x2)
1c008de0:	14eeba10 	lu12i.w	$r16,488912(0x775d0)
1c008de4:	029bf210 	addi.w	$r16,$r16,1788(0x6fc)
1c008de8:	5c02b951 	bne	$r10,$r17,696(0x2b8) # 1c0090a0 <inst_error>
1c008dec:	028030c6 	addi.w	$r6,$r6,12(0xc)
1c008df0:	5c02b170 	bne	$r11,$r16,688(0x2b0) # 1c0090a0 <inst_error>
1c008df4:	5c02acc5 	bne	$r6,$r5,684(0x2ac) # 1c0090a0 <inst_error>
1c008df8:	0010041e 	add.w	$r30,$r0,$r1
1c008dfc:	14937390 	lu12i.w	$r16,301980(0x49b9c)
1c008e00:	02870210 	addi.w	$r16,$r16,448(0x1c0)
1c008e04:	154943f1 	lu12i.w	$r17,-374241(0xa4a1f)
1c008e08:	02880231 	addi.w	$r17,$r17,512(0x200)
1c008e0c:	1400000a 	lu12i.w	$r10,0
1c008e10:	1400000b 	lu12i.w	$r11,0
1c008e14:	54001800 	bl	24(0x18) # 1c008e2c <n18_bl_test+0x8fc>
1c008e18:	00100025 	add.w	$r5,$r1,$r0
1c008e1c:	1493738a 	lu12i.w	$r10,301980(0x49b9c)
1c008e20:	0287014a 	addi.w	$r10,$r10,448(0x1c0)
1c008e24:	54001400 	bl	20(0x14) # 1c008e38 <n18_bl_test+0x908>
1c008e28:	50001c00 	b	28(0x1c) # 1c008e44 <n18_bl_test+0x914>
1c008e2c:	00100024 	add.w	$r4,$r1,$r0
1c008e30:	57ffebff 	bl	-24(0xfffffe8) # 1c008e18 <n18_bl_test+0x8e8>
1c008e34:	50001000 	b	16(0x10) # 1c008e44 <n18_bl_test+0x914>
1c008e38:	00100026 	add.w	$r6,$r1,$r0
1c008e3c:	154943eb 	lu12i.w	$r11,-374241(0xa4a1f)
1c008e40:	0288016b 	addi.w	$r11,$r11,512(0x200)
1c008e44:	00107801 	add.w	$r1,$r0,$r30
1c008e48:	14937391 	lu12i.w	$r17,301980(0x49b9c)
1c008e4c:	02870231 	addi.w	$r17,$r17,448(0x1c0)
1c008e50:	154943f0 	lu12i.w	$r16,-374241(0xa4a1f)
1c008e54:	02880210 	addi.w	$r16,$r16,512(0x200)
1c008e58:	5c024951 	bne	$r10,$r17,584(0x248) # 1c0090a0 <inst_error>
1c008e5c:	028030c6 	addi.w	$r6,$r6,12(0xc)
1c008e60:	5c024170 	bne	$r11,$r16,576(0x240) # 1c0090a0 <inst_error>
1c008e64:	5c023cc5 	bne	$r6,$r5,572(0x23c) # 1c0090a0 <inst_error>
1c008e68:	0010041e 	add.w	$r30,$r0,$r1
1c008e6c:	14a5d610 	lu12i.w	$r16,339632(0x52eb0)
1c008e70:	02b80210 	addi.w	$r16,$r16,-512(0xe00)
1c008e74:	15f5bbf1 	lu12i.w	$r17,-21025(0xfaddf)
1c008e78:	02983231 	addi.w	$r17,$r17,1548(0x60c)
1c008e7c:	1400000a 	lu12i.w	$r10,0
1c008e80:	1400000b 	lu12i.w	$r11,0
1c008e84:	54001800 	bl	24(0x18) # 1c008e9c <n18_bl_test+0x96c>
1c008e88:	00100025 	add.w	$r5,$r1,$r0
1c008e8c:	14a5d60a 	lu12i.w	$r10,339632(0x52eb0)
1c008e90:	02b8014a 	addi.w	$r10,$r10,-512(0xe00)
1c008e94:	54001400 	bl	20(0x14) # 1c008ea8 <n18_bl_test+0x978>
1c008e98:	50001c00 	b	28(0x1c) # 1c008eb4 <n18_bl_test+0x984>
1c008e9c:	00100024 	add.w	$r4,$r1,$r0
1c008ea0:	57ffebff 	bl	-24(0xfffffe8) # 1c008e88 <n18_bl_test+0x958>
1c008ea4:	50001000 	b	16(0x10) # 1c008eb4 <n18_bl_test+0x984>
1c008ea8:	00100026 	add.w	$r6,$r1,$r0
1c008eac:	15f5bbeb 	lu12i.w	$r11,-21025(0xfaddf)
1c008eb0:	0298316b 	addi.w	$r11,$r11,1548(0x60c)
1c008eb4:	00107801 	add.w	$r1,$r0,$r30
1c008eb8:	14a5d611 	lu12i.w	$r17,339632(0x52eb0)
1c008ebc:	02b80231 	addi.w	$r17,$r17,-512(0xe00)
1c008ec0:	15f5bbf0 	lu12i.w	$r16,-21025(0xfaddf)
1c008ec4:	02983210 	addi.w	$r16,$r16,1548(0x60c)
1c008ec8:	5c01d951 	bne	$r10,$r17,472(0x1d8) # 1c0090a0 <inst_error>
1c008ecc:	028030c6 	addi.w	$r6,$r6,12(0xc)
1c008ed0:	5c01d170 	bne	$r11,$r16,464(0x1d0) # 1c0090a0 <inst_error>
1c008ed4:	5c01ccc5 	bne	$r6,$r5,460(0x1cc) # 1c0090a0 <inst_error>
1c008ed8:	0010041e 	add.w	$r30,$r0,$r1
1c008edc:	15a501f0 	lu12i.w	$r16,-186353(0xd280f)
1c008ee0:	02b82a10 	addi.w	$r16,$r16,-502(0xe0a)
1c008ee4:	1442edf1 	lu12i.w	$r17,137071(0x2176f)
1c008ee8:	02930231 	addi.w	$r17,$r17,1216(0x4c0)
1c008eec:	1400000a 	lu12i.w	$r10,0
1c008ef0:	1400000b 	lu12i.w	$r11,0
1c008ef4:	54001800 	bl	24(0x18) # 1c008f0c <n18_bl_test+0x9dc>
1c008ef8:	00100025 	add.w	$r5,$r1,$r0
1c008efc:	15a501ea 	lu12i.w	$r10,-186353(0xd280f)
1c008f00:	02b8294a 	addi.w	$r10,$r10,-502(0xe0a)
1c008f04:	54001400 	bl	20(0x14) # 1c008f18 <n18_bl_test+0x9e8>
1c008f08:	50001c00 	b	28(0x1c) # 1c008f24 <n18_bl_test+0x9f4>
1c008f0c:	00100024 	add.w	$r4,$r1,$r0
1c008f10:	57ffebff 	bl	-24(0xfffffe8) # 1c008ef8 <n18_bl_test+0x9c8>
1c008f14:	50001000 	b	16(0x10) # 1c008f24 <n18_bl_test+0x9f4>
1c008f18:	00100026 	add.w	$r6,$r1,$r0
1c008f1c:	1442edeb 	lu12i.w	$r11,137071(0x2176f)
1c008f20:	0293016b 	addi.w	$r11,$r11,1216(0x4c0)
1c008f24:	00107801 	add.w	$r1,$r0,$r30
1c008f28:	15a501f1 	lu12i.w	$r17,-186353(0xd280f)
1c008f2c:	02b82a31 	addi.w	$r17,$r17,-502(0xe0a)
1c008f30:	1442edf0 	lu12i.w	$r16,137071(0x2176f)
1c008f34:	02930210 	addi.w	$r16,$r16,1216(0x4c0)
1c008f38:	5c016951 	bne	$r10,$r17,360(0x168) # 1c0090a0 <inst_error>
1c008f3c:	028030c6 	addi.w	$r6,$r6,12(0xc)
1c008f40:	5c016170 	bne	$r11,$r16,352(0x160) # 1c0090a0 <inst_error>
1c008f44:	5c015cc5 	bne	$r6,$r5,348(0x15c) # 1c0090a0 <inst_error>
1c008f48:	0010041e 	add.w	$r30,$r0,$r1
1c008f4c:	15d378d0 	lu12i.w	$r16,-91194(0xe9bc6)
1c008f50:	02aa4210 	addi.w	$r16,$r16,-1392(0xa90)
1c008f54:	15560851 	lu12i.w	$r17,-348094(0xab042)
1c008f58:	02869a31 	addi.w	$r17,$r17,422(0x1a6)
1c008f5c:	1400000a 	lu12i.w	$r10,0
1c008f60:	1400000b 	lu12i.w	$r11,0
1c008f64:	54001800 	bl	24(0x18) # 1c008f7c <n18_bl_test+0xa4c>
1c008f68:	00100025 	add.w	$r5,$r1,$r0
1c008f6c:	15d378ca 	lu12i.w	$r10,-91194(0xe9bc6)
1c008f70:	02aa414a 	addi.w	$r10,$r10,-1392(0xa90)
1c008f74:	54001400 	bl	20(0x14) # 1c008f88 <n18_bl_test+0xa58>
1c008f78:	50001c00 	b	28(0x1c) # 1c008f94 <n18_bl_test+0xa64>
1c008f7c:	00100024 	add.w	$r4,$r1,$r0
1c008f80:	57ffebff 	bl	-24(0xfffffe8) # 1c008f68 <n18_bl_test+0xa38>
1c008f84:	50001000 	b	16(0x10) # 1c008f94 <n18_bl_test+0xa64>
1c008f88:	00100026 	add.w	$r6,$r1,$r0
1c008f8c:	1556084b 	lu12i.w	$r11,-348094(0xab042)
1c008f90:	0286996b 	addi.w	$r11,$r11,422(0x1a6)
1c008f94:	00107801 	add.w	$r1,$r0,$r30
1c008f98:	15d378d1 	lu12i.w	$r17,-91194(0xe9bc6)
1c008f9c:	02aa4231 	addi.w	$r17,$r17,-1392(0xa90)
1c008fa0:	15560850 	lu12i.w	$r16,-348094(0xab042)
1c008fa4:	02869a10 	addi.w	$r16,$r16,422(0x1a6)
1c008fa8:	5c00f951 	bne	$r10,$r17,248(0xf8) # 1c0090a0 <inst_error>
1c008fac:	028030c6 	addi.w	$r6,$r6,12(0xc)
1c008fb0:	5c00f170 	bne	$r11,$r16,240(0xf0) # 1c0090a0 <inst_error>
1c008fb4:	5c00ecc5 	bne	$r6,$r5,236(0xec) # 1c0090a0 <inst_error>
1c008fb8:	0010041e 	add.w	$r30,$r0,$r1
1c008fbc:	15066bb0 	lu12i.w	$r16,-511139(0x8335d)
1c008fc0:	0299b610 	addi.w	$r16,$r16,1645(0x66d)
1c008fc4:	15b5e591 	lu12i.w	$r17,-151764(0xdaf2c)
1c008fc8:	02888a31 	addi.w	$r17,$r17,546(0x222)
1c008fcc:	1400000a 	lu12i.w	$r10,0
1c008fd0:	1400000b 	lu12i.w	$r11,0
1c008fd4:	54001800 	bl	24(0x18) # 1c008fec <n18_bl_test+0xabc>
1c008fd8:	00100025 	add.w	$r5,$r1,$r0
1c008fdc:	15066baa 	lu12i.w	$r10,-511139(0x8335d)
1c008fe0:	0299b54a 	addi.w	$r10,$r10,1645(0x66d)
1c008fe4:	54001400 	bl	20(0x14) # 1c008ff8 <n18_bl_test+0xac8>
1c008fe8:	50001c00 	b	28(0x1c) # 1c009004 <n18_bl_test+0xad4>
1c008fec:	00100024 	add.w	$r4,$r1,$r0
1c008ff0:	57ffebff 	bl	-24(0xfffffe8) # 1c008fd8 <n18_bl_test+0xaa8>
1c008ff4:	50001000 	b	16(0x10) # 1c009004 <n18_bl_test+0xad4>
1c008ff8:	00100026 	add.w	$r6,$r1,$r0
1c008ffc:	15b5e58b 	lu12i.w	$r11,-151764(0xdaf2c)
1c009000:	0288896b 	addi.w	$r11,$r11,546(0x222)
1c009004:	00107801 	add.w	$r1,$r0,$r30
1c009008:	15066bb1 	lu12i.w	$r17,-511139(0x8335d)
1c00900c:	0299b631 	addi.w	$r17,$r17,1645(0x66d)
1c009010:	15b5e590 	lu12i.w	$r16,-151764(0xdaf2c)
1c009014:	02888a10 	addi.w	$r16,$r16,546(0x222)
1c009018:	5c008951 	bne	$r10,$r17,136(0x88) # 1c0090a0 <inst_error>
1c00901c:	028030c6 	addi.w	$r6,$r6,12(0xc)
1c009020:	5c008170 	bne	$r11,$r16,128(0x80) # 1c0090a0 <inst_error>
1c009024:	5c007cc5 	bne	$r6,$r5,124(0x7c) # 1c0090a0 <inst_error>
1c009028:	0010041e 	add.w	$r30,$r0,$r1
1c00902c:	1431c130 	lu12i.w	$r16,101897(0x18e09)
1c009030:	02b40210 	addi.w	$r16,$r16,-768(0xd00)
1c009034:	14df46d1 	lu12i.w	$r17,457270(0x6fa36)
1c009038:	02867a31 	addi.w	$r17,$r17,414(0x19e)
1c00903c:	1400000a 	lu12i.w	$r10,0
1c009040:	1400000b 	lu12i.w	$r11,0
1c009044:	54001800 	bl	24(0x18) # 1c00905c <n18_bl_test+0xb2c>
1c009048:	00100025 	add.w	$r5,$r1,$r0
1c00904c:	1431c12a 	lu12i.w	$r10,101897(0x18e09)
1c009050:	02b4014a 	addi.w	$r10,$r10,-768(0xd00)
1c009054:	54001400 	bl	20(0x14) # 1c009068 <n18_bl_test+0xb38>
1c009058:	50001c00 	b	28(0x1c) # 1c009074 <n18_bl_test+0xb44>
1c00905c:	00100024 	add.w	$r4,$r1,$r0
1c009060:	57ffebff 	bl	-24(0xfffffe8) # 1c009048 <n18_bl_test+0xb18>
1c009064:	50001000 	b	16(0x10) # 1c009074 <n18_bl_test+0xb44>
1c009068:	00100026 	add.w	$r6,$r1,$r0
1c00906c:	14df46cb 	lu12i.w	$r11,457270(0x6fa36)
1c009070:	0286796b 	addi.w	$r11,$r11,414(0x19e)
1c009074:	00107801 	add.w	$r1,$r0,$r30
1c009078:	1431c131 	lu12i.w	$r17,101897(0x18e09)
1c00907c:	02b40231 	addi.w	$r17,$r17,-768(0xd00)
1c009080:	14df46d0 	lu12i.w	$r16,457270(0x6fa36)
1c009084:	02867a10 	addi.w	$r16,$r16,414(0x19e)
1c009088:	5c001951 	bne	$r10,$r17,24(0x18) # 1c0090a0 <inst_error>
1c00908c:	028030c6 	addi.w	$r6,$r6,12(0xc)
1c009090:	5c001170 	bne	$r11,$r16,16(0x10) # 1c0090a0 <inst_error>
1c009094:	5c000cc5 	bne	$r6,$r5,12(0xc) # 1c0090a0 <inst_error>
1c009098:	5c000b20 	bne	$r25,$r0,8(0x8) # 1c0090a0 <inst_error>
1c00909c:	0280075a 	addi.w	$r26,$r26,1(0x1)

1c0090a0 <inst_error>:
1c0090a0:	0040e2ed 	slli.w	$r13,$r23,0x18
1c0090a4:	001569ac 	or	$r12,$r13,$r26
1c0090a8:	2980030c 	st.w	$r12,$r24,0
1c0090ac:	4c000020 	jirl	$r0,$r1,0

1c0090b0 <n9_xor_test>:
n9_xor_test():
1c0090b0:	028006f7 	addi.w	$r23,$r23,1(0x1)
1c0090b4:	00150019 	move	$r25,$r0
1c0090b8:	142ee7cc 	lu12i.w	$r12,96062(0x1773e)
1c0090bc:	02be018c 	addi.w	$r12,$r12,-128(0xf80)
1c0090c0:	156b5ead 	lu12i.w	$r13,-304395(0xb5af5)
1c0090c4:	028749ad 	addi.w	$r13,$r13,466(0x1d2)
1c0090c8:	1545b92b 	lu12i.w	$r11,-381495(0xa2dc9)
1c0090cc:	02b9496b 	addi.w	$r11,$r11,-430(0xe52)
1c0090d0:	0015b58a 	xor	$r10,$r12,$r13
1c0090d4:	5c056d4b 	bne	$r10,$r11,1388(0x56c) # 1c009640 <inst_error>
1c0090d8:	15cc446c 	lu12i.w	$r12,-105949(0xe6223)
1c0090dc:	0295418c 	addi.w	$r12,$r12,1360(0x550)
1c0090e0:	1521394d 	lu12i.w	$r13,-456246(0x909ca)
1c0090e4:	02a369ad 	addi.w	$r13,$r13,-1830(0x8da)
1c0090e8:	14ed7d6b 	lu12i.w	$r11,486379(0x76beb)
1c0090ec:	02b6296b 	addi.w	$r11,$r11,-630(0xd8a)
1c0090f0:	0015b58a 	xor	$r10,$r12,$r13
1c0090f4:	5c054d4b 	bne	$r10,$r11,1356(0x54c) # 1c009640 <inst_error>
1c0090f8:	15eb914c 	lu12i.w	$r12,-41846(0xf5c8a)
1c0090fc:	0296618c 	addi.w	$r12,$r12,1432(0x598)
1c009100:	144bfa0d 	lu12i.w	$r13,155600(0x25fd0)
1c009104:	028901ad 	addi.w	$r13,$r13,576(0x240)
1c009108:	15a06b4b 	lu12i.w	$r11,-195750(0xd035a)
1c00910c:	029f616b 	addi.w	$r11,$r11,2008(0x7d8)
1c009110:	0015b58a 	xor	$r10,$r12,$r13
1c009114:	5c052d4b 	bne	$r10,$r11,1324(0x52c) # 1c009640 <inst_error>
1c009118:	14496a8c 	lu12i.w	$r12,150356(0x24b54)
1c00911c:	02bc818c 	addi.w	$r12,$r12,-224(0xf20)
1c009120:	1429a76d 	lu12i.w	$r13,85307(0x14d3b)
1c009124:	02aba1ad 	addi.w	$r13,$r13,-1304(0xae8)
1c009128:	1460cd2b 	lu12i.w	$r11,198249(0x30669)
1c00912c:	0297216b 	addi.w	$r11,$r11,1480(0x5c8)
1c009130:	0015b58a 	xor	$r10,$r12,$r13
1c009134:	5c050d4b 	bne	$r10,$r11,1292(0x50c) # 1c009640 <inst_error>
1c009138:	14b28a4c 	lu12i.w	$r12,365650(0x59452)
1c00913c:	02bce18c 	addi.w	$r12,$r12,-200(0xf38)
1c009140:	15d155ed 	lu12i.w	$r13,-95569(0xe8aaf)
1c009144:	0290adad 	addi.w	$r13,$r13,1067(0x42b)
1c009148:	1563dfeb 	lu12i.w	$r11,-319745(0xb1eff)
1c00914c:	02ac4d6b 	addi.w	$r11,$r11,-1261(0xb13)
1c009150:	0015b58a 	xor	$r10,$r12,$r13
1c009154:	5c04ed4b 	bne	$r10,$r11,1260(0x4ec) # 1c009640 <inst_error>
1c009158:	1594b62c 	lu12i.w	$r12,-219727(0xca5b1)
1c00915c:	029e818c 	addi.w	$r12,$r12,1952(0x7a0)
1c009160:	159d8e2d 	lu12i.w	$r13,-201615(0xcec71)
1c009164:	02b561ad 	addi.w	$r13,$r13,-680(0xd58)
1c009168:	1409384b 	lu12i.w	$r11,18882(0x49c2)
1c00916c:	02abe16b 	addi.w	$r11,$r11,-1288(0xaf8)
1c009170:	0015b58a 	xor	$r10,$r12,$r13
1c009174:	5c04cd4b 	bne	$r10,$r11,1228(0x4cc) # 1c009640 <inst_error>
1c009178:	1516d44c 	lu12i.w	$r12,-477534(0x8b6a2)
1c00917c:	02b9e18c 	addi.w	$r12,$r12,-392(0xe78)
1c009180:	15513ccd 	lu12i.w	$r13,-357914(0xa89e6)
1c009184:	02bb49ad 	addi.w	$r13,$r13,-302(0xed2)
1c009188:	1447e88b 	lu12i.w	$r11,147268(0x23f44)
1c00918c:	0282a96b 	addi.w	$r11,$r11,170(0xaa)
1c009190:	0015b58a 	xor	$r10,$r12,$r13
1c009194:	5c04ad4b 	bne	$r10,$r11,1196(0x4ac) # 1c009640 <inst_error>
1c009198:	1514b00c 	lu12i.w	$r12,-481920(0x8a580)
1c00919c:	0286418c 	addi.w	$r12,$r12,400(0x190)
1c0091a0:	155c73cd 	lu12i.w	$r13,-334946(0xae39e)
1c0091a4:	029981ad 	addi.w	$r13,$r13,1632(0x660)
1c0091a8:	1448c3cb 	lu12i.w	$r11,149022(0x2461e)
1c0091ac:	029fc16b 	addi.w	$r11,$r11,2032(0x7f0)
1c0091b0:	0015b58a 	xor	$r10,$r12,$r13
1c0091b4:	5c048d4b 	bne	$r10,$r11,1164(0x48c) # 1c009640 <inst_error>
1c0091b8:	15ba68ec 	lu12i.w	$r12,-142521(0xdd347)
1c0091bc:	028bc18c 	addi.w	$r12,$r12,752(0x2f0)
1c0091c0:	158291cd 	lu12i.w	$r13,-256882(0xc148e)
1c0091c4:	02b421ad 	addi.w	$r13,$r13,-760(0xd08)
1c0091c8:	1438f96b 	lu12i.w	$r11,116683(0x1c7cb)
1c0091cc:	02bfe16b 	addi.w	$r11,$r11,-8(0xff8)
1c0091d0:	0015b58a 	xor	$r10,$r12,$r13
1c0091d4:	5c046d4b 	bne	$r10,$r11,1132(0x46c) # 1c009640 <inst_error>
1c0091d8:	14a4b0ac 	lu12i.w	$r12,337285(0x52585)
1c0091dc:	029f818c 	addi.w	$r12,$r12,2016(0x7e0)
1c0091e0:	1529ad0d 	lu12i.w	$r13,-438936(0x94d68)
1c0091e4:	02a181ad 	addi.w	$r13,$r13,-1952(0x860)
1c0091e8:	158d1c6b 	lu12i.w	$r11,-235293(0xc68e3)
1c0091ec:	02be016b 	addi.w	$r11,$r11,-128(0xf80)
1c0091f0:	0015b58a 	xor	$r10,$r12,$r13
1c0091f4:	5c044d4b 	bne	$r10,$r11,1100(0x44c) # 1c009640 <inst_error>
1c0091f8:	156c386c 	lu12i.w	$r12,-302653(0xb61c3)
1c0091fc:	02b1018c 	addi.w	$r12,$r12,-960(0xc40)
1c009200:	1582b42d 	lu12i.w	$r13,-256607(0xc15a1)
1c009204:	02aea9ad 	addi.w	$r13,$r13,-1110(0xbaa)
1c009208:	14ee8c4b 	lu12i.w	$r11,488546(0x77462)
1c00920c:	029fa96b 	addi.w	$r11,$r11,2026(0x7ea)
1c009210:	0015b58a 	xor	$r10,$r12,$r13
1c009214:	5c042d4b 	bne	$r10,$r11,1068(0x42c) # 1c009640 <inst_error>
1c009218:	14069a4c 	lu12i.w	$r12,13522(0x34d2)
1c00921c:	02bba18c 	addi.w	$r12,$r12,-280(0xee8)
1c009220:	145724ed 	lu12i.w	$r13,178471(0x2b927)
1c009224:	029001ad 	addi.w	$r13,$r13,1024(0x400)
1c009228:	1451beeb 	lu12i.w	$r11,167415(0x28df7)
1c00922c:	02aba16b 	addi.w	$r11,$r11,-1304(0xae8)
1c009230:	0015b58a 	xor	$r10,$r12,$r13
1c009234:	5c040d4b 	bne	$r10,$r11,1036(0x40c) # 1c009640 <inst_error>
1c009238:	15919c0c 	lu12i.w	$r12,-226080(0xc8ce0)
1c00923c:	02ac518c 	addi.w	$r12,$r12,-1260(0xb14)
1c009240:	14e03bad 	lu12i.w	$r13,459229(0x701dd)
1c009244:	0294f9ad 	addi.w	$r13,$r13,1342(0x53e)
1c009248:	1571a06b 	lu12i.w	$r11,-291581(0xb8d03)
1c00924c:	02b8a96b 	addi.w	$r11,$r11,-470(0xe2a)
1c009250:	0015b58a 	xor	$r10,$r12,$r13
1c009254:	5c03ed4b 	bne	$r10,$r11,1004(0x3ec) # 1c009640 <inst_error>
1c009258:	148a0acc 	lu12i.w	$r12,282710(0x45056)
1c00925c:	0292658c 	addi.w	$r12,$r12,1177(0x499)
1c009260:	15b4868d 	lu12i.w	$r13,-154572(0xda434)
1c009264:	0296c1ad 	addi.w	$r13,$r13,1456(0x5b0)
1c009268:	153e8c4b 	lu12i.w	$r11,-396190(0x9f462)
1c00926c:	0284a56b 	addi.w	$r11,$r11,297(0x129)
1c009270:	0015b58a 	xor	$r10,$r12,$r13
1c009274:	5c03cd4b 	bne	$r10,$r11,972(0x3cc) # 1c009640 <inst_error>
1c009278:	1408124c 	lu12i.w	$r12,16530(0x4092)
1c00927c:	0281418c 	addi.w	$r12,$r12,80(0x50)
1c009280:	14a078cd 	lu12i.w	$r13,328646(0x503c6)
1c009284:	02a721ad 	addi.w	$r13,$r13,-1592(0x9c8)
1c009288:	14a86b0b 	lu12i.w	$r11,344920(0x54358)
1c00928c:	02a6616b 	addi.w	$r11,$r11,-1640(0x998)
1c009290:	0015b58a 	xor	$r10,$r12,$r13
1c009294:	5c03ad4b 	bne	$r10,$r11,940(0x3ac) # 1c009640 <inst_error>
1c009298:	147b11ac 	lu12i.w	$r12,252045(0x3d88d)
1c00929c:	029c018c 	addi.w	$r12,$r12,1792(0x700)
1c0092a0:	150ebb8d 	lu12i.w	$r13,-494116(0x875dc)
1c0092a4:	029141ad 	addi.w	$r13,$r13,1104(0x450)
1c0092a8:	1575aa2b 	lu12i.w	$r11,-283311(0xbad51)
1c0092ac:	028d416b 	addi.w	$r11,$r11,848(0x350)
1c0092b0:	0015b58a 	xor	$r10,$r12,$r13
1c0092b4:	5c038d4b 	bne	$r10,$r11,908(0x38c) # 1c009640 <inst_error>
1c0092b8:	157b036c 	lu12i.w	$r12,-272357(0xbd81b)
1c0092bc:	0286018c 	addi.w	$r12,$r12,384(0x180)
1c0092c0:	1448c12d 	lu12i.w	$r13,149001(0x24609)
1c0092c4:	02ae5dad 	addi.w	$r13,$r13,-1129(0xb97)
1c0092c8:	1533c28b 	lu12i.w	$r11,-418284(0x99e14)
1c0092cc:	02a85d6b 	addi.w	$r11,$r11,-1513(0xa17)
1c0092d0:	0015b58a 	xor	$r10,$r12,$r13
1c0092d4:	5c036d4b 	bne	$r10,$r11,876(0x36c) # 1c009640 <inst_error>
1c0092d8:	15f42fcc 	lu12i.w	$r12,-24194(0xfa17e)
1c0092dc:	0297118c 	addi.w	$r12,$r12,1476(0x5c4)
1c0092e0:	15e343cd 	lu12i.w	$r13,-58850(0xf1a1e)
1c0092e4:	028a01ad 	addi.w	$r13,$r13,640(0x280)
1c0092e8:	14176c0b 	lu12i.w	$r11,47968(0xbb60)
1c0092ec:	029d116b 	addi.w	$r11,$r11,1860(0x744)
1c0092f0:	0015b58a 	xor	$r10,$r12,$r13
1c0092f4:	5c034d4b 	bne	$r10,$r11,844(0x34c) # 1c009640 <inst_error>
1c0092f8:	143e4c0c 	lu12i.w	$r12,127584(0x1f260)
1c0092fc:	0285c18c 	addi.w	$r12,$r12,368(0x170)
1c009300:	15d1a6ed 	lu12i.w	$r13,-94921(0xe8d37)
1c009304:	028dc1ad 	addi.w	$r13,$r13,880(0x370)
1c009308:	15efeaeb 	lu12i.w	$r11,-32937(0xf7f57)
1c00930c:	0288016b 	addi.w	$r11,$r11,512(0x200)
1c009310:	0015b58a 	xor	$r10,$r12,$r13
1c009314:	5c032d4b 	bne	$r10,$r11,812(0x32c) # 1c009640 <inst_error>
1c009318:	15876bcc 	lu12i.w	$r12,-246946(0xc3b5e)
1c00931c:	02ac198c 	addi.w	$r12,$r12,-1274(0xb06)
1c009320:	146507ad 	lu12i.w	$r13,206909(0x3283d)
1c009324:	0292e1ad 	addi.w	$r13,$r13,1208(0x4b8)
1c009328:	15e26c2b 	lu12i.w	$r11,-60575(0xf1361)
1c00932c:	02bef96b 	addi.w	$r11,$r11,-66(0xfbe)
1c009330:	0015b58a 	xor	$r10,$r12,$r13
1c009334:	5c030d4b 	bne	$r10,$r11,780(0x30c) # 1c009640 <inst_error>
1c009338:	149a5c8c 	lu12i.w	$r12,316132(0x4d2e4)
1c00933c:	02b3d58c 	addi.w	$r12,$r12,-779(0xcf5)
1c009340:	146191ed 	lu12i.w	$r13,199823(0x30c8f)
1c009344:	028d31ad 	addi.w	$r13,$r13,844(0x34c)
1c009348:	14fbcdab 	lu12i.w	$r11,515693(0x7de6d)
1c00934c:	02bee56b 	addi.w	$r11,$r11,-71(0xfb9)
1c009350:	0015b58a 	xor	$r10,$r12,$r13
1c009354:	5c02ed4b 	bne	$r10,$r11,748(0x2ec) # 1c009640 <inst_error>
1c009358:	1402a1ec 	lu12i.w	$r12,5391(0x150f)
1c00935c:	0294b18c 	addi.w	$r12,$r12,1324(0x52c)
1c009360:	152400ed 	lu12i.w	$r13,-450553(0x92007)
1c009364:	02b681ad 	addi.w	$r13,$r13,-608(0xda0)
1c009368:	1526a14b 	lu12i.w	$r11,-445174(0x9350a)
1c00936c:	02a2316b 	addi.w	$r11,$r11,-1908(0x88c)
1c009370:	0015b58a 	xor	$r10,$r12,$r13
1c009374:	5c02cd4b 	bne	$r10,$r11,716(0x2cc) # 1c009640 <inst_error>
1c009378:	143fc26c 	lu12i.w	$r12,130579(0x1fe13)
1c00937c:	02af558c 	addi.w	$r12,$r12,-1067(0xbd5)
1c009380:	15fdf7ed 	lu12i.w	$r13,-4161(0xfefbf)
1c009384:	02b315ad 	addi.w	$r13,$r13,-827(0xcc5)
1c009388:	15c2358b 	lu12i.w	$r11,-126548(0xe11ac)
1c00938c:	029c416b 	addi.w	$r11,$r11,1808(0x710)
1c009390:	0015b58a 	xor	$r10,$r12,$r13
1c009394:	5c02ad4b 	bne	$r10,$r11,684(0x2ac) # 1c009640 <inst_error>
1c009398:	15aa2b0c 	lu12i.w	$r12,-175784(0xd5158)
1c00939c:	0290f18c 	addi.w	$r12,$r12,1084(0x43c)
1c0093a0:	14feda4d 	lu12i.w	$r13,521938(0x7f6d2)
1c0093a4:	0292d1ad 	addi.w	$r13,$r13,1204(0x4b4)
1c0093a8:	1554f14b 	lu12i.w	$r11,-350326(0xaa78a)
1c0093ac:	0282216b 	addi.w	$r11,$r11,136(0x88)
1c0093b0:	0015b58a 	xor	$r10,$r12,$r13
1c0093b4:	5c028d4b 	bne	$r10,$r11,652(0x28c) # 1c009640 <inst_error>
1c0093b8:	1595602c 	lu12i.w	$r12,-218367(0xcab01)
1c0093bc:	0296c18c 	addi.w	$r12,$r12,1456(0x5b0)
1c0093c0:	14c7c02d 	lu12i.w	$r13,409089(0x63e01)
1c0093c4:	02b901ad 	addi.w	$r13,$r13,-448(0xe40)
1c0093c8:	1552a04b 	lu12i.w	$r11,-355070(0xa9502)
1c0093cc:	02afc16b 	addi.w	$r11,$r11,-1040(0xbf0)
1c0093d0:	0015b58a 	xor	$r10,$r12,$r13
1c0093d4:	5c026d4b 	bne	$r10,$r11,620(0x26c) # 1c009640 <inst_error>
1c0093d8:	14a4030c 	lu12i.w	$r12,335896(0x52018)
1c0093dc:	029d018c 	addi.w	$r12,$r12,1856(0x740)
1c0093e0:	15dedc4d 	lu12i.w	$r13,-67870(0xef6e2)
1c0093e4:	028331ad 	addi.w	$r13,$r13,204(0xcc)
1c0093e8:	157adf4b 	lu12i.w	$r11,-272646(0xbd6fa)
1c0093ec:	029e316b 	addi.w	$r11,$r11,1932(0x78c)
1c0093f0:	0015b58a 	xor	$r10,$r12,$r13
1c0093f4:	5c024d4b 	bne	$r10,$r11,588(0x24c) # 1c009640 <inst_error>
1c0093f8:	1525eccc 	lu12i.w	$r12,-446618(0x92f66)
1c0093fc:	02b4e18c 	addi.w	$r12,$r12,-712(0xd38)
1c009400:	155264ad 	lu12i.w	$r13,-355547(0xa9325)
1c009404:	02aa01ad 	addi.w	$r13,$r13,-1408(0xa80)
1c009408:	1477882b 	lu12i.w	$r11,244801(0x3bc41)
1c00940c:	029ee16b 	addi.w	$r11,$r11,1976(0x7b8)
1c009410:	0015b58a 	xor	$r10,$r12,$r13
1c009414:	5c022d4b 	bne	$r10,$r11,556(0x22c) # 1c009640 <inst_error>
1c009418:	1407264c 	lu12i.w	$r12,14642(0x3932)
1c00941c:	0286898c 	addi.w	$r12,$r12,418(0x1a2)
1c009420:	14cad4ed 	lu12i.w	$r13,415399(0x656a7)
1c009424:	02a4a5ad 	addi.w	$r13,$r13,-1751(0x929)
1c009428:	14cdf2ab 	lu12i.w	$r11,421781(0x66f95)
1c00942c:	02a22d6b 	addi.w	$r11,$r11,-1909(0x88b)
1c009430:	0015b58a 	xor	$r10,$r12,$r13
1c009434:	5c020d4b 	bne	$r10,$r11,524(0x20c) # 1c009640 <inst_error>
1c009438:	152f35cc 	lu12i.w	$r12,-427602(0x979ae)
1c00943c:	0285d98c 	addi.w	$r12,$r12,374(0x176)
1c009440:	1411500d 	lu12i.w	$r13,35456(0x8a80)
1c009444:	02a691ad 	addi.w	$r13,$r13,-1628(0x9a4)
1c009448:	153e7a4b 	lu12i.w	$r11,-396334(0x9f3d2)
1c00944c:	02a3496b 	addi.w	$r11,$r11,-1838(0x8d2)
1c009450:	0015b58a 	xor	$r10,$r12,$r13
1c009454:	5c01ed4b 	bne	$r10,$r11,492(0x1ec) # 1c009640 <inst_error>
1c009458:	15b17bac 	lu12i.w	$r12,-160803(0xd8bdd)
1c00945c:	02b9618c 	addi.w	$r12,$r12,-424(0xe58)
1c009460:	1550314d 	lu12i.w	$r13,-360054(0xa818a)
1c009464:	029991ad 	addi.w	$r13,$r13,1636(0x664)
1c009468:	14e14aeb 	lu12i.w	$r11,461399(0x70a57)
1c00946c:	02a0f16b 	addi.w	$r11,$r11,-1988(0x83c)
1c009470:	0015b58a 	xor	$r10,$r12,$r13
1c009474:	5c01cd4b 	bne	$r10,$r11,460(0x1cc) # 1c009640 <inst_error>
1c009478:	15d9ca6c 	lu12i.w	$r12,-78253(0xece53)
1c00947c:	028fc18c 	addi.w	$r12,$r12,1008(0x3f0)
1c009480:	152645ed 	lu12i.w	$r13,-445905(0x9322f)
1c009484:	028aa1ad 	addi.w	$r13,$r13,680(0x2a8)
1c009488:	14ff8f8b 	lu12i.w	$r11,523388(0x7fc7c)
1c00948c:	0285616b 	addi.w	$r11,$r11,344(0x158)
1c009490:	0015b58a 	xor	$r10,$r12,$r13
1c009494:	5c01ad4b 	bne	$r10,$r11,428(0x1ac) # 1c009640 <inst_error>
1c009498:	153454cc 	lu12i.w	$r12,-417114(0x9a2a6)
1c00949c:	02ae2d8c 	addi.w	$r12,$r12,-1141(0xb8b)
1c0094a0:	1588072d 	lu12i.w	$r13,-245703(0xc4039)
1c0094a4:	02ba39ad 	addi.w	$r13,$r13,-370(0xe8e)
1c0094a8:	14bc53ab 	lu12i.w	$r11,385693(0x5e29d)
1c0094ac:	0294156b 	addi.w	$r11,$r11,1285(0x505)
1c0094b0:	0015b58a 	xor	$r10,$r12,$r13
1c0094b4:	5c018d4b 	bne	$r10,$r11,396(0x18c) # 1c009640 <inst_error>
1c0094b8:	1489ca0c 	lu12i.w	$r12,282192(0x44e50)
1c0094bc:	02b2618c 	addi.w	$r12,$r12,-872(0xc98)
1c0094c0:	1528deed 	lu12i.w	$r13,-440585(0x946f7)
1c0094c4:	02b2c9ad 	addi.w	$r13,$r13,-846(0xcb2)
1c0094c8:	15a1172b 	lu12i.w	$r11,-194375(0xd08b9)
1c0094cc:	0280a96b 	addi.w	$r11,$r11,42(0x2a)
1c0094d0:	0015b58a 	xor	$r10,$r12,$r13
1c0094d4:	5c016d4b 	bne	$r10,$r11,364(0x16c) # 1c009640 <inst_error>
1c0094d8:	1479d8ac 	lu12i.w	$r12,249541(0x3cec5)
1c0094dc:	028bf18c 	addi.w	$r12,$r12,764(0x2fc)
1c0094e0:	150da10d 	lu12i.w	$r13,-496376(0x86d08)
1c0094e4:	02a67dad 	addi.w	$r13,$r13,-1633(0x99f)
1c0094e8:	1574786b 	lu12i.w	$r11,-285757(0xba3c3)
1c0094ec:	02ad8d6b 	addi.w	$r11,$r11,-1181(0xb63)
1c0094f0:	0015b58a 	xor	$r10,$r12,$r13
1c0094f4:	5c014d4b 	bne	$r10,$r11,332(0x14c) # 1c009640 <inst_error>
1c0094f8:	143d8f6c 	lu12i.w	$r12,126075(0x1ec7b)
1c0094fc:	02b9c18c 	addi.w	$r12,$r12,-400(0xe70)
1c009500:	146b8ded 	lu12i.w	$r13,220271(0x35c6f)
1c009504:	02a469ad 	addi.w	$r13,$r13,-1766(0x91a)
1c009508:	1456028b 	lu12i.w	$r11,176148(0x2b014)
1c00950c:	029da96b 	addi.w	$r11,$r11,1898(0x76a)
1c009510:	0015b58a 	xor	$r10,$r12,$r13
1c009514:	5c012d4b 	bne	$r10,$r11,300(0x12c) # 1c009640 <inst_error>
1c009518:	149b528c 	lu12i.w	$r12,318100(0x4da94)
1c00951c:	02ad798c 	addi.w	$r12,$r12,-1186(0xb5e)
1c009520:	15d9c6ed 	lu12i.w	$r13,-78281(0xece37)
1c009524:	02b811ad 	addi.w	$r13,$r13,-508(0xe04)
1c009528:	154294ab 	lu12i.w	$r11,-387931(0xa14a5)
1c00952c:	0295696b 	addi.w	$r11,$r11,1370(0x55a)
1c009530:	0015b58a 	xor	$r10,$r12,$r13
1c009534:	5c010d4b 	bne	$r10,$r11,268(0x10c) # 1c009640 <inst_error>
1c009538:	1584e44c 	lu12i.w	$r12,-252126(0xc2722)
1c00953c:	02b1ed8c 	addi.w	$r12,$r12,-901(0xc7b)
1c009540:	1468a76d 	lu12i.w	$r13,214331(0x3453b)
1c009544:	028cb9ad 	addi.w	$r13,$r13,814(0x32e)
1c009548:	15ec436b 	lu12i.w	$r11,-40421(0xf621b)
1c00954c:	02bd556b 	addi.w	$r11,$r11,-171(0xf55)
1c009550:	0015b58a 	xor	$r10,$r12,$r13
1c009554:	5c00ed4b 	bne	$r10,$r11,236(0xec) # 1c009640 <inst_error>
1c009558:	155ef42c 	lu12i.w	$r12,-329823(0xaf7a1)
1c00955c:	028b618c 	addi.w	$r12,$r12,728(0x2d8)
1c009560:	1480420d 	lu12i.w	$r13,262672(0x40210)
1c009564:	028231ad 	addi.w	$r13,$r13,140(0x8c)
1c009568:	15deb62b 	lu12i.w	$r11,-68175(0xef5b1)
1c00956c:	0289516b 	addi.w	$r11,$r11,596(0x254)
1c009570:	0015b58a 	xor	$r10,$r12,$r13
1c009574:	5c00cd4b 	bne	$r10,$r11,204(0xcc) # 1c009640 <inst_error>
1c009578:	1436b3ec 	lu12i.w	$r12,112031(0x1b59f)
1c00957c:	02b7c18c 	addi.w	$r12,$r12,-528(0xdf0)
1c009580:	1595f82d 	lu12i.w	$r13,-217151(0xcafc1)
1c009584:	029d51ad 	addi.w	$r13,$r13,1876(0x754)
1c009588:	15a34c0b 	lu12i.w	$r11,-189856(0xd1a60)
1c00958c:	02aa916b 	addi.w	$r11,$r11,-1372(0xaa4)
1c009590:	0015b58a 	xor	$r10,$r12,$r13
1c009594:	5c00ad4b 	bne	$r10,$r11,172(0xac) # 1c009640 <inst_error>
1c009598:	15cf7aec 	lu12i.w	$r12,-99369(0xe7bd7)
1c00959c:	029d498c 	addi.w	$r12,$r12,1874(0x752)
1c0095a0:	15fe3a0d 	lu12i.w	$r13,-3632(0xff1d0)
1c0095a4:	028ae1ad 	addi.w	$r13,$r13,696(0x2b8)
1c0095a8:	143140eb 	lu12i.w	$r11,100871(0x18a07)
1c0095ac:	0297a96b 	addi.w	$r11,$r11,1514(0x5ea)
1c0095b0:	0015b58a 	xor	$r10,$r12,$r13
1c0095b4:	5c008d4b 	bne	$r10,$r11,140(0x8c) # 1c009640 <inst_error>
1c0095b8:	14fc254c 	lu12i.w	$r12,516394(0x7e12a)
1c0095bc:	028ff18c 	addi.w	$r12,$r12,1020(0x3fc)
1c0095c0:	14eb77ad 	lu12i.w	$r13,482237(0x75bbd)
1c0095c4:	02a79dad 	addi.w	$r13,$r13,-1561(0x9e7)
1c0095c8:	141752eb 	lu12i.w	$r11,47767(0xba97)
1c0095cc:	02a86d6b 	addi.w	$r11,$r11,-1509(0xa1b)
1c0095d0:	0015b58a 	xor	$r10,$r12,$r13
1c0095d4:	5c006d4b 	bne	$r10,$r11,108(0x6c) # 1c009640 <inst_error>
1c0095d8:	152ceacc 	lu12i.w	$r12,-432298(0x96756)
1c0095dc:	0296018c 	addi.w	$r12,$r12,1408(0x580)
1c0095e0:	15a999cd 	lu12i.w	$r13,-176946(0xd4cce)
1c0095e4:	02a581ad 	addi.w	$r13,$r13,-1696(0x960)
1c0095e8:	1485738b 	lu12i.w	$r11,273308(0x42b9c)
1c0095ec:	02b3816b 	addi.w	$r11,$r11,-800(0xce0)
1c0095f0:	0015b58a 	xor	$r10,$r12,$r13
1c0095f4:	5c004d4b 	bne	$r10,$r11,76(0x4c) # 1c009640 <inst_error>
1c0095f8:	15a2210c 	lu12i.w	$r12,-192248(0xd1108)
1c0095fc:	02a3018c 	addi.w	$r12,$r12,-1856(0x8c0)
1c009600:	15a5e8cd 	lu12i.w	$r13,-184506(0xd2f46)
1c009604:	02b081ad 	addi.w	$r13,$r13,-992(0xc20)
1c009608:	1407c84b 	lu12i.w	$r11,15938(0x3e42)
1c00960c:	0293816b 	addi.w	$r11,$r11,1248(0x4e0)
1c009610:	0015b58a 	xor	$r10,$r12,$r13
1c009614:	5c002d4b 	bne	$r10,$r11,44(0x2c) # 1c009640 <inst_error>
1c009618:	1400000c 	lu12i.w	$r12,0
1c00961c:	0280018c 	addi.w	$r12,$r12,0
1c009620:	1400000d 	lu12i.w	$r13,0
1c009624:	028001ad 	addi.w	$r13,$r13,0
1c009628:	1400000b 	lu12i.w	$r11,0
1c00962c:	0280016b 	addi.w	$r11,$r11,0
1c009630:	0015b58a 	xor	$r10,$r12,$r13
1c009634:	5c000d4b 	bne	$r10,$r11,12(0xc) # 1c009640 <inst_error>
1c009638:	5c000b20 	bne	$r25,$r0,8(0x8) # 1c009640 <inst_error>
1c00963c:	0280075a 	addi.w	$r26,$r26,1(0x1)

1c009640 <inst_error>:
1c009640:	0040e2ed 	slli.w	$r13,$r23,0x18
1c009644:	001569ac 	or	$r12,$r13,$r26
1c009648:	2980030c 	st.w	$r12,$r24,0
1c00964c:	4c000020 	jirl	$r0,$r1,0

1c009650 <n11_slli_w_test>:
n11_slli_w_test():
1c009650:	028006f7 	addi.w	$r23,$r23,1(0x1)
1c009654:	00150019 	move	$r25,$r0
1c009658:	148f32ac 	lu12i.w	$r12,293269(0x47995)
1c00965c:	02b9798c 	addi.w	$r12,$r12,-418(0xe5e)
1c009660:	151e654b 	lu12i.w	$r11,-462038(0x8f32a)
1c009664:	02b2f16b 	addi.w	$r11,$r11,-836(0xcbc)
1c009668:	0040858a 	slli.w	$r10,$r12,0x1
1c00966c:	5c06254b 	bne	$r10,$r11,1572(0x624) # 1c009c90 <inst_error>
1c009670:	1490558c 	lu12i.w	$r12,295596(0x482ac)
1c009674:	0295e18c 	addi.w	$r12,$r12,1400(0x578)
1c009678:	14ab15eb 	lu12i.w	$r11,350383(0x558af)
1c00967c:	0280016b 	addi.w	$r11,$r11,0
1c009680:	0040a58a 	slli.w	$r10,$r12,0x9
1c009684:	5c060d4b 	bne	$r10,$r11,1548(0x60c) # 1c009c90 <inst_error>
1c009688:	14e8322c 	lu12i.w	$r12,475537(0x74191)
1c00968c:	02a4698c 	addi.w	$r12,$r12,-1766(0x91a)
1c009690:	159091ab 	lu12i.w	$r11,-228211(0xc848d)
1c009694:	0280016b 	addi.w	$r11,$r11,0
1c009698:	0040ad8a 	slli.w	$r10,$r12,0xb
1c00969c:	5c05f54b 	bne	$r10,$r11,1524(0x5f4) # 1c009c90 <inst_error>
1c0096a0:	1574cb6c 	lu12i.w	$r12,-285093(0xba65b)
1c0096a4:	02b5c98c 	addi.w	$r12,$r12,-654(0xd72)
1c0096a8:	15a65aeb 	lu12i.w	$r11,-183593(0xd32d7)
1c0096ac:	02ae416b 	addi.w	$r11,$r11,-1136(0xb90)
1c0096b0:	00408d8a 	slli.w	$r10,$r12,0x3
1c0096b4:	5c05dd4b 	bne	$r10,$r11,1500(0x5dc) # 1c009c90 <inst_error>
1c0096b8:	14a14bec 	lu12i.w	$r12,330335(0x50a5f)
1c0096bc:	029e018c 	addi.w	$r12,$r12,1920(0x780)
1c0096c0:	1500000b 	lu12i.w	$r11,-524288(0x80000)
1c0096c4:	0280016b 	addi.w	$r11,$r11,0
1c0096c8:	0040e18a 	slli.w	$r10,$r12,0x18
1c0096cc:	5c05c54b 	bne	$r10,$r11,1476(0x5c4) # 1c009c90 <inst_error>
1c0096d0:	14e71a6c 	lu12i.w	$r12,473299(0x738d3)
1c0096d4:	02a1c58c 	addi.w	$r12,$r12,-1935(0x871)
1c0096d8:	1528710b 	lu12i.w	$r11,-441464(0x94388)
1c0096dc:	0280016b 	addi.w	$r11,$r11,0
1c0096e0:	0040bd8a 	slli.w	$r10,$r12,0xf
1c0096e4:	5c05ad4b 	bne	$r10,$r11,1452(0x5ac) # 1c009c90 <inst_error>
1c0096e8:	14aadf6c 	lu12i.w	$r12,349947(0x556fb)
1c0096ec:	02bc018c 	addi.w	$r12,$r12,-256(0xf00)
1c0096f0:	155e000b 	lu12i.w	$r11,-331776(0xaf000)
1c0096f4:	0280016b 	addi.w	$r11,$r11,0
1c0096f8:	0040c18a 	slli.w	$r10,$r12,0x10
1c0096fc:	5c05954b 	bne	$r10,$r11,1428(0x594) # 1c009c90 <inst_error>
1c009700:	14600a6c 	lu12i.w	$r12,196691(0x30053)
1c009704:	0297598c 	addi.w	$r12,$r12,1494(0x5d6)
1c009708:	140a6bab 	lu12i.w	$r11,21341(0x535d)
1c00970c:	0298016b 	addi.w	$r11,$r11,1536(0x600)
1c009710:	0040a18a 	slli.w	$r10,$r12,0x8
1c009714:	5c057d4b 	bne	$r10,$r11,1404(0x57c) # 1c009c90 <inst_error>
1c009718:	1449d84c 	lu12i.w	$r12,151234(0x24ec2)
1c00971c:	0296418c 	addi.w	$r12,$r12,1424(0x590)
1c009720:	144ec26b 	lu12i.w	$r11,161299(0x27613)
1c009724:	02b2016b 	addi.w	$r11,$r11,-896(0xc80)
1c009728:	00408d8a 	slli.w	$r10,$r12,0x3
1c00972c:	5c05654b 	bne	$r10,$r11,1380(0x564) # 1c009c90 <inst_error>
1c009730:	15c7968c 	lu12i.w	$r12,-115532(0xe3cb4)
1c009734:	02a9618c 	addi.w	$r12,$r12,-1448(0xa58)
1c009738:	15674b0b 	lu12i.w	$r11,-312744(0xb3a58)
1c00973c:	0280016b 	addi.w	$r11,$r11,0
1c009740:	0040b18a 	slli.w	$r10,$r12,0xc
1c009744:	5c054d4b 	bne	$r10,$r11,1356(0x54c) # 1c009c90 <inst_error>
1c009748:	15441a2c 	lu12i.w	$r12,-384815(0xa20d1)
1c00974c:	02ac418c 	addi.w	$r12,$r12,-1264(0xb10)
1c009750:	148342cb 	lu12i.w	$r11,268822(0x41a16)
1c009754:	0288016b 	addi.w	$r11,$r11,512(0x200)
1c009758:	0040958a 	slli.w	$r10,$r12,0x5
1c00975c:	5c05354b 	bne	$r10,$r11,1332(0x534) # 1c009c90 <inst_error>
1c009760:	144c7f8c 	lu12i.w	$r12,156668(0x263fc)
1c009764:	0295818c 	addi.w	$r12,$r12,1376(0x560)
1c009768:	158ff16b 	lu12i.w	$r11,-229493(0xc7f8b)
1c00976c:	02b0016b 	addi.w	$r11,$r11,-1024(0xc00)
1c009770:	0040958a 	slli.w	$r10,$r12,0x5
1c009774:	5c051d4b 	bne	$r10,$r11,1308(0x51c) # 1c009c90 <inst_error>
1c009778:	1562b94c 	lu12i.w	$r12,-322102(0xb15ca)
1c00977c:	02bc418c 	addi.w	$r12,$r12,-240(0xf10)
1c009780:	1400000b 	lu12i.w	$r11,0
1c009784:	0280016b 	addi.w	$r11,$r11,0
1c009788:	0040f18a 	slli.w	$r10,$r12,0x1c
1c00978c:	5c05054b 	bne	$r10,$r11,1284(0x504) # 1c009c90 <inst_error>
1c009790:	149caeec 	lu12i.w	$r12,320887(0x4e577)
1c009794:	02b7c18c 	addi.w	$r12,$r12,-528(0xdf0)
1c009798:	1400000b 	lu12i.w	$r11,0
1c00979c:	0280016b 	addi.w	$r11,$r11,0
1c0097a0:	0040f58a 	slli.w	$r10,$r12,0x1d
1c0097a4:	5c04ed4b 	bne	$r10,$r11,1260(0x4ec) # 1c009c90 <inst_error>
1c0097a8:	14f5b4ac 	lu12i.w	$r12,503205(0x7ada5)
1c0097ac:	02b6018c 	addi.w	$r12,$r12,-640(0xd80)
1c0097b0:	156d26cb 	lu12i.w	$r11,-300746(0xb6936)
1c0097b4:	0280016b 	addi.w	$r11,$r11,0
1c0097b8:	0040998a 	slli.w	$r10,$r12,0x6
1c0097bc:	5c04d54b 	bne	$r10,$r11,1236(0x4d4) # 1c009c90 <inst_error>
1c0097c0:	14efa60c 	lu12i.w	$r12,490800(0x77d30)
1c0097c4:	0286218c 	addi.w	$r12,$r12,392(0x188)
1c0097c8:	1420000b 	lu12i.w	$r11,65536(0x10000)
1c0097cc:	0280016b 	addi.w	$r11,$r11,0
1c0097d0:	0040e58a 	slli.w	$r10,$r12,0x19
1c0097d4:	5c04bd4b 	bne	$r10,$r11,1212(0x4bc) # 1c009c90 <inst_error>
1c0097d8:	15fb352c 	lu12i.w	$r12,-9815(0xfd9a9)
1c0097dc:	02aa418c 	addi.w	$r12,$r12,-1392(0xa90)
1c0097e0:	15a8a90b 	lu12i.w	$r11,-178872(0xd4548)
1c0097e4:	0280016b 	addi.w	$r11,$r11,0
1c0097e8:	0040ad8a 	slli.w	$r10,$r12,0xb
1c0097ec:	5c04a54b 	bne	$r10,$r11,1188(0x4a4) # 1c009c90 <inst_error>
1c0097f0:	15972e8c 	lu12i.w	$r12,-214668(0xcb974)
1c0097f4:	02a2418c 	addi.w	$r12,$r12,-1904(0x890)
1c0097f8:	159738ab 	lu12i.w	$r11,-214587(0xcb9c5)
1c0097fc:	02a0016b 	addi.w	$r11,$r11,-2048(0x800)
1c009800:	00409d8a 	slli.w	$r10,$r12,0x7
1c009804:	5c048d4b 	bne	$r10,$r11,1164(0x48c) # 1c009c90 <inst_error>
1c009808:	159b9f6c 	lu12i.w	$r12,-205573(0xcdcfb)
1c00980c:	0280018c 	addi.w	$r12,$r12,0
1c009810:	1400000b 	lu12i.w	$r11,0
1c009814:	0280016b 	addi.w	$r11,$r11,0
1c009818:	0040dd8a 	slli.w	$r10,$r12,0x17
1c00981c:	5c04754b 	bne	$r10,$r11,1140(0x474) # 1c009c90 <inst_error>
1c009820:	1598686c 	lu12i.w	$r12,-212157(0xcc343)
1c009824:	029e098c 	addi.w	$r12,$r12,1922(0x782)
1c009828:	1578200b 	lu12i.w	$r11,-278272(0xbc100)
1c00982c:	0280016b 	addi.w	$r11,$r11,0
1c009830:	0040cd8a 	slli.w	$r10,$r12,0x13
1c009834:	5c045d4b 	bne	$r10,$r11,1116(0x45c) # 1c009c90 <inst_error>
1c009838:	15af170c 	lu12i.w	$r12,-165704(0xd78b8)
1c00983c:	02b4018c 	addi.w	$r12,$r12,-768(0xd00)
1c009840:	15be800b 	lu12i.w	$r11,-134144(0xdf400)
1c009844:	0280016b 	addi.w	$r11,$r11,0
1c009848:	0040b98a 	slli.w	$r10,$r12,0xe
1c00984c:	5c04454b 	bne	$r10,$r11,1092(0x444) # 1c009c90 <inst_error>
1c009850:	14343e6c 	lu12i.w	$r12,106995(0x1a1f3)
1c009854:	02a3398c 	addi.w	$r12,$r12,-1842(0x8ce)
1c009858:	14f9468b 	lu12i.w	$r11,510516(0x7ca34)
1c00985c:	02a0016b 	addi.w	$r11,$r11,-2048(0x800)
1c009860:	0040a98a 	slli.w	$r10,$r12,0xa
1c009864:	5c042d4b 	bne	$r10,$r11,1068(0x42c) # 1c009c90 <inst_error>
1c009868:	153f618c 	lu12i.w	$r12,-394484(0x9fb0c)
1c00986c:	0297d98c 	addi.w	$r12,$r12,1526(0x5f6)
1c009870:	14bec00b 	lu12i.w	$r11,390656(0x5f600)
1c009874:	0280016b 	addi.w	$r11,$r11,0
1c009878:	0040d18a 	slli.w	$r10,$r12,0x14
1c00987c:	5c04154b 	bne	$r10,$r11,1044(0x414) # 1c009c90 <inst_error>
1c009880:	15ee00cc 	lu12i.w	$r12,-36858(0xf7006)
1c009884:	02a3418c 	addi.w	$r12,$r12,-1840(0x8d0)
1c009888:	1400000b 	lu12i.w	$r11,0
1c00988c:	0280016b 	addi.w	$r11,$r11,0
1c009890:	0040f98a 	slli.w	$r10,$r12,0x1e
1c009894:	5c03fd4b 	bne	$r10,$r11,1020(0x3fc) # 1c009c90 <inst_error>
1c009898:	147819ac 	lu12i.w	$r12,245965(0x3c0cd)
1c00989c:	029eb98c 	addi.w	$r12,$r12,1966(0x7ae)
1c0098a0:	14b8000b 	lu12i.w	$r11,376832(0x5c000)
1c0098a4:	0280016b 	addi.w	$r11,$r11,0
1c0098a8:	0040e58a 	slli.w	$r10,$r12,0x19
1c0098ac:	5c03e54b 	bne	$r10,$r11,996(0x3e4) # 1c009c90 <inst_error>
1c0098b0:	15e99c2c 	lu12i.w	$r12,-45855(0xf4ce1)
1c0098b4:	029e698c 	addi.w	$r12,$r12,1946(0x79a)
1c0098b8:	15c2f34b 	lu12i.w	$r11,-125030(0xe179a)
1c0098bc:	0280016b 	addi.w	$r11,$r11,0
1c0098c0:	0040b18a 	slli.w	$r10,$r12,0xc
1c0098c4:	5c03cd4b 	bne	$r10,$r11,972(0x3cc) # 1c009c90 <inst_error>
1c0098c8:	148d1cec 	lu12i.w	$r12,288999(0x468e7)
1c0098cc:	02ac718c 	addi.w	$r12,$r12,-1252(0xb1c)
1c0098d0:	1400000b 	lu12i.w	$r11,0
1c0098d4:	0280016b 	addi.w	$r11,$r11,0
1c0098d8:	0040fd8a 	slli.w	$r10,$r12,0x1f
1c0098dc:	5c03b54b 	bne	$r10,$r11,948(0x3b4) # 1c009c90 <inst_error>
1c0098e0:	154ccacc 	lu12i.w	$r12,-367018(0xa6656)
1c0098e4:	029a618c 	addi.w	$r12,$r12,1688(0x698)
1c0098e8:	14acd30b 	lu12i.w	$r11,353944(0x56698)
1c0098ec:	0280016b 	addi.w	$r11,$r11,0
1c0098f0:	0040b18a 	slli.w	$r10,$r12,0xc
1c0098f4:	5c039d4b 	bne	$r10,$r11,924(0x39c) # 1c009c90 <inst_error>
1c0098f8:	15b1132c 	lu12i.w	$r12,-161639(0xd8899)
1c0098fc:	0288b18c 	addi.w	$r12,$r12,556(0x22c)
1c009900:	14c44cab 	lu12i.w	$r11,402021(0x62265)
1c009904:	02a2c16b 	addi.w	$r11,$r11,-1872(0x8b0)
1c009908:	0040898a 	slli.w	$r10,$r12,0x2
1c00990c:	5c03854b 	bne	$r10,$r11,900(0x384) # 1c009c90 <inst_error>
1c009910:	153f1d4c 	lu12i.w	$r12,-395030(0x9f8ea)
1c009914:	02a7c18c 	addi.w	$r12,$r12,-1552(0x9f0)
1c009918:	1499f00b 	lu12i.w	$r11,315264(0x4cf80)
1c00991c:	0280016b 	addi.w	$r11,$r11,0
1c009920:	0040bd8a 	slli.w	$r10,$r12,0xf
1c009924:	5c036d4b 	bne	$r10,$r11,876(0x36c) # 1c009c90 <inst_error>
1c009928:	14b9982c 	lu12i.w	$r12,380097(0x5ccc1)
1c00992c:	0294318c 	addi.w	$r12,$r12,1292(0x50c)
1c009930:	1543000b 	lu12i.w	$r11,-387072(0xa1800)
1c009934:	0280016b 	addi.w	$r11,$r11,0
1c009938:	0040d58a 	slli.w	$r10,$r12,0x15
1c00993c:	5c03554b 	bne	$r10,$r11,852(0x354) # 1c009c90 <inst_error>
1c009940:	14b4b8ec 	lu12i.w	$r12,370119(0x5a5c7)
1c009944:	02a81d8c 	addi.w	$r12,$r12,-1529(0xa07)
1c009948:	1407000b 	lu12i.w	$r11,14336(0x3800)
1c00994c:	0280016b 	addi.w	$r11,$r11,0
1c009950:	0040dd8a 	slli.w	$r10,$r12,0x17
1c009954:	5c033d4b 	bne	$r10,$r11,828(0x33c) # 1c009c90 <inst_error>
1c009958:	147deeac 	lu12i.w	$r12,257909(0x3ef75)
1c00995c:	0299c98c 	addi.w	$r12,$r12,1650(0x672)
1c009960:	1559c80b 	lu12i.w	$r11,-340416(0xace40)
1c009964:	0280016b 	addi.w	$r11,$r11,0
1c009968:	0040c58a 	slli.w	$r10,$r12,0x11
1c00996c:	5c03254b 	bne	$r10,$r11,804(0x324) # 1c009c90 <inst_error>
1c009970:	144ab8ec 	lu12i.w	$r12,153031(0x255c7)
1c009974:	0283718c 	addi.w	$r12,$r12,220(0xdc)
1c009978:	1437000b 	lu12i.w	$r11,112640(0x1b800)
1c00997c:	0280016b 	addi.w	$r11,$r11,0
1c009980:	0040d58a 	slli.w	$r10,$r12,0x15
1c009984:	5c030d4b 	bne	$r10,$r11,780(0x30c) # 1c009c90 <inst_error>
1c009988:	14094f2c 	lu12i.w	$r12,19065(0x4a79)
1c00998c:	02a3c18c 	addi.w	$r12,$r12,-1808(0x8f0)
1c009990:	148f000b 	lu12i.w	$r11,292864(0x47800)
1c009994:	0280016b 	addi.w	$r11,$r11,0
1c009998:	0040cd8a 	slli.w	$r10,$r12,0x13
1c00999c:	5c02f54b 	bne	$r10,$r11,756(0x2f4) # 1c009c90 <inst_error>
1c0099a0:	145e3ecc 	lu12i.w	$r12,193014(0x2f1f6)
1c0099a4:	02a1018c 	addi.w	$r12,$r12,-1984(0x840)
1c0099a8:	1561000b 	lu12i.w	$r11,-325632(0xb0800)
1c0099ac:	0280016b 	addi.w	$r11,$r11,0
1c0099b0:	0040c58a 	slli.w	$r10,$r12,0x11
1c0099b4:	5c02dd4b 	bne	$r10,$r11,732(0x2dc) # 1c009c90 <inst_error>
1c0099b8:	15b357ec 	lu12i.w	$r12,-156993(0xd9abf)
1c0099bc:	0287718c 	addi.w	$r12,$r12,476(0x1dc)
1c0099c0:	15c0000b 	lu12i.w	$r11,-131072(0xe0000)
1c0099c4:	0280016b 	addi.w	$r11,$r11,0
1c0099c8:	0040ed8a 	slli.w	$r10,$r12,0x1b
1c0099cc:	5c02c54b 	bne	$r10,$r11,708(0x2c4) # 1c009c90 <inst_error>
1c0099d0:	15544f8c 	lu12i.w	$r12,-351620(0xaa27c)
1c0099d4:	02ba098c 	addi.w	$r12,$r12,-382(0xe82)
1c0099d8:	1408000b 	lu12i.w	$r11,16384(0x4000)
1c0099dc:	0280016b 	addi.w	$r11,$r11,0
1c0099e0:	0040e58a 	slli.w	$r10,$r12,0x19
1c0099e4:	5c02ad4b 	bne	$r10,$r11,684(0x2ac) # 1c009c90 <inst_error>
1c0099e8:	1538b96c 	lu12i.w	$r12,-408117(0x9c5cb)
1c0099ec:	0289e18c 	addi.w	$r12,$r12,632(0x278)
1c0099f0:	158b964b 	lu12i.w	$r11,-238414(0xc5cb2)
1c0099f4:	029e016b 	addi.w	$r11,$r11,1920(0x780)
1c0099f8:	0040918a 	slli.w	$r10,$r12,0x4
1c0099fc:	5c02954b 	bne	$r10,$r11,660(0x294) # 1c009c90 <inst_error>
1c009a00:	14afa4cc 	lu12i.w	$r12,359718(0x57d26)
1c009a04:	02a8e18c 	addi.w	$r12,$r12,-1480(0xa38)
1c009a08:	1500000b 	lu12i.w	$r11,-524288(0x80000)
1c009a0c:	0280016b 	addi.w	$r11,$r11,0
1c009a10:	0040f18a 	slli.w	$r10,$r12,0x1c
1c009a14:	5c027d4b 	bne	$r10,$r11,636(0x27c) # 1c009c90 <inst_error>
1c009a18:	149ff72c 	lu12i.w	$r12,327609(0x4ffb9)
1c009a1c:	028fb18c 	addi.w	$r12,$r12,1004(0x3ec)
1c009a20:	14ffb94b 	lu12i.w	$r11,523722(0x7fdca)
1c009a24:	02bd816b 	addi.w	$r11,$r11,-160(0xf60)
1c009a28:	00408d8a 	slli.w	$r10,$r12,0x3
1c009a2c:	5c02654b 	bne	$r10,$r11,612(0x264) # 1c009c90 <inst_error>
1c009a30:	14cf73cc 	lu12i.w	$r12,424862(0x67b9e)
1c009a34:	028bc18c 	addi.w	$r12,$r12,752(0x2f0)
1c009a38:	14bc000b 	lu12i.w	$r11,385024(0x5e000)
1c009a3c:	0280016b 	addi.w	$r11,$r11,0
1c009a40:	0040d58a 	slli.w	$r10,$r12,0x15
1c009a44:	5c024d4b 	bne	$r10,$r11,588(0x24c) # 1c009c90 <inst_error>
1c009a48:	144b136c 	lu12i.w	$r12,153755(0x2589b)
1c009a4c:	0290218c 	addi.w	$r12,$r12,1032(0x408)
1c009a50:	1404000b 	lu12i.w	$r11,8192(0x2000)
1c009a54:	0280016b 	addi.w	$r11,$r11,0
1c009a58:	0040d98a 	slli.w	$r10,$r12,0x16
1c009a5c:	5c02354b 	bne	$r10,$r11,564(0x234) # 1c009c90 <inst_error>
1c009a60:	152aa70c 	lu12i.w	$r12,-436936(0x95538)
1c009a64:	02b1118c 	addi.w	$r12,$r12,-956(0xc44)
1c009a68:	14a9be2b 	lu12i.w	$r11,347633(0x54df1)
1c009a6c:	0284016b 	addi.w	$r11,$r11,256(0x100)
1c009a70:	0040998a 	slli.w	$r10,$r12,0x6
1c009a74:	5c021d4b 	bne	$r10,$r11,540(0x21c) # 1c009c90 <inst_error>
1c009a78:	14738ecc 	lu12i.w	$r12,236662(0x39c76)
1c009a7c:	029ce98c 	addi.w	$r12,$r12,1850(0x73a)
1c009a80:	14738ecb 	lu12i.w	$r11,236662(0x39c76)
1c009a84:	029ce96b 	addi.w	$r11,$r11,1850(0x73a)
1c009a88:	0040818a 	slli.w	$r10,$r12,0x0
1c009a8c:	5c02054b 	bne	$r10,$r11,516(0x204) # 1c009c90 <inst_error>
1c009a90:	15b3184c 	lu12i.w	$r12,-157502(0xd98c2)
1c009a94:	02bb818c 	addi.w	$r12,$r12,-288(0xee0)
1c009a98:	15b3184b 	lu12i.w	$r11,-157502(0xd98c2)
1c009a9c:	02bb816b 	addi.w	$r11,$r11,-288(0xee0)
1c009aa0:	0040818a 	slli.w	$r10,$r12,0x0
1c009aa4:	5c01ed4b 	bne	$r10,$r11,492(0x1ec) # 1c009c90 <inst_error>
1c009aa8:	15ef7aac 	lu12i.w	$r12,-33835(0xf7bd5)
1c009aac:	02a3998c 	addi.w	$r12,$r12,-1818(0x8e6)
1c009ab0:	15ef7aab 	lu12i.w	$r11,-33835(0xf7bd5)
1c009ab4:	02a3996b 	addi.w	$r11,$r11,-1818(0x8e6)
1c009ab8:	0040818a 	slli.w	$r10,$r12,0x0
1c009abc:	5c01d54b 	bne	$r10,$r11,468(0x1d4) # 1c009c90 <inst_error>
1c009ac0:	1455142c 	lu12i.w	$r12,174241(0x2a8a1)
1c009ac4:	0285018c 	addi.w	$r12,$r12,320(0x140)
1c009ac8:	1455142b 	lu12i.w	$r11,174241(0x2a8a1)
1c009acc:	0285016b 	addi.w	$r11,$r11,320(0x140)
1c009ad0:	0040818a 	slli.w	$r10,$r12,0x0
1c009ad4:	5c01bd4b 	bne	$r10,$r11,444(0x1bc) # 1c009c90 <inst_error>
1c009ad8:	14e7210c 	lu12i.w	$r12,473352(0x73908)
1c009adc:	0291618c 	addi.w	$r12,$r12,1112(0x458)
1c009ae0:	14e7210b 	lu12i.w	$r11,473352(0x73908)
1c009ae4:	0291616b 	addi.w	$r11,$r11,1112(0x458)
1c009ae8:	0040818a 	slli.w	$r10,$r12,0x0
1c009aec:	5c01a54b 	bne	$r10,$r11,420(0x1a4) # 1c009c90 <inst_error>
1c009af0:	15a8e12c 	lu12i.w	$r12,-178423(0xd4709)
1c009af4:	028d418c 	addi.w	$r12,$r12,848(0x350)
1c009af8:	15a8e12b 	lu12i.w	$r11,-178423(0xd4709)
1c009afc:	028d416b 	addi.w	$r11,$r11,848(0x350)
1c009b00:	0040818a 	slli.w	$r10,$r12,0x0
1c009b04:	5c018d4b 	bne	$r10,$r11,396(0x18c) # 1c009c90 <inst_error>
1c009b08:	14bacfec 	lu12i.w	$r12,382591(0x5d67f)
1c009b0c:	02ba018c 	addi.w	$r12,$r12,-384(0xe80)
1c009b10:	14bacfeb 	lu12i.w	$r11,382591(0x5d67f)
1c009b14:	02ba016b 	addi.w	$r11,$r11,-384(0xe80)
1c009b18:	0040818a 	slli.w	$r10,$r12,0x0
1c009b1c:	5c01754b 	bne	$r10,$r11,372(0x174) # 1c009c90 <inst_error>
1c009b20:	1472544c 	lu12i.w	$r12,234146(0x392a2)
1c009b24:	0292818c 	addi.w	$r12,$r12,1184(0x4a0)
1c009b28:	1472544b 	lu12i.w	$r11,234146(0x392a2)
1c009b2c:	0292816b 	addi.w	$r11,$r11,1184(0x4a0)
1c009b30:	0040818a 	slli.w	$r10,$r12,0x0
1c009b34:	5c015d4b 	bne	$r10,$r11,348(0x15c) # 1c009c90 <inst_error>
1c009b38:	142bfecc 	lu12i.w	$r12,90102(0x15ff6)
1c009b3c:	02bb658c 	addi.w	$r12,$r12,-295(0xed9)
1c009b40:	142bfecb 	lu12i.w	$r11,90102(0x15ff6)
1c009b44:	02bb656b 	addi.w	$r11,$r11,-295(0xed9)
1c009b48:	0040818a 	slli.w	$r10,$r12,0x0
1c009b4c:	5c01454b 	bne	$r10,$r11,324(0x144) # 1c009c90 <inst_error>
1c009b50:	147c3fac 	lu12i.w	$r12,254461(0x3e1fd)
1c009b54:	0288658c 	addi.w	$r12,$r12,537(0x219)
1c009b58:	147c3fab 	lu12i.w	$r11,254461(0x3e1fd)
1c009b5c:	0288656b 	addi.w	$r11,$r11,537(0x219)
1c009b60:	0040818a 	slli.w	$r10,$r12,0x0
1c009b64:	5c012d4b 	bne	$r10,$r11,300(0x12c) # 1c009c90 <inst_error>
1c009b68:	1536f34c 	lu12i.w	$r12,-411750(0x9b79a)
1c009b6c:	028ba18c 	addi.w	$r12,$r12,744(0x2e8)
1c009b70:	1536f34b 	lu12i.w	$r11,-411750(0x9b79a)
1c009b74:	028ba16b 	addi.w	$r11,$r11,744(0x2e8)
1c009b78:	0040818a 	slli.w	$r10,$r12,0x0
1c009b7c:	5c01154b 	bne	$r10,$r11,276(0x114) # 1c009c90 <inst_error>
1c009b80:	1437292c 	lu12i.w	$r12,112969(0x1b949)
1c009b84:	0298b18c 	addi.w	$r12,$r12,1580(0x62c)
1c009b88:	1437292b 	lu12i.w	$r11,112969(0x1b949)
1c009b8c:	0298b16b 	addi.w	$r11,$r11,1580(0x62c)
1c009b90:	0040818a 	slli.w	$r10,$r12,0x0
1c009b94:	5c00fd4b 	bne	$r10,$r11,252(0xfc) # 1c009c90 <inst_error>
1c009b98:	15550b2c 	lu12i.w	$r12,-350119(0xaa859)
1c009b9c:	0291198c 	addi.w	$r12,$r12,1094(0x446)
1c009ba0:	15550b2b 	lu12i.w	$r11,-350119(0xaa859)
1c009ba4:	0291196b 	addi.w	$r11,$r11,1094(0x446)
1c009ba8:	0040818a 	slli.w	$r10,$r12,0x0
1c009bac:	5c00e54b 	bne	$r10,$r11,228(0xe4) # 1c009c90 <inst_error>
1c009bb0:	14067d2c 	lu12i.w	$r12,13289(0x33e9)
1c009bb4:	02b9d18c 	addi.w	$r12,$r12,-396(0xe74)
1c009bb8:	14067d2b 	lu12i.w	$r11,13289(0x33e9)
1c009bbc:	02b9d16b 	addi.w	$r11,$r11,-396(0xe74)
1c009bc0:	0040818a 	slli.w	$r10,$r12,0x0
1c009bc4:	5c00cd4b 	bne	$r10,$r11,204(0xcc) # 1c009c90 <inst_error>
1c009bc8:	149095cc 	lu12i.w	$r12,296110(0x484ae)
1c009bcc:	028af18c 	addi.w	$r12,$r12,700(0x2bc)
1c009bd0:	149095cb 	lu12i.w	$r11,296110(0x484ae)
1c009bd4:	028af16b 	addi.w	$r11,$r11,700(0x2bc)
1c009bd8:	0040818a 	slli.w	$r10,$r12,0x0
1c009bdc:	5c00b54b 	bne	$r10,$r11,180(0xb4) # 1c009c90 <inst_error>
1c009be0:	158e034c 	lu12i.w	$r12,-233446(0xc701a)
1c009be4:	02b7818c 	addi.w	$r12,$r12,-544(0xde0)
1c009be8:	158e034b 	lu12i.w	$r11,-233446(0xc701a)
1c009bec:	02b7816b 	addi.w	$r11,$r11,-544(0xde0)
1c009bf0:	0040818a 	slli.w	$r10,$r12,0x0
1c009bf4:	5c009d4b 	bne	$r10,$r11,156(0x9c) # 1c009c90 <inst_error>
1c009bf8:	15254c6c 	lu12i.w	$r12,-447901(0x92a63)
1c009bfc:	0293798c 	addi.w	$r12,$r12,1246(0x4de)
1c009c00:	15254c6b 	lu12i.w	$r11,-447901(0x92a63)
1c009c04:	0293796b 	addi.w	$r11,$r11,1246(0x4de)
1c009c08:	0040818a 	slli.w	$r10,$r12,0x0
1c009c0c:	5c00854b 	bne	$r10,$r11,132(0x84) # 1c009c90 <inst_error>
1c009c10:	1449204c 	lu12i.w	$r12,149762(0x24902)
1c009c14:	02a3758c 	addi.w	$r12,$r12,-1827(0x8dd)
1c009c18:	1449204b 	lu12i.w	$r11,149762(0x24902)
1c009c1c:	02a3756b 	addi.w	$r11,$r11,-1827(0x8dd)
1c009c20:	0040818a 	slli.w	$r10,$r12,0x0
1c009c24:	5c006d4b 	bne	$r10,$r11,108(0x6c) # 1c009c90 <inst_error>
1c009c28:	1469a58c 	lu12i.w	$r12,216364(0x34d2c)
1c009c2c:	02af118c 	addi.w	$r12,$r12,-1084(0xbc4)
1c009c30:	1469a58b 	lu12i.w	$r11,216364(0x34d2c)
1c009c34:	02af116b 	addi.w	$r11,$r11,-1084(0xbc4)
1c009c38:	0040818a 	slli.w	$r10,$r12,0x0
1c009c3c:	5c00554b 	bne	$r10,$r11,84(0x54) # 1c009c90 <inst_error>
1c009c40:	145ec48c 	lu12i.w	$r12,194084(0x2f624)
1c009c44:	029c318c 	addi.w	$r12,$r12,1804(0x70c)
1c009c48:	145ec48b 	lu12i.w	$r11,194084(0x2f624)
1c009c4c:	029c316b 	addi.w	$r11,$r11,1804(0x70c)
1c009c50:	0040818a 	slli.w	$r10,$r12,0x0
1c009c54:	5c003d4b 	bne	$r10,$r11,60(0x3c) # 1c009c90 <inst_error>
1c009c58:	14fbd28c 	lu12i.w	$r12,515732(0x7de94)
1c009c5c:	02bff98c 	addi.w	$r12,$r12,-2(0xffe)
1c009c60:	14fbd28b 	lu12i.w	$r11,515732(0x7de94)
1c009c64:	02bff96b 	addi.w	$r11,$r11,-2(0xffe)
1c009c68:	0040818a 	slli.w	$r10,$r12,0x0
1c009c6c:	5c00254b 	bne	$r10,$r11,36(0x24) # 1c009c90 <inst_error>
1c009c70:	1400000c 	lu12i.w	$r12,0
1c009c74:	0280018c 	addi.w	$r12,$r12,0
1c009c78:	1400000b 	lu12i.w	$r11,0
1c009c7c:	0280016b 	addi.w	$r11,$r11,0
1c009c80:	0040818a 	slli.w	$r10,$r12,0x0
1c009c84:	5c000d4b 	bne	$r10,$r11,12(0xc) # 1c009c90 <inst_error>
1c009c88:	5c000b20 	bne	$r25,$r0,8(0x8) # 1c009c90 <inst_error>
1c009c8c:	0280075a 	addi.w	$r26,$r26,1(0x1)

1c009c90 <inst_error>:
1c009c90:	0040e2ed 	slli.w	$r13,$r23,0x18
1c009c94:	001569ac 	or	$r12,$r13,$r26
1c009c98:	2980030c 	st.w	$r12,$r24,0
1c009c9c:	4c000020 	jirl	$r0,$r1,0

1c009ca0 <n1_lu12i_w_test>:
n1_lu12i_w_test():
1c009ca0:	028006f7 	addi.w	$r23,$r23,1(0x1)
1c009ca4:	02800019 	addi.w	$r25,$r0,0
1c009ca8:	1400002e 	lu12i.w	$r14,1(0x1)
1c009cac:	0280000d 	addi.w	$r13,$r0,0
1c009cb0:	14000004 	lu12i.w	$r4,0
1c009cb4:	1400000c 	lu12i.w	$r12,0
1c009cb8:	00103484 	add.w	$r4,$r4,$r13
1c009cbc:	001039ad 	add.w	$r13,$r13,$r14
1c009cc0:	5c03c184 	bne	$r12,$r4,960(0x3c0) # 1c00a080 <inst_error>
1c009cc4:	14000004 	lu12i.w	$r4,0
1c009cc8:	1400002c 	lu12i.w	$r12,1(0x1)
1c009ccc:	00103484 	add.w	$r4,$r4,$r13
1c009cd0:	001039ad 	add.w	$r13,$r13,$r14
1c009cd4:	5c03ad84 	bne	$r12,$r4,940(0x3ac) # 1c00a080 <inst_error>
1c009cd8:	14000004 	lu12i.w	$r4,0
1c009cdc:	1400004c 	lu12i.w	$r12,2(0x2)
1c009ce0:	00103484 	add.w	$r4,$r4,$r13
1c009ce4:	001039ad 	add.w	$r13,$r13,$r14
1c009ce8:	5c039984 	bne	$r12,$r4,920(0x398) # 1c00a080 <inst_error>
1c009cec:	14000004 	lu12i.w	$r4,0
1c009cf0:	1400006c 	lu12i.w	$r12,3(0x3)
1c009cf4:	00103484 	add.w	$r4,$r4,$r13
1c009cf8:	001039ad 	add.w	$r13,$r13,$r14
1c009cfc:	5c038584 	bne	$r12,$r4,900(0x384) # 1c00a080 <inst_error>
1c009d00:	14000004 	lu12i.w	$r4,0
1c009d04:	1400008c 	lu12i.w	$r12,4(0x4)
1c009d08:	00103484 	add.w	$r4,$r4,$r13
1c009d0c:	001039ad 	add.w	$r13,$r13,$r14
1c009d10:	5c037184 	bne	$r12,$r4,880(0x370) # 1c00a080 <inst_error>
1c009d14:	14000004 	lu12i.w	$r4,0
1c009d18:	140000ac 	lu12i.w	$r12,5(0x5)
1c009d1c:	00103484 	add.w	$r4,$r4,$r13
1c009d20:	001039ad 	add.w	$r13,$r13,$r14
1c009d24:	5c035d84 	bne	$r12,$r4,860(0x35c) # 1c00a080 <inst_error>
1c009d28:	14000004 	lu12i.w	$r4,0
1c009d2c:	140000cc 	lu12i.w	$r12,6(0x6)
1c009d30:	00103484 	add.w	$r4,$r4,$r13
1c009d34:	001039ad 	add.w	$r13,$r13,$r14
1c009d38:	5c034984 	bne	$r12,$r4,840(0x348) # 1c00a080 <inst_error>
1c009d3c:	14000004 	lu12i.w	$r4,0
1c009d40:	140000ec 	lu12i.w	$r12,7(0x7)
1c009d44:	00103484 	add.w	$r4,$r4,$r13
1c009d48:	001039ad 	add.w	$r13,$r13,$r14
1c009d4c:	5c033584 	bne	$r12,$r4,820(0x334) # 1c00a080 <inst_error>
1c009d50:	14000004 	lu12i.w	$r4,0
1c009d54:	1400010c 	lu12i.w	$r12,8(0x8)
1c009d58:	00103484 	add.w	$r4,$r4,$r13
1c009d5c:	001039ad 	add.w	$r13,$r13,$r14
1c009d60:	5c032184 	bne	$r12,$r4,800(0x320) # 1c00a080 <inst_error>
1c009d64:	14000004 	lu12i.w	$r4,0
1c009d68:	1400012c 	lu12i.w	$r12,9(0x9)
1c009d6c:	00103484 	add.w	$r4,$r4,$r13
1c009d70:	001039ad 	add.w	$r13,$r13,$r14
1c009d74:	5c030d84 	bne	$r12,$r4,780(0x30c) # 1c00a080 <inst_error>
1c009d78:	14000004 	lu12i.w	$r4,0
1c009d7c:	1400014c 	lu12i.w	$r12,10(0xa)
1c009d80:	00103484 	add.w	$r4,$r4,$r13
1c009d84:	001039ad 	add.w	$r13,$r13,$r14
1c009d88:	5c02f984 	bne	$r12,$r4,760(0x2f8) # 1c00a080 <inst_error>
1c009d8c:	14000004 	lu12i.w	$r4,0
1c009d90:	1400016c 	lu12i.w	$r12,11(0xb)
1c009d94:	00103484 	add.w	$r4,$r4,$r13
1c009d98:	001039ad 	add.w	$r13,$r13,$r14
1c009d9c:	5c02e584 	bne	$r12,$r4,740(0x2e4) # 1c00a080 <inst_error>
1c009da0:	14000004 	lu12i.w	$r4,0
1c009da4:	1400018c 	lu12i.w	$r12,12(0xc)
1c009da8:	00103484 	add.w	$r4,$r4,$r13
1c009dac:	001039ad 	add.w	$r13,$r13,$r14
1c009db0:	5c02d184 	bne	$r12,$r4,720(0x2d0) # 1c00a080 <inst_error>
1c009db4:	14000004 	lu12i.w	$r4,0
1c009db8:	140001ac 	lu12i.w	$r12,13(0xd)
1c009dbc:	00103484 	add.w	$r4,$r4,$r13
1c009dc0:	001039ad 	add.w	$r13,$r13,$r14
1c009dc4:	5c02bd84 	bne	$r12,$r4,700(0x2bc) # 1c00a080 <inst_error>
1c009dc8:	14000004 	lu12i.w	$r4,0
1c009dcc:	140001cc 	lu12i.w	$r12,14(0xe)
1c009dd0:	00103484 	add.w	$r4,$r4,$r13
1c009dd4:	001039ad 	add.w	$r13,$r13,$r14
1c009dd8:	5c02a984 	bne	$r12,$r4,680(0x2a8) # 1c00a080 <inst_error>
1c009ddc:	14000004 	lu12i.w	$r4,0
1c009de0:	140001ec 	lu12i.w	$r12,15(0xf)
1c009de4:	00103484 	add.w	$r4,$r4,$r13
1c009de8:	001039ad 	add.w	$r13,$r13,$r14
1c009dec:	5c029584 	bne	$r12,$r4,660(0x294) # 1c00a080 <inst_error>
1c009df0:	0280000d 	addi.w	$r13,$r0,0
1c009df4:	14220204 	lu12i.w	$r4,69648(0x11010)
1c009df8:	1422020c 	lu12i.w	$r12,69648(0x11010)
1c009dfc:	00103484 	add.w	$r4,$r4,$r13
1c009e00:	001039ad 	add.w	$r13,$r13,$r14
1c009e04:	5c027d84 	bne	$r12,$r4,636(0x27c) # 1c00a080 <inst_error>
1c009e08:	14220204 	lu12i.w	$r4,69648(0x11010)
1c009e0c:	1422022c 	lu12i.w	$r12,69649(0x11011)
1c009e10:	00103484 	add.w	$r4,$r4,$r13
1c009e14:	001039ad 	add.w	$r13,$r13,$r14
1c009e18:	5c026984 	bne	$r12,$r4,616(0x268) # 1c00a080 <inst_error>
1c009e1c:	14220204 	lu12i.w	$r4,69648(0x11010)
1c009e20:	1422024c 	lu12i.w	$r12,69650(0x11012)
1c009e24:	00103484 	add.w	$r4,$r4,$r13
1c009e28:	001039ad 	add.w	$r13,$r13,$r14
1c009e2c:	5c025584 	bne	$r12,$r4,596(0x254) # 1c00a080 <inst_error>
1c009e30:	14220204 	lu12i.w	$r4,69648(0x11010)
1c009e34:	1422026c 	lu12i.w	$r12,69651(0x11013)
1c009e38:	00103484 	add.w	$r4,$r4,$r13
1c009e3c:	001039ad 	add.w	$r13,$r13,$r14
1c009e40:	5c024184 	bne	$r12,$r4,576(0x240) # 1c00a080 <inst_error>
1c009e44:	14220204 	lu12i.w	$r4,69648(0x11010)
1c009e48:	1422028c 	lu12i.w	$r12,69652(0x11014)
1c009e4c:	00103484 	add.w	$r4,$r4,$r13
1c009e50:	001039ad 	add.w	$r13,$r13,$r14
1c009e54:	5c022d84 	bne	$r12,$r4,556(0x22c) # 1c00a080 <inst_error>
1c009e58:	14220204 	lu12i.w	$r4,69648(0x11010)
1c009e5c:	142202ac 	lu12i.w	$r12,69653(0x11015)
1c009e60:	00103484 	add.w	$r4,$r4,$r13
1c009e64:	001039ad 	add.w	$r13,$r13,$r14
1c009e68:	5c021984 	bne	$r12,$r4,536(0x218) # 1c00a080 <inst_error>
1c009e6c:	14220204 	lu12i.w	$r4,69648(0x11010)
1c009e70:	142202cc 	lu12i.w	$r12,69654(0x11016)
1c009e74:	00103484 	add.w	$r4,$r4,$r13
1c009e78:	001039ad 	add.w	$r13,$r13,$r14
1c009e7c:	5c020584 	bne	$r12,$r4,516(0x204) # 1c00a080 <inst_error>
1c009e80:	14220204 	lu12i.w	$r4,69648(0x11010)
1c009e84:	142202ec 	lu12i.w	$r12,69655(0x11017)
1c009e88:	00103484 	add.w	$r4,$r4,$r13
1c009e8c:	001039ad 	add.w	$r13,$r13,$r14
1c009e90:	5c01f184 	bne	$r12,$r4,496(0x1f0) # 1c00a080 <inst_error>
1c009e94:	14220204 	lu12i.w	$r4,69648(0x11010)
1c009e98:	1422030c 	lu12i.w	$r12,69656(0x11018)
1c009e9c:	00103484 	add.w	$r4,$r4,$r13
1c009ea0:	001039ad 	add.w	$r13,$r13,$r14
1c009ea4:	5c01dd84 	bne	$r12,$r4,476(0x1dc) # 1c00a080 <inst_error>
1c009ea8:	14220204 	lu12i.w	$r4,69648(0x11010)
1c009eac:	1422032c 	lu12i.w	$r12,69657(0x11019)
1c009eb0:	00103484 	add.w	$r4,$r4,$r13
1c009eb4:	001039ad 	add.w	$r13,$r13,$r14
1c009eb8:	5c01c984 	bne	$r12,$r4,456(0x1c8) # 1c00a080 <inst_error>
1c009ebc:	14220204 	lu12i.w	$r4,69648(0x11010)
1c009ec0:	1422034c 	lu12i.w	$r12,69658(0x1101a)
1c009ec4:	00103484 	add.w	$r4,$r4,$r13
1c009ec8:	001039ad 	add.w	$r13,$r13,$r14
1c009ecc:	5c01b584 	bne	$r12,$r4,436(0x1b4) # 1c00a080 <inst_error>
1c009ed0:	14220204 	lu12i.w	$r4,69648(0x11010)
1c009ed4:	1422036c 	lu12i.w	$r12,69659(0x1101b)
1c009ed8:	00103484 	add.w	$r4,$r4,$r13
1c009edc:	001039ad 	add.w	$r13,$r13,$r14
1c009ee0:	5c01a184 	bne	$r12,$r4,416(0x1a0) # 1c00a080 <inst_error>
1c009ee4:	14220204 	lu12i.w	$r4,69648(0x11010)
1c009ee8:	1422038c 	lu12i.w	$r12,69660(0x1101c)
1c009eec:	00103484 	add.w	$r4,$r4,$r13
1c009ef0:	001039ad 	add.w	$r13,$r13,$r14
1c009ef4:	5c018d84 	bne	$r12,$r4,396(0x18c) # 1c00a080 <inst_error>
1c009ef8:	14220204 	lu12i.w	$r4,69648(0x11010)
1c009efc:	142203ac 	lu12i.w	$r12,69661(0x1101d)
1c009f00:	00103484 	add.w	$r4,$r4,$r13
1c009f04:	001039ad 	add.w	$r13,$r13,$r14
1c009f08:	5c017984 	bne	$r12,$r4,376(0x178) # 1c00a080 <inst_error>
1c009f0c:	14220204 	lu12i.w	$r4,69648(0x11010)
1c009f10:	142203cc 	lu12i.w	$r12,69662(0x1101e)
1c009f14:	00103484 	add.w	$r4,$r4,$r13
1c009f18:	001039ad 	add.w	$r13,$r13,$r14
1c009f1c:	5c016584 	bne	$r12,$r4,356(0x164) # 1c00a080 <inst_error>
1c009f20:	14220204 	lu12i.w	$r4,69648(0x11010)
1c009f24:	142203ec 	lu12i.w	$r12,69663(0x1101f)
1c009f28:	00103484 	add.w	$r4,$r4,$r13
1c009f2c:	001039ad 	add.w	$r13,$r13,$r14
1c009f30:	5c015184 	bne	$r12,$r4,336(0x150) # 1c00a080 <inst_error>
1c009f34:	0280000d 	addi.w	$r13,$r0,0
1c009f38:	14440404 	lu12i.w	$r4,139296(0x22020)
1c009f3c:	1444040c 	lu12i.w	$r12,139296(0x22020)
1c009f40:	00103484 	add.w	$r4,$r4,$r13
1c009f44:	001039ad 	add.w	$r13,$r13,$r14
1c009f48:	5c013984 	bne	$r12,$r4,312(0x138) # 1c00a080 <inst_error>
1c009f4c:	14440404 	lu12i.w	$r4,139296(0x22020)
1c009f50:	1444042c 	lu12i.w	$r12,139297(0x22021)
1c009f54:	00103484 	add.w	$r4,$r4,$r13
1c009f58:	001039ad 	add.w	$r13,$r13,$r14
1c009f5c:	5c012584 	bne	$r12,$r4,292(0x124) # 1c00a080 <inst_error>
1c009f60:	14440404 	lu12i.w	$r4,139296(0x22020)
1c009f64:	1444044c 	lu12i.w	$r12,139298(0x22022)
1c009f68:	00103484 	add.w	$r4,$r4,$r13
1c009f6c:	001039ad 	add.w	$r13,$r13,$r14
1c009f70:	5c011184 	bne	$r12,$r4,272(0x110) # 1c00a080 <inst_error>
1c009f74:	14440404 	lu12i.w	$r4,139296(0x22020)
1c009f78:	1444046c 	lu12i.w	$r12,139299(0x22023)
1c009f7c:	00103484 	add.w	$r4,$r4,$r13
1c009f80:	001039ad 	add.w	$r13,$r13,$r14
1c009f84:	5c00fd84 	bne	$r12,$r4,252(0xfc) # 1c00a080 <inst_error>
1c009f88:	14440404 	lu12i.w	$r4,139296(0x22020)
1c009f8c:	1444048c 	lu12i.w	$r12,139300(0x22024)
1c009f90:	00103484 	add.w	$r4,$r4,$r13
1c009f94:	001039ad 	add.w	$r13,$r13,$r14
1c009f98:	5c00e984 	bne	$r12,$r4,232(0xe8) # 1c00a080 <inst_error>
1c009f9c:	14440404 	lu12i.w	$r4,139296(0x22020)
1c009fa0:	144404ac 	lu12i.w	$r12,139301(0x22025)
1c009fa4:	00103484 	add.w	$r4,$r4,$r13
1c009fa8:	001039ad 	add.w	$r13,$r13,$r14
1c009fac:	5c00d584 	bne	$r12,$r4,212(0xd4) # 1c00a080 <inst_error>
1c009fb0:	14440404 	lu12i.w	$r4,139296(0x22020)
1c009fb4:	144404cc 	lu12i.w	$r12,139302(0x22026)
1c009fb8:	00103484 	add.w	$r4,$r4,$r13
1c009fbc:	001039ad 	add.w	$r13,$r13,$r14
1c009fc0:	5c00c184 	bne	$r12,$r4,192(0xc0) # 1c00a080 <inst_error>
1c009fc4:	14440404 	lu12i.w	$r4,139296(0x22020)
1c009fc8:	144404ec 	lu12i.w	$r12,139303(0x22027)
1c009fcc:	00103484 	add.w	$r4,$r4,$r13
1c009fd0:	001039ad 	add.w	$r13,$r13,$r14
1c009fd4:	5c00ad84 	bne	$r12,$r4,172(0xac) # 1c00a080 <inst_error>
1c009fd8:	14440404 	lu12i.w	$r4,139296(0x22020)
1c009fdc:	1444050c 	lu12i.w	$r12,139304(0x22028)
1c009fe0:	00103484 	add.w	$r4,$r4,$r13
1c009fe4:	001039ad 	add.w	$r13,$r13,$r14
1c009fe8:	5c009984 	bne	$r12,$r4,152(0x98) # 1c00a080 <inst_error>
1c009fec:	14440404 	lu12i.w	$r4,139296(0x22020)
1c009ff0:	1444052c 	lu12i.w	$r12,139305(0x22029)
1c009ff4:	00103484 	add.w	$r4,$r4,$r13
1c009ff8:	001039ad 	add.w	$r13,$r13,$r14
1c009ffc:	5c008584 	bne	$r12,$r4,132(0x84) # 1c00a080 <inst_error>
1c00a000:	14440404 	lu12i.w	$r4,139296(0x22020)
1c00a004:	1444054c 	lu12i.w	$r12,139306(0x2202a)
1c00a008:	00103484 	add.w	$r4,$r4,$r13
1c00a00c:	001039ad 	add.w	$r13,$r13,$r14
1c00a010:	5c007184 	bne	$r12,$r4,112(0x70) # 1c00a080 <inst_error>
1c00a014:	14440404 	lu12i.w	$r4,139296(0x22020)
1c00a018:	1444056c 	lu12i.w	$r12,139307(0x2202b)
1c00a01c:	00103484 	add.w	$r4,$r4,$r13
1c00a020:	001039ad 	add.w	$r13,$r13,$r14
1c00a024:	5c005d84 	bne	$r12,$r4,92(0x5c) # 1c00a080 <inst_error>
1c00a028:	14440404 	lu12i.w	$r4,139296(0x22020)
1c00a02c:	1444058c 	lu12i.w	$r12,139308(0x2202c)
1c00a030:	00103484 	add.w	$r4,$r4,$r13
1c00a034:	001039ad 	add.w	$r13,$r13,$r14
1c00a038:	5c004984 	bne	$r12,$r4,72(0x48) # 1c00a080 <inst_error>
1c00a03c:	14440404 	lu12i.w	$r4,139296(0x22020)
1c00a040:	144405ac 	lu12i.w	$r12,139309(0x2202d)
1c00a044:	00103484 	add.w	$r4,$r4,$r13
1c00a048:	001039ad 	add.w	$r13,$r13,$r14
1c00a04c:	5c003584 	bne	$r12,$r4,52(0x34) # 1c00a080 <inst_error>
1c00a050:	14440404 	lu12i.w	$r4,139296(0x22020)
1c00a054:	144405cc 	lu12i.w	$r12,139310(0x2202e)
1c00a058:	00103484 	add.w	$r4,$r4,$r13
1c00a05c:	001039ad 	add.w	$r13,$r13,$r14
1c00a060:	5c002184 	bne	$r12,$r4,32(0x20) # 1c00a080 <inst_error>
1c00a064:	14440404 	lu12i.w	$r4,139296(0x22020)
1c00a068:	144405ec 	lu12i.w	$r12,139311(0x2202f)
1c00a06c:	00103484 	add.w	$r4,$r4,$r13
1c00a070:	001039ad 	add.w	$r13,$r13,$r14
1c00a074:	5c000d84 	bne	$r12,$r4,12(0xc) # 1c00a080 <inst_error>
1c00a078:	5c000b20 	bne	$r25,$r0,8(0x8) # 1c00a080 <inst_error>
1c00a07c:	0280075a 	addi.w	$r26,$r26,1(0x1)

1c00a080 <inst_error>:
1c00a080:	0040e2ed 	slli.w	$r13,$r23,0x18
1c00a084:	001569ac 	or	$r12,$r13,$r26
1c00a088:	2980030c 	st.w	$r12,$r24,0
1c00a08c:	4c000020 	jirl	$r0,$r1,0

1c00a090 <n19_jirl_test>:
n19_jirl_test():
1c00a090:	028006f7 	addi.w	$r23,$r23,1(0x1)
1c00a094:	00150019 	move	$r25,$r0
1c00a098:	0010041e 	add.w	$r30,$r0,$r1
1c00a09c:	15843cf0 	lu12i.w	$r16,-253465(0xc21e7)
1c00a0a0:	02b9e210 	addi.w	$r16,$r16,-392(0xe78)
1c00a0a4:	141c5d51 	lu12i.w	$r17,58090(0xe2ea)
1c00a0a8:	02892231 	addi.w	$r17,$r17,584(0x248)
1c00a0ac:	1400000a 	lu12i.w	$r10,0
1c00a0b0:	1400000b 	lu12i.w	$r11,0
1c00a0b4:	54000400 	bl	4(0x4) # 1c00a0b8 <n19_jirl_test+0x28>
1c00a0b8:	0280302c 	addi.w	$r12,$r1,12(0xc)
1c00a0bc:	0280902d 	addi.w	$r13,$r1,36(0x24)
1c00a0c0:	50001400 	b	20(0x14) # 1c00a0d4 <n19_jirl_test+0x44>
1c00a0c4:	15843cea 	lu12i.w	$r10,-253465(0xc21e7)
1c00a0c8:	02b9e14a 	addi.w	$r10,$r10,-392(0xe78)
1c00a0cc:	4c0001a0 	jirl	$r0,$r13,0
1c00a0d0:	50001400 	b	20(0x14) # 1c00a0e4 <n19_jirl_test+0x54>
1c00a0d4:	4c000180 	jirl	$r0,$r12,0
1c00a0d8:	50000c00 	b	12(0xc) # 1c00a0e4 <n19_jirl_test+0x54>
1c00a0dc:	141c5d4b 	lu12i.w	$r11,58090(0xe2ea)
1c00a0e0:	0289216b 	addi.w	$r11,$r11,584(0x248)
1c00a0e4:	15843cfc 	lu12i.w	$r28,-253465(0xc21e7)
1c00a0e8:	02b9e39c 	addi.w	$r28,$r28,-392(0xe78)
1c00a0ec:	141c5d5d 	lu12i.w	$r29,58090(0xe2ea)
1c00a0f0:	028923bd 	addi.w	$r29,$r29,584(0x248)
1c00a0f4:	00107801 	add.w	$r1,$r0,$r30
1c00a0f8:	5c1ae15c 	bne	$r10,$r28,6880(0x1ae0) # 1c00bbd8 <inst_error>
1c00a0fc:	5c1add7d 	bne	$r11,$r29,6876(0x1adc) # 1c00bbd8 <inst_error>
1c00a100:	0010041e 	add.w	$r30,$r0,$r1
1c00a104:	14cf2790 	lu12i.w	$r16,424252(0x6793c)
1c00a108:	02927210 	addi.w	$r16,$r16,1180(0x49c)
1c00a10c:	14ca9671 	lu12i.w	$r17,414899(0x654b3)
1c00a110:	02b5c231 	addi.w	$r17,$r17,-656(0xd70)
1c00a114:	1400000a 	lu12i.w	$r10,0
1c00a118:	1400000b 	lu12i.w	$r11,0
1c00a11c:	54000400 	bl	4(0x4) # 1c00a120 <n19_jirl_test+0x90>
1c00a120:	0280302c 	addi.w	$r12,$r1,12(0xc)
1c00a124:	0280902d 	addi.w	$r13,$r1,36(0x24)
1c00a128:	50001400 	b	20(0x14) # 1c00a13c <n19_jirl_test+0xac>
1c00a12c:	14cf278a 	lu12i.w	$r10,424252(0x6793c)
1c00a130:	0292714a 	addi.w	$r10,$r10,1180(0x49c)
1c00a134:	4c0001a0 	jirl	$r0,$r13,0
1c00a138:	50001400 	b	20(0x14) # 1c00a14c <n19_jirl_test+0xbc>
1c00a13c:	4c000180 	jirl	$r0,$r12,0
1c00a140:	50000c00 	b	12(0xc) # 1c00a14c <n19_jirl_test+0xbc>
1c00a144:	14ca966b 	lu12i.w	$r11,414899(0x654b3)
1c00a148:	02b5c16b 	addi.w	$r11,$r11,-656(0xd70)
1c00a14c:	14cf279c 	lu12i.w	$r28,424252(0x6793c)
1c00a150:	0292739c 	addi.w	$r28,$r28,1180(0x49c)
1c00a154:	14ca967d 	lu12i.w	$r29,414899(0x654b3)
1c00a158:	02b5c3bd 	addi.w	$r29,$r29,-656(0xd70)
1c00a15c:	00107801 	add.w	$r1,$r0,$r30
1c00a160:	5c1a795c 	bne	$r10,$r28,6776(0x1a78) # 1c00bbd8 <inst_error>
1c00a164:	5c1a757d 	bne	$r11,$r29,6772(0x1a74) # 1c00bbd8 <inst_error>
1c00a168:	0010041e 	add.w	$r30,$r0,$r1
1c00a16c:	15fe1430 	lu12i.w	$r16,-3935(0xff0a1)
1c00a170:	02a2c210 	addi.w	$r16,$r16,-1872(0x8b0)
1c00a174:	14a1a591 	lu12i.w	$r17,331052(0x50d2c)
1c00a178:	02ace231 	addi.w	$r17,$r17,-1224(0xb38)
1c00a17c:	1400000a 	lu12i.w	$r10,0
1c00a180:	1400000b 	lu12i.w	$r11,0
1c00a184:	54000400 	bl	4(0x4) # 1c00a188 <n19_jirl_test+0xf8>
1c00a188:	0280302c 	addi.w	$r12,$r1,12(0xc)
1c00a18c:	0280902d 	addi.w	$r13,$r1,36(0x24)
1c00a190:	50001400 	b	20(0x14) # 1c00a1a4 <n19_jirl_test+0x114>
1c00a194:	15fe142a 	lu12i.w	$r10,-3935(0xff0a1)
1c00a198:	02a2c14a 	addi.w	$r10,$r10,-1872(0x8b0)
1c00a19c:	4c0001a0 	jirl	$r0,$r13,0
1c00a1a0:	50001400 	b	20(0x14) # 1c00a1b4 <n19_jirl_test+0x124>
1c00a1a4:	4c000180 	jirl	$r0,$r12,0
1c00a1a8:	50000c00 	b	12(0xc) # 1c00a1b4 <n19_jirl_test+0x124>
1c00a1ac:	14a1a58b 	lu12i.w	$r11,331052(0x50d2c)
1c00a1b0:	02ace16b 	addi.w	$r11,$r11,-1224(0xb38)
1c00a1b4:	15fe143c 	lu12i.w	$r28,-3935(0xff0a1)
1c00a1b8:	02a2c39c 	addi.w	$r28,$r28,-1872(0x8b0)
1c00a1bc:	14a1a59d 	lu12i.w	$r29,331052(0x50d2c)
1c00a1c0:	02ace3bd 	addi.w	$r29,$r29,-1224(0xb38)
1c00a1c4:	00107801 	add.w	$r1,$r0,$r30
1c00a1c8:	5c1a115c 	bne	$r10,$r28,6672(0x1a10) # 1c00bbd8 <inst_error>
1c00a1cc:	5c1a0d7d 	bne	$r11,$r29,6668(0x1a0c) # 1c00bbd8 <inst_error>
1c00a1d0:	0010041e 	add.w	$r30,$r0,$r1
1c00a1d4:	14e0c830 	lu12i.w	$r16,460353(0x70641)
1c00a1d8:	02b91210 	addi.w	$r16,$r16,-444(0xe44)
1c00a1dc:	14723611 	lu12i.w	$r17,233904(0x391b0)
1c00a1e0:	02af2a31 	addi.w	$r17,$r17,-1078(0xbca)
1c00a1e4:	1400000a 	lu12i.w	$r10,0
1c00a1e8:	1400000b 	lu12i.w	$r11,0
1c00a1ec:	54000400 	bl	4(0x4) # 1c00a1f0 <n19_jirl_test+0x160>
1c00a1f0:	0280302c 	addi.w	$r12,$r1,12(0xc)
1c00a1f4:	0280902d 	addi.w	$r13,$r1,36(0x24)
1c00a1f8:	50001400 	b	20(0x14) # 1c00a20c <n19_jirl_test+0x17c>
1c00a1fc:	14e0c82a 	lu12i.w	$r10,460353(0x70641)
1c00a200:	02b9114a 	addi.w	$r10,$r10,-444(0xe44)
1c00a204:	4c0001a0 	jirl	$r0,$r13,0
1c00a208:	50001400 	b	20(0x14) # 1c00a21c <n19_jirl_test+0x18c>
1c00a20c:	4c000180 	jirl	$r0,$r12,0
1c00a210:	50000c00 	b	12(0xc) # 1c00a21c <n19_jirl_test+0x18c>
1c00a214:	1472360b 	lu12i.w	$r11,233904(0x391b0)
1c00a218:	02af296b 	addi.w	$r11,$r11,-1078(0xbca)
1c00a21c:	14e0c83c 	lu12i.w	$r28,460353(0x70641)
1c00a220:	02b9139c 	addi.w	$r28,$r28,-444(0xe44)
1c00a224:	1472361d 	lu12i.w	$r29,233904(0x391b0)
1c00a228:	02af2bbd 	addi.w	$r29,$r29,-1078(0xbca)
1c00a22c:	00107801 	add.w	$r1,$r0,$r30
1c00a230:	5c19a95c 	bne	$r10,$r28,6568(0x19a8) # 1c00bbd8 <inst_error>
1c00a234:	5c19a57d 	bne	$r11,$r29,6564(0x19a4) # 1c00bbd8 <inst_error>
1c00a238:	0010041e 	add.w	$r30,$r0,$r1
1c00a23c:	140a0c50 	lu12i.w	$r16,20578(0x5062)
1c00a240:	028cee10 	addi.w	$r16,$r16,827(0x33b)
1c00a244:	15628231 	lu12i.w	$r17,-322543(0xb1411)
1c00a248:	0296a231 	addi.w	$r17,$r17,1448(0x5a8)
1c00a24c:	1400000a 	lu12i.w	$r10,0
1c00a250:	1400000b 	lu12i.w	$r11,0
1c00a254:	54000400 	bl	4(0x4) # 1c00a258 <n19_jirl_test+0x1c8>
1c00a258:	0280302c 	addi.w	$r12,$r1,12(0xc)
1c00a25c:	0280902d 	addi.w	$r13,$r1,36(0x24)
1c00a260:	50001400 	b	20(0x14) # 1c00a274 <n19_jirl_test+0x1e4>
1c00a264:	140a0c4a 	lu12i.w	$r10,20578(0x5062)
1c00a268:	028ced4a 	addi.w	$r10,$r10,827(0x33b)
1c00a26c:	4c0001a0 	jirl	$r0,$r13,0
1c00a270:	50001400 	b	20(0x14) # 1c00a284 <n19_jirl_test+0x1f4>
1c00a274:	4c000180 	jirl	$r0,$r12,0
1c00a278:	50000c00 	b	12(0xc) # 1c00a284 <n19_jirl_test+0x1f4>
1c00a27c:	1562822b 	lu12i.w	$r11,-322543(0xb1411)
1c00a280:	0296a16b 	addi.w	$r11,$r11,1448(0x5a8)
1c00a284:	140a0c5c 	lu12i.w	$r28,20578(0x5062)
1c00a288:	028cef9c 	addi.w	$r28,$r28,827(0x33b)
1c00a28c:	1562823d 	lu12i.w	$r29,-322543(0xb1411)
1c00a290:	0296a3bd 	addi.w	$r29,$r29,1448(0x5a8)
1c00a294:	00107801 	add.w	$r1,$r0,$r30
1c00a298:	5c19415c 	bne	$r10,$r28,6464(0x1940) # 1c00bbd8 <inst_error>
1c00a29c:	5c193d7d 	bne	$r11,$r29,6460(0x193c) # 1c00bbd8 <inst_error>
1c00a2a0:	0010041e 	add.w	$r30,$r0,$r1
1c00a2a4:	1538f030 	lu12i.w	$r16,-407679(0x9c781)
1c00a2a8:	02951e10 	addi.w	$r16,$r16,1351(0x547)
1c00a2ac:	15bc2f11 	lu12i.w	$r17,-138888(0xde178)
1c00a2b0:	02888231 	addi.w	$r17,$r17,544(0x220)
1c00a2b4:	1400000a 	lu12i.w	$r10,0
1c00a2b8:	1400000b 	lu12i.w	$r11,0
1c00a2bc:	54000400 	bl	4(0x4) # 1c00a2c0 <n19_jirl_test+0x230>
1c00a2c0:	0280302c 	addi.w	$r12,$r1,12(0xc)
1c00a2c4:	0280902d 	addi.w	$r13,$r1,36(0x24)
1c00a2c8:	50001400 	b	20(0x14) # 1c00a2dc <n19_jirl_test+0x24c>
1c00a2cc:	1538f02a 	lu12i.w	$r10,-407679(0x9c781)
1c00a2d0:	02951d4a 	addi.w	$r10,$r10,1351(0x547)
1c00a2d4:	4c0001a0 	jirl	$r0,$r13,0
1c00a2d8:	50001400 	b	20(0x14) # 1c00a2ec <n19_jirl_test+0x25c>
1c00a2dc:	4c000180 	jirl	$r0,$r12,0
1c00a2e0:	50000c00 	b	12(0xc) # 1c00a2ec <n19_jirl_test+0x25c>
1c00a2e4:	15bc2f0b 	lu12i.w	$r11,-138888(0xde178)
1c00a2e8:	0288816b 	addi.w	$r11,$r11,544(0x220)
1c00a2ec:	1538f03c 	lu12i.w	$r28,-407679(0x9c781)
1c00a2f0:	02951f9c 	addi.w	$r28,$r28,1351(0x547)
1c00a2f4:	15bc2f1d 	lu12i.w	$r29,-138888(0xde178)
1c00a2f8:	028883bd 	addi.w	$r29,$r29,544(0x220)
1c00a2fc:	00107801 	add.w	$r1,$r0,$r30
1c00a300:	5c18d95c 	bne	$r10,$r28,6360(0x18d8) # 1c00bbd8 <inst_error>
1c00a304:	5c18d57d 	bne	$r11,$r29,6356(0x18d4) # 1c00bbd8 <inst_error>
1c00a308:	0010041e 	add.w	$r30,$r0,$r1
1c00a30c:	15dcc290 	lu12i.w	$r16,-72172(0xee614)
1c00a310:	0288ee10 	addi.w	$r16,$r16,571(0x23b)
1c00a314:	14505c71 	lu12i.w	$r17,164579(0x282e3)
1c00a318:	02960231 	addi.w	$r17,$r17,1408(0x580)
1c00a31c:	1400000a 	lu12i.w	$r10,0
1c00a320:	1400000b 	lu12i.w	$r11,0
1c00a324:	54000400 	bl	4(0x4) # 1c00a328 <n19_jirl_test+0x298>
1c00a328:	0280302c 	addi.w	$r12,$r1,12(0xc)
1c00a32c:	0280902d 	addi.w	$r13,$r1,36(0x24)
1c00a330:	50001400 	b	20(0x14) # 1c00a344 <n19_jirl_test+0x2b4>
1c00a334:	15dcc28a 	lu12i.w	$r10,-72172(0xee614)
1c00a338:	0288ed4a 	addi.w	$r10,$r10,571(0x23b)
1c00a33c:	4c0001a0 	jirl	$r0,$r13,0
1c00a340:	50001400 	b	20(0x14) # 1c00a354 <n19_jirl_test+0x2c4>
1c00a344:	4c000180 	jirl	$r0,$r12,0
1c00a348:	50000c00 	b	12(0xc) # 1c00a354 <n19_jirl_test+0x2c4>
1c00a34c:	14505c6b 	lu12i.w	$r11,164579(0x282e3)
1c00a350:	0296016b 	addi.w	$r11,$r11,1408(0x580)
1c00a354:	15dcc29c 	lu12i.w	$r28,-72172(0xee614)
1c00a358:	0288ef9c 	addi.w	$r28,$r28,571(0x23b)
1c00a35c:	14505c7d 	lu12i.w	$r29,164579(0x282e3)
1c00a360:	029603bd 	addi.w	$r29,$r29,1408(0x580)
1c00a364:	00107801 	add.w	$r1,$r0,$r30
1c00a368:	5c18715c 	bne	$r10,$r28,6256(0x1870) # 1c00bbd8 <inst_error>
1c00a36c:	5c186d7d 	bne	$r11,$r29,6252(0x186c) # 1c00bbd8 <inst_error>
1c00a370:	0010041e 	add.w	$r30,$r0,$r1
1c00a374:	15b99fb0 	lu12i.w	$r16,-144131(0xdccfd)
1c00a378:	028a5a10 	addi.w	$r16,$r16,662(0x296)
1c00a37c:	15a4dab1 	lu12i.w	$r17,-186667(0xd26d5)
1c00a380:	02920231 	addi.w	$r17,$r17,1152(0x480)
1c00a384:	1400000a 	lu12i.w	$r10,0
1c00a388:	1400000b 	lu12i.w	$r11,0
1c00a38c:	54000400 	bl	4(0x4) # 1c00a390 <n19_jirl_test+0x300>
1c00a390:	0280302c 	addi.w	$r12,$r1,12(0xc)
1c00a394:	0280902d 	addi.w	$r13,$r1,36(0x24)
1c00a398:	50001400 	b	20(0x14) # 1c00a3ac <n19_jirl_test+0x31c>
1c00a39c:	15b99faa 	lu12i.w	$r10,-144131(0xdccfd)
1c00a3a0:	028a594a 	addi.w	$r10,$r10,662(0x296)
1c00a3a4:	4c0001a0 	jirl	$r0,$r13,0
1c00a3a8:	50001400 	b	20(0x14) # 1c00a3bc <n19_jirl_test+0x32c>
1c00a3ac:	4c000180 	jirl	$r0,$r12,0
1c00a3b0:	50000c00 	b	12(0xc) # 1c00a3bc <n19_jirl_test+0x32c>
1c00a3b4:	15a4daab 	lu12i.w	$r11,-186667(0xd26d5)
1c00a3b8:	0292016b 	addi.w	$r11,$r11,1152(0x480)
1c00a3bc:	15b99fbc 	lu12i.w	$r28,-144131(0xdccfd)
1c00a3c0:	028a5b9c 	addi.w	$r28,$r28,662(0x296)
1c00a3c4:	15a4dabd 	lu12i.w	$r29,-186667(0xd26d5)
1c00a3c8:	029203bd 	addi.w	$r29,$r29,1152(0x480)
1c00a3cc:	00107801 	add.w	$r1,$r0,$r30
1c00a3d0:	5c18095c 	bne	$r10,$r28,6152(0x1808) # 1c00bbd8 <inst_error>
1c00a3d4:	5c18057d 	bne	$r11,$r29,6148(0x1804) # 1c00bbd8 <inst_error>
1c00a3d8:	0010041e 	add.w	$r30,$r0,$r1
1c00a3dc:	14537d30 	lu12i.w	$r16,170985(0x29be9)
1c00a3e0:	02bc0610 	addi.w	$r16,$r16,-255(0xf01)
1c00a3e4:	1492abb1 	lu12i.w	$r17,300381(0x4955d)
1c00a3e8:	028fae31 	addi.w	$r17,$r17,1003(0x3eb)
1c00a3ec:	1400000a 	lu12i.w	$r10,0
1c00a3f0:	1400000b 	lu12i.w	$r11,0
1c00a3f4:	54000400 	bl	4(0x4) # 1c00a3f8 <n19_jirl_test+0x368>
1c00a3f8:	0280302c 	addi.w	$r12,$r1,12(0xc)
1c00a3fc:	0280902d 	addi.w	$r13,$r1,36(0x24)
1c00a400:	50001400 	b	20(0x14) # 1c00a414 <n19_jirl_test+0x384>
1c00a404:	14537d2a 	lu12i.w	$r10,170985(0x29be9)
1c00a408:	02bc054a 	addi.w	$r10,$r10,-255(0xf01)
1c00a40c:	4c0001a0 	jirl	$r0,$r13,0
1c00a410:	50001400 	b	20(0x14) # 1c00a424 <n19_jirl_test+0x394>
1c00a414:	4c000180 	jirl	$r0,$r12,0
1c00a418:	50000c00 	b	12(0xc) # 1c00a424 <n19_jirl_test+0x394>
1c00a41c:	1492abab 	lu12i.w	$r11,300381(0x4955d)
1c00a420:	028fad6b 	addi.w	$r11,$r11,1003(0x3eb)
1c00a424:	14537d3c 	lu12i.w	$r28,170985(0x29be9)
1c00a428:	02bc079c 	addi.w	$r28,$r28,-255(0xf01)
1c00a42c:	1492abbd 	lu12i.w	$r29,300381(0x4955d)
1c00a430:	028fafbd 	addi.w	$r29,$r29,1003(0x3eb)
1c00a434:	00107801 	add.w	$r1,$r0,$r30
1c00a438:	5c17a15c 	bne	$r10,$r28,6048(0x17a0) # 1c00bbd8 <inst_error>
1c00a43c:	5c179d7d 	bne	$r11,$r29,6044(0x179c) # 1c00bbd8 <inst_error>
1c00a440:	0010041e 	add.w	$r30,$r0,$r1
1c00a444:	1560d270 	lu12i.w	$r16,-325997(0xb0693)
1c00a448:	029b0210 	addi.w	$r16,$r16,1728(0x6c0)
1c00a44c:	1522cdb1 	lu12i.w	$r17,-453011(0x9166d)
1c00a450:	02b30231 	addi.w	$r17,$r17,-832(0xcc0)
1c00a454:	1400000a 	lu12i.w	$r10,0
1c00a458:	1400000b 	lu12i.w	$r11,0
1c00a45c:	54000400 	bl	4(0x4) # 1c00a460 <n19_jirl_test+0x3d0>
1c00a460:	0280302c 	addi.w	$r12,$r1,12(0xc)
1c00a464:	0280902d 	addi.w	$r13,$r1,36(0x24)
1c00a468:	50001400 	b	20(0x14) # 1c00a47c <n19_jirl_test+0x3ec>
1c00a46c:	1560d26a 	lu12i.w	$r10,-325997(0xb0693)
1c00a470:	029b014a 	addi.w	$r10,$r10,1728(0x6c0)
1c00a474:	4c0001a0 	jirl	$r0,$r13,0
1c00a478:	50001400 	b	20(0x14) # 1c00a48c <n19_jirl_test+0x3fc>
1c00a47c:	4c000180 	jirl	$r0,$r12,0
1c00a480:	50000c00 	b	12(0xc) # 1c00a48c <n19_jirl_test+0x3fc>
1c00a484:	1522cdab 	lu12i.w	$r11,-453011(0x9166d)
1c00a488:	02b3016b 	addi.w	$r11,$r11,-832(0xcc0)
1c00a48c:	1560d27c 	lu12i.w	$r28,-325997(0xb0693)
1c00a490:	029b039c 	addi.w	$r28,$r28,1728(0x6c0)
1c00a494:	1522cdbd 	lu12i.w	$r29,-453011(0x9166d)
1c00a498:	02b303bd 	addi.w	$r29,$r29,-832(0xcc0)
1c00a49c:	00107801 	add.w	$r1,$r0,$r30
1c00a4a0:	5c17395c 	bne	$r10,$r28,5944(0x1738) # 1c00bbd8 <inst_error>
1c00a4a4:	5c17357d 	bne	$r11,$r29,5940(0x1734) # 1c00bbd8 <inst_error>
1c00a4a8:	0010041e 	add.w	$r30,$r0,$r1
1c00a4ac:	15d36bb0 	lu12i.w	$r16,-91299(0xe9b5d)
1c00a4b0:	02b2a210 	addi.w	$r16,$r16,-856(0xca8)
1c00a4b4:	1577e131 	lu12i.w	$r17,-278775(0xbbf09)
1c00a4b8:	02880631 	addi.w	$r17,$r17,513(0x201)
1c00a4bc:	1400000a 	lu12i.w	$r10,0
1c00a4c0:	1400000b 	lu12i.w	$r11,0
1c00a4c4:	54000400 	bl	4(0x4) # 1c00a4c8 <n19_jirl_test+0x438>
1c00a4c8:	0280302c 	addi.w	$r12,$r1,12(0xc)
1c00a4cc:	0280902d 	addi.w	$r13,$r1,36(0x24)
1c00a4d0:	50001400 	b	20(0x14) # 1c00a4e4 <n19_jirl_test+0x454>
1c00a4d4:	15d36baa 	lu12i.w	$r10,-91299(0xe9b5d)
1c00a4d8:	02b2a14a 	addi.w	$r10,$r10,-856(0xca8)
1c00a4dc:	4c0001a0 	jirl	$r0,$r13,0
1c00a4e0:	50001400 	b	20(0x14) # 1c00a4f4 <n19_jirl_test+0x464>
1c00a4e4:	4c000180 	jirl	$r0,$r12,0
1c00a4e8:	50000c00 	b	12(0xc) # 1c00a4f4 <n19_jirl_test+0x464>
1c00a4ec:	1577e12b 	lu12i.w	$r11,-278775(0xbbf09)
1c00a4f0:	0288056b 	addi.w	$r11,$r11,513(0x201)
1c00a4f4:	15d36bbc 	lu12i.w	$r28,-91299(0xe9b5d)
1c00a4f8:	02b2a39c 	addi.w	$r28,$r28,-856(0xca8)
1c00a4fc:	1577e13d 	lu12i.w	$r29,-278775(0xbbf09)
1c00a500:	028807bd 	addi.w	$r29,$r29,513(0x201)
1c00a504:	00107801 	add.w	$r1,$r0,$r30
1c00a508:	5c16d15c 	bne	$r10,$r28,5840(0x16d0) # 1c00bbd8 <inst_error>
1c00a50c:	5c16cd7d 	bne	$r11,$r29,5836(0x16cc) # 1c00bbd8 <inst_error>
1c00a510:	0010041e 	add.w	$r30,$r0,$r1
1c00a514:	14a89eb0 	lu12i.w	$r16,345333(0x544f5)
1c00a518:	028e0210 	addi.w	$r16,$r16,896(0x380)
1c00a51c:	152fd091 	lu12i.w	$r17,-426364(0x97e84)
1c00a520:	02906a31 	addi.w	$r17,$r17,1050(0x41a)
1c00a524:	1400000a 	lu12i.w	$r10,0
1c00a528:	1400000b 	lu12i.w	$r11,0
1c00a52c:	54000400 	bl	4(0x4) # 1c00a530 <n19_jirl_test+0x4a0>
1c00a530:	0280302c 	addi.w	$r12,$r1,12(0xc)
1c00a534:	0280902d 	addi.w	$r13,$r1,36(0x24)
1c00a538:	50001400 	b	20(0x14) # 1c00a54c <n19_jirl_test+0x4bc>
1c00a53c:	14a89eaa 	lu12i.w	$r10,345333(0x544f5)
1c00a540:	028e014a 	addi.w	$r10,$r10,896(0x380)
1c00a544:	4c0001a0 	jirl	$r0,$r13,0
1c00a548:	50001400 	b	20(0x14) # 1c00a55c <n19_jirl_test+0x4cc>
1c00a54c:	4c000180 	jirl	$r0,$r12,0
1c00a550:	50000c00 	b	12(0xc) # 1c00a55c <n19_jirl_test+0x4cc>
1c00a554:	152fd08b 	lu12i.w	$r11,-426364(0x97e84)
1c00a558:	0290696b 	addi.w	$r11,$r11,1050(0x41a)
1c00a55c:	14a89ebc 	lu12i.w	$r28,345333(0x544f5)
1c00a560:	028e039c 	addi.w	$r28,$r28,896(0x380)
1c00a564:	152fd09d 	lu12i.w	$r29,-426364(0x97e84)
1c00a568:	02906bbd 	addi.w	$r29,$r29,1050(0x41a)
1c00a56c:	00107801 	add.w	$r1,$r0,$r30
1c00a570:	5c16695c 	bne	$r10,$r28,5736(0x1668) # 1c00bbd8 <inst_error>
1c00a574:	5c16657d 	bne	$r11,$r29,5732(0x1664) # 1c00bbd8 <inst_error>
1c00a578:	0010041e 	add.w	$r30,$r0,$r1
1c00a57c:	1519fe70 	lu12i.w	$r16,-471053(0x8cff3)
1c00a580:	028fde10 	addi.w	$r16,$r16,1015(0x3f7)
1c00a584:	150bd2b1 	lu12i.w	$r17,-500075(0x85e95)
1c00a588:	02baa231 	addi.w	$r17,$r17,-344(0xea8)
1c00a58c:	1400000a 	lu12i.w	$r10,0
1c00a590:	1400000b 	lu12i.w	$r11,0
1c00a594:	54000400 	bl	4(0x4) # 1c00a598 <n19_jirl_test+0x508>
1c00a598:	0280302c 	addi.w	$r12,$r1,12(0xc)
1c00a59c:	0280902d 	addi.w	$r13,$r1,36(0x24)
1c00a5a0:	50001400 	b	20(0x14) # 1c00a5b4 <n19_jirl_test+0x524>
1c00a5a4:	1519fe6a 	lu12i.w	$r10,-471053(0x8cff3)
1c00a5a8:	028fdd4a 	addi.w	$r10,$r10,1015(0x3f7)
1c00a5ac:	4c0001a0 	jirl	$r0,$r13,0
1c00a5b0:	50001400 	b	20(0x14) # 1c00a5c4 <n19_jirl_test+0x534>
1c00a5b4:	4c000180 	jirl	$r0,$r12,0
1c00a5b8:	50000c00 	b	12(0xc) # 1c00a5c4 <n19_jirl_test+0x534>
1c00a5bc:	150bd2ab 	lu12i.w	$r11,-500075(0x85e95)
1c00a5c0:	02baa16b 	addi.w	$r11,$r11,-344(0xea8)
1c00a5c4:	1519fe7c 	lu12i.w	$r28,-471053(0x8cff3)
1c00a5c8:	028fdf9c 	addi.w	$r28,$r28,1015(0x3f7)
1c00a5cc:	150bd2bd 	lu12i.w	$r29,-500075(0x85e95)
1c00a5d0:	02baa3bd 	addi.w	$r29,$r29,-344(0xea8)
1c00a5d4:	00107801 	add.w	$r1,$r0,$r30
1c00a5d8:	5c16015c 	bne	$r10,$r28,5632(0x1600) # 1c00bbd8 <inst_error>
1c00a5dc:	5c15fd7d 	bne	$r11,$r29,5628(0x15fc) # 1c00bbd8 <inst_error>
1c00a5e0:	0010041e 	add.w	$r30,$r0,$r1
1c00a5e4:	145e8590 	lu12i.w	$r16,193580(0x2f42c)
1c00a5e8:	029c8210 	addi.w	$r16,$r16,1824(0x720)
1c00a5ec:	155fe0b1 	lu12i.w	$r17,-327931(0xaff05)
1c00a5f0:	02837231 	addi.w	$r17,$r17,220(0xdc)
1c00a5f4:	1400000a 	lu12i.w	$r10,0
1c00a5f8:	1400000b 	lu12i.w	$r11,0
1c00a5fc:	54000400 	bl	4(0x4) # 1c00a600 <n19_jirl_test+0x570>
1c00a600:	0280302c 	addi.w	$r12,$r1,12(0xc)
1c00a604:	0280902d 	addi.w	$r13,$r1,36(0x24)
1c00a608:	50001400 	b	20(0x14) # 1c00a61c <n19_jirl_test+0x58c>
1c00a60c:	145e858a 	lu12i.w	$r10,193580(0x2f42c)
1c00a610:	029c814a 	addi.w	$r10,$r10,1824(0x720)
1c00a614:	4c0001a0 	jirl	$r0,$r13,0
1c00a618:	50001400 	b	20(0x14) # 1c00a62c <n19_jirl_test+0x59c>
1c00a61c:	4c000180 	jirl	$r0,$r12,0
1c00a620:	50000c00 	b	12(0xc) # 1c00a62c <n19_jirl_test+0x59c>
1c00a624:	155fe0ab 	lu12i.w	$r11,-327931(0xaff05)
1c00a628:	0283716b 	addi.w	$r11,$r11,220(0xdc)
1c00a62c:	145e859c 	lu12i.w	$r28,193580(0x2f42c)
1c00a630:	029c839c 	addi.w	$r28,$r28,1824(0x720)
1c00a634:	155fe0bd 	lu12i.w	$r29,-327931(0xaff05)
1c00a638:	028373bd 	addi.w	$r29,$r29,220(0xdc)
1c00a63c:	00107801 	add.w	$r1,$r0,$r30
1c00a640:	5c15995c 	bne	$r10,$r28,5528(0x1598) # 1c00bbd8 <inst_error>
1c00a644:	5c15957d 	bne	$r11,$r29,5524(0x1594) # 1c00bbd8 <inst_error>
1c00a648:	0010041e 	add.w	$r30,$r0,$r1
1c00a64c:	146b0010 	lu12i.w	$r16,219136(0x35800)
1c00a650:	02b30210 	addi.w	$r16,$r16,-832(0xcc0)
1c00a654:	15c4e4d1 	lu12i.w	$r17,-121050(0xe2726)
1c00a658:	02b08a31 	addi.w	$r17,$r17,-990(0xc22)
1c00a65c:	1400000a 	lu12i.w	$r10,0
1c00a660:	1400000b 	lu12i.w	$r11,0
1c00a664:	54000400 	bl	4(0x4) # 1c00a668 <n19_jirl_test+0x5d8>
1c00a668:	0280302c 	addi.w	$r12,$r1,12(0xc)
1c00a66c:	0280902d 	addi.w	$r13,$r1,36(0x24)
1c00a670:	50001400 	b	20(0x14) # 1c00a684 <n19_jirl_test+0x5f4>
1c00a674:	146b000a 	lu12i.w	$r10,219136(0x35800)
1c00a678:	02b3014a 	addi.w	$r10,$r10,-832(0xcc0)
1c00a67c:	4c0001a0 	jirl	$r0,$r13,0
1c00a680:	50001400 	b	20(0x14) # 1c00a694 <n19_jirl_test+0x604>
1c00a684:	4c000180 	jirl	$r0,$r12,0
1c00a688:	50000c00 	b	12(0xc) # 1c00a694 <n19_jirl_test+0x604>
1c00a68c:	15c4e4cb 	lu12i.w	$r11,-121050(0xe2726)
1c00a690:	02b0896b 	addi.w	$r11,$r11,-990(0xc22)
1c00a694:	146b001c 	lu12i.w	$r28,219136(0x35800)
1c00a698:	02b3039c 	addi.w	$r28,$r28,-832(0xcc0)
1c00a69c:	15c4e4dd 	lu12i.w	$r29,-121050(0xe2726)
1c00a6a0:	02b08bbd 	addi.w	$r29,$r29,-990(0xc22)
1c00a6a4:	00107801 	add.w	$r1,$r0,$r30
1c00a6a8:	5c15315c 	bne	$r10,$r28,5424(0x1530) # 1c00bbd8 <inst_error>
1c00a6ac:	5c152d7d 	bne	$r11,$r29,5420(0x152c) # 1c00bbd8 <inst_error>
1c00a6b0:	0010041e 	add.w	$r30,$r0,$r1
1c00a6b4:	15e0ca90 	lu12i.w	$r16,-63916(0xf0654)
1c00a6b8:	02b9fe10 	addi.w	$r16,$r16,-385(0xe7f)
1c00a6bc:	14ffccd1 	lu12i.w	$r17,523878(0x7fe66)
1c00a6c0:	02ace231 	addi.w	$r17,$r17,-1224(0xb38)
1c00a6c4:	1400000a 	lu12i.w	$r10,0
1c00a6c8:	1400000b 	lu12i.w	$r11,0
1c00a6cc:	54000400 	bl	4(0x4) # 1c00a6d0 <n19_jirl_test+0x640>
1c00a6d0:	0280302c 	addi.w	$r12,$r1,12(0xc)
1c00a6d4:	0280902d 	addi.w	$r13,$r1,36(0x24)
1c00a6d8:	50001400 	b	20(0x14) # 1c00a6ec <n19_jirl_test+0x65c>
1c00a6dc:	15e0ca8a 	lu12i.w	$r10,-63916(0xf0654)
1c00a6e0:	02b9fd4a 	addi.w	$r10,$r10,-385(0xe7f)
1c00a6e4:	4c0001a0 	jirl	$r0,$r13,0
1c00a6e8:	50001400 	b	20(0x14) # 1c00a6fc <n19_jirl_test+0x66c>
1c00a6ec:	4c000180 	jirl	$r0,$r12,0
1c00a6f0:	50000c00 	b	12(0xc) # 1c00a6fc <n19_jirl_test+0x66c>
1c00a6f4:	14ffcccb 	lu12i.w	$r11,523878(0x7fe66)
1c00a6f8:	02ace16b 	addi.w	$r11,$r11,-1224(0xb38)
1c00a6fc:	15e0ca9c 	lu12i.w	$r28,-63916(0xf0654)
1c00a700:	02b9ff9c 	addi.w	$r28,$r28,-385(0xe7f)
1c00a704:	14ffccdd 	lu12i.w	$r29,523878(0x7fe66)
1c00a708:	02ace3bd 	addi.w	$r29,$r29,-1224(0xb38)
1c00a70c:	00107801 	add.w	$r1,$r0,$r30
1c00a710:	5c14c95c 	bne	$r10,$r28,5320(0x14c8) # 1c00bbd8 <inst_error>
1c00a714:	5c14c57d 	bne	$r11,$r29,5316(0x14c4) # 1c00bbd8 <inst_error>
1c00a718:	0010041e 	add.w	$r30,$r0,$r1
1c00a71c:	14eb7d30 	lu12i.w	$r16,482281(0x75be9)
1c00a720:	02947210 	addi.w	$r16,$r16,1308(0x51c)
1c00a724:	1427da31 	lu12i.w	$r17,81617(0x13ed1)
1c00a728:	0293a231 	addi.w	$r17,$r17,1256(0x4e8)
1c00a72c:	1400000a 	lu12i.w	$r10,0
1c00a730:	1400000b 	lu12i.w	$r11,0
1c00a734:	54000400 	bl	4(0x4) # 1c00a738 <n19_jirl_test+0x6a8>
1c00a738:	0280302c 	addi.w	$r12,$r1,12(0xc)
1c00a73c:	0280902d 	addi.w	$r13,$r1,36(0x24)
1c00a740:	50001400 	b	20(0x14) # 1c00a754 <n19_jirl_test+0x6c4>
1c00a744:	14eb7d2a 	lu12i.w	$r10,482281(0x75be9)
1c00a748:	0294714a 	addi.w	$r10,$r10,1308(0x51c)
1c00a74c:	4c0001a0 	jirl	$r0,$r13,0
1c00a750:	50001400 	b	20(0x14) # 1c00a764 <n19_jirl_test+0x6d4>
1c00a754:	4c000180 	jirl	$r0,$r12,0
1c00a758:	50000c00 	b	12(0xc) # 1c00a764 <n19_jirl_test+0x6d4>
1c00a75c:	1427da2b 	lu12i.w	$r11,81617(0x13ed1)
1c00a760:	0293a16b 	addi.w	$r11,$r11,1256(0x4e8)
1c00a764:	14eb7d3c 	lu12i.w	$r28,482281(0x75be9)
1c00a768:	0294739c 	addi.w	$r28,$r28,1308(0x51c)
1c00a76c:	1427da3d 	lu12i.w	$r29,81617(0x13ed1)
1c00a770:	0293a3bd 	addi.w	$r29,$r29,1256(0x4e8)
1c00a774:	00107801 	add.w	$r1,$r0,$r30
1c00a778:	5c14615c 	bne	$r10,$r28,5216(0x1460) # 1c00bbd8 <inst_error>
1c00a77c:	5c145d7d 	bne	$r11,$r29,5212(0x145c) # 1c00bbd8 <inst_error>
1c00a780:	0010041e 	add.w	$r30,$r0,$r1
1c00a784:	1492a910 	lu12i.w	$r16,300360(0x49548)
1c00a788:	02ac6210 	addi.w	$r16,$r16,-1256(0xb18)
1c00a78c:	15aec5d1 	lu12i.w	$r17,-166354(0xd762e)
1c00a790:	02b04231 	addi.w	$r17,$r17,-1008(0xc10)
1c00a794:	1400000a 	lu12i.w	$r10,0
1c00a798:	1400000b 	lu12i.w	$r11,0
1c00a79c:	54000400 	bl	4(0x4) # 1c00a7a0 <n19_jirl_test+0x710>
1c00a7a0:	0280302c 	addi.w	$r12,$r1,12(0xc)
1c00a7a4:	0280902d 	addi.w	$r13,$r1,36(0x24)
1c00a7a8:	50001400 	b	20(0x14) # 1c00a7bc <n19_jirl_test+0x72c>
1c00a7ac:	1492a90a 	lu12i.w	$r10,300360(0x49548)
1c00a7b0:	02ac614a 	addi.w	$r10,$r10,-1256(0xb18)
1c00a7b4:	4c0001a0 	jirl	$r0,$r13,0
1c00a7b8:	50001400 	b	20(0x14) # 1c00a7cc <n19_jirl_test+0x73c>
1c00a7bc:	4c000180 	jirl	$r0,$r12,0
1c00a7c0:	50000c00 	b	12(0xc) # 1c00a7cc <n19_jirl_test+0x73c>
1c00a7c4:	15aec5cb 	lu12i.w	$r11,-166354(0xd762e)
1c00a7c8:	02b0416b 	addi.w	$r11,$r11,-1008(0xc10)
1c00a7cc:	1492a91c 	lu12i.w	$r28,300360(0x49548)
1c00a7d0:	02ac639c 	addi.w	$r28,$r28,-1256(0xb18)
1c00a7d4:	15aec5dd 	lu12i.w	$r29,-166354(0xd762e)
1c00a7d8:	02b043bd 	addi.w	$r29,$r29,-1008(0xc10)
1c00a7dc:	00107801 	add.w	$r1,$r0,$r30
1c00a7e0:	5c13f95c 	bne	$r10,$r28,5112(0x13f8) # 1c00bbd8 <inst_error>
1c00a7e4:	5c13f57d 	bne	$r11,$r29,5108(0x13f4) # 1c00bbd8 <inst_error>
1c00a7e8:	0010041e 	add.w	$r30,$r0,$r1
1c00a7ec:	14e1fd90 	lu12i.w	$r16,462828(0x70fec)
1c00a7f0:	0295ea10 	addi.w	$r16,$r16,1402(0x57a)
1c00a7f4:	15209071 	lu12i.w	$r17,-457597(0x90483)
1c00a7f8:	02b2fa31 	addi.w	$r17,$r17,-834(0xcbe)
1c00a7fc:	1400000a 	lu12i.w	$r10,0
1c00a800:	1400000b 	lu12i.w	$r11,0
1c00a804:	54000400 	bl	4(0x4) # 1c00a808 <n19_jirl_test+0x778>
1c00a808:	0280302c 	addi.w	$r12,$r1,12(0xc)
1c00a80c:	0280902d 	addi.w	$r13,$r1,36(0x24)
1c00a810:	50001400 	b	20(0x14) # 1c00a824 <n19_jirl_test+0x794>
1c00a814:	14e1fd8a 	lu12i.w	$r10,462828(0x70fec)
1c00a818:	0295e94a 	addi.w	$r10,$r10,1402(0x57a)
1c00a81c:	4c0001a0 	jirl	$r0,$r13,0
1c00a820:	50001400 	b	20(0x14) # 1c00a834 <n19_jirl_test+0x7a4>
1c00a824:	4c000180 	jirl	$r0,$r12,0
1c00a828:	50000c00 	b	12(0xc) # 1c00a834 <n19_jirl_test+0x7a4>
1c00a82c:	1520906b 	lu12i.w	$r11,-457597(0x90483)
1c00a830:	02b2f96b 	addi.w	$r11,$r11,-834(0xcbe)
1c00a834:	14e1fd9c 	lu12i.w	$r28,462828(0x70fec)
1c00a838:	0295eb9c 	addi.w	$r28,$r28,1402(0x57a)
1c00a83c:	1520907d 	lu12i.w	$r29,-457597(0x90483)
1c00a840:	02b2fbbd 	addi.w	$r29,$r29,-834(0xcbe)
1c00a844:	00107801 	add.w	$r1,$r0,$r30
1c00a848:	5c13915c 	bne	$r10,$r28,5008(0x1390) # 1c00bbd8 <inst_error>
1c00a84c:	5c138d7d 	bne	$r11,$r29,5004(0x138c) # 1c00bbd8 <inst_error>
1c00a850:	0010041e 	add.w	$r30,$r0,$r1
1c00a854:	15cc3670 	lu12i.w	$r16,-106061(0xe61b3)
1c00a858:	02bc2210 	addi.w	$r16,$r16,-248(0xf08)
1c00a85c:	15d41491 	lu12i.w	$r17,-89948(0xea0a4)
1c00a860:	02adfa31 	addi.w	$r17,$r17,-1154(0xb7e)
1c00a864:	1400000a 	lu12i.w	$r10,0
1c00a868:	1400000b 	lu12i.w	$r11,0
1c00a86c:	54000400 	bl	4(0x4) # 1c00a870 <n19_jirl_test+0x7e0>
1c00a870:	0280302c 	addi.w	$r12,$r1,12(0xc)
1c00a874:	0280902d 	addi.w	$r13,$r1,36(0x24)
1c00a878:	50001400 	b	20(0x14) # 1c00a88c <n19_jirl_test+0x7fc>
1c00a87c:	15cc366a 	lu12i.w	$r10,-106061(0xe61b3)
1c00a880:	02bc214a 	addi.w	$r10,$r10,-248(0xf08)
1c00a884:	4c0001a0 	jirl	$r0,$r13,0
1c00a888:	50001400 	b	20(0x14) # 1c00a89c <n19_jirl_test+0x80c>
1c00a88c:	4c000180 	jirl	$r0,$r12,0
1c00a890:	50000c00 	b	12(0xc) # 1c00a89c <n19_jirl_test+0x80c>
1c00a894:	15d4148b 	lu12i.w	$r11,-89948(0xea0a4)
1c00a898:	02adf96b 	addi.w	$r11,$r11,-1154(0xb7e)
1c00a89c:	15cc367c 	lu12i.w	$r28,-106061(0xe61b3)
1c00a8a0:	02bc239c 	addi.w	$r28,$r28,-248(0xf08)
1c00a8a4:	15d4149d 	lu12i.w	$r29,-89948(0xea0a4)
1c00a8a8:	02adfbbd 	addi.w	$r29,$r29,-1154(0xb7e)
1c00a8ac:	00107801 	add.w	$r1,$r0,$r30
1c00a8b0:	5c13295c 	bne	$r10,$r28,4904(0x1328) # 1c00bbd8 <inst_error>
1c00a8b4:	5c13257d 	bne	$r11,$r29,4900(0x1324) # 1c00bbd8 <inst_error>
1c00a8b8:	0010041e 	add.w	$r30,$r0,$r1
1c00a8bc:	1466ca50 	lu12i.w	$r16,210514(0x33652)
1c00a8c0:	02bb7a10 	addi.w	$r16,$r16,-290(0xede)
1c00a8c4:	144d9971 	lu12i.w	$r17,158923(0x26ccb)
1c00a8c8:	028d8e31 	addi.w	$r17,$r17,867(0x363)
1c00a8cc:	1400000a 	lu12i.w	$r10,0
1c00a8d0:	1400000b 	lu12i.w	$r11,0
1c00a8d4:	54000400 	bl	4(0x4) # 1c00a8d8 <n19_jirl_test+0x848>
1c00a8d8:	0280302c 	addi.w	$r12,$r1,12(0xc)
1c00a8dc:	0280902d 	addi.w	$r13,$r1,36(0x24)
1c00a8e0:	50001400 	b	20(0x14) # 1c00a8f4 <n19_jirl_test+0x864>
1c00a8e4:	1466ca4a 	lu12i.w	$r10,210514(0x33652)
1c00a8e8:	02bb794a 	addi.w	$r10,$r10,-290(0xede)
1c00a8ec:	4c0001a0 	jirl	$r0,$r13,0
1c00a8f0:	50001400 	b	20(0x14) # 1c00a904 <n19_jirl_test+0x874>
1c00a8f4:	4c000180 	jirl	$r0,$r12,0
1c00a8f8:	50000c00 	b	12(0xc) # 1c00a904 <n19_jirl_test+0x874>
1c00a8fc:	144d996b 	lu12i.w	$r11,158923(0x26ccb)
1c00a900:	028d8d6b 	addi.w	$r11,$r11,867(0x363)
1c00a904:	1466ca5c 	lu12i.w	$r28,210514(0x33652)
1c00a908:	02bb7b9c 	addi.w	$r28,$r28,-290(0xede)
1c00a90c:	144d997d 	lu12i.w	$r29,158923(0x26ccb)
1c00a910:	028d8fbd 	addi.w	$r29,$r29,867(0x363)
1c00a914:	00107801 	add.w	$r1,$r0,$r30
1c00a918:	5c12c15c 	bne	$r10,$r28,4800(0x12c0) # 1c00bbd8 <inst_error>
1c00a91c:	5c12bd7d 	bne	$r11,$r29,4796(0x12bc) # 1c00bbd8 <inst_error>
1c00a920:	0010041e 	add.w	$r30,$r0,$r1
1c00a924:	152bea10 	lu12i.w	$r16,-434352(0x95f50)
1c00a928:	02980210 	addi.w	$r16,$r16,1536(0x600)
1c00a92c:	15237011 	lu12i.w	$r17,-451712(0x91b80)
1c00a930:	02b9c231 	addi.w	$r17,$r17,-400(0xe70)
1c00a934:	1400000a 	lu12i.w	$r10,0
1c00a938:	1400000b 	lu12i.w	$r11,0
1c00a93c:	54000400 	bl	4(0x4) # 1c00a940 <n19_jirl_test+0x8b0>
1c00a940:	0280302c 	addi.w	$r12,$r1,12(0xc)
1c00a944:	0280902d 	addi.w	$r13,$r1,36(0x24)
1c00a948:	50001400 	b	20(0x14) # 1c00a95c <n19_jirl_test+0x8cc>
1c00a94c:	152bea0a 	lu12i.w	$r10,-434352(0x95f50)
1c00a950:	0298014a 	addi.w	$r10,$r10,1536(0x600)
1c00a954:	4c0001a0 	jirl	$r0,$r13,0
1c00a958:	50001400 	b	20(0x14) # 1c00a96c <n19_jirl_test+0x8dc>
1c00a95c:	4c000180 	jirl	$r0,$r12,0
1c00a960:	50000c00 	b	12(0xc) # 1c00a96c <n19_jirl_test+0x8dc>
1c00a964:	1523700b 	lu12i.w	$r11,-451712(0x91b80)
1c00a968:	02b9c16b 	addi.w	$r11,$r11,-400(0xe70)
1c00a96c:	152bea1c 	lu12i.w	$r28,-434352(0x95f50)
1c00a970:	0298039c 	addi.w	$r28,$r28,1536(0x600)
1c00a974:	1523701d 	lu12i.w	$r29,-451712(0x91b80)
1c00a978:	02b9c3bd 	addi.w	$r29,$r29,-400(0xe70)
1c00a97c:	00107801 	add.w	$r1,$r0,$r30
1c00a980:	5c12595c 	bne	$r10,$r28,4696(0x1258) # 1c00bbd8 <inst_error>
1c00a984:	5c12557d 	bne	$r11,$r29,4692(0x1254) # 1c00bbd8 <inst_error>
1c00a988:	0010041e 	add.w	$r30,$r0,$r1
1c00a98c:	14db8950 	lu12i.w	$r16,449610(0x6dc4a)
1c00a990:	02aff210 	addi.w	$r16,$r16,-1028(0xbfc)
1c00a994:	15491dd1 	lu12i.w	$r17,-374546(0xa48ee)
1c00a998:	02940231 	addi.w	$r17,$r17,1280(0x500)
1c00a99c:	1400000a 	lu12i.w	$r10,0
1c00a9a0:	1400000b 	lu12i.w	$r11,0
1c00a9a4:	54000400 	bl	4(0x4) # 1c00a9a8 <n19_jirl_test+0x918>
1c00a9a8:	0280302c 	addi.w	$r12,$r1,12(0xc)
1c00a9ac:	0280902d 	addi.w	$r13,$r1,36(0x24)
1c00a9b0:	50001400 	b	20(0x14) # 1c00a9c4 <n19_jirl_test+0x934>
1c00a9b4:	14db894a 	lu12i.w	$r10,449610(0x6dc4a)
1c00a9b8:	02aff14a 	addi.w	$r10,$r10,-1028(0xbfc)
1c00a9bc:	4c0001a0 	jirl	$r0,$r13,0
1c00a9c0:	50001400 	b	20(0x14) # 1c00a9d4 <n19_jirl_test+0x944>
1c00a9c4:	4c000180 	jirl	$r0,$r12,0
1c00a9c8:	50000c00 	b	12(0xc) # 1c00a9d4 <n19_jirl_test+0x944>
1c00a9cc:	15491dcb 	lu12i.w	$r11,-374546(0xa48ee)
1c00a9d0:	0294016b 	addi.w	$r11,$r11,1280(0x500)
1c00a9d4:	14db895c 	lu12i.w	$r28,449610(0x6dc4a)
1c00a9d8:	02aff39c 	addi.w	$r28,$r28,-1028(0xbfc)
1c00a9dc:	15491ddd 	lu12i.w	$r29,-374546(0xa48ee)
1c00a9e0:	029403bd 	addi.w	$r29,$r29,1280(0x500)
1c00a9e4:	00107801 	add.w	$r1,$r0,$r30
1c00a9e8:	5c11f15c 	bne	$r10,$r28,4592(0x11f0) # 1c00bbd8 <inst_error>
1c00a9ec:	5c11ed7d 	bne	$r11,$r29,4588(0x11ec) # 1c00bbd8 <inst_error>
1c00a9f0:	0010041e 	add.w	$r30,$r0,$r1
1c00a9f4:	14477d30 	lu12i.w	$r16,146409(0x23be9)
1c00a9f8:	02a00210 	addi.w	$r16,$r16,-2048(0x800)
1c00a9fc:	147662f1 	lu12i.w	$r17,242455(0x3b317)
1c00aa00:	02a59631 	addi.w	$r17,$r17,-1691(0x965)
1c00aa04:	1400000a 	lu12i.w	$r10,0
1c00aa08:	1400000b 	lu12i.w	$r11,0
1c00aa0c:	54000400 	bl	4(0x4) # 1c00aa10 <n19_jirl_test+0x980>
1c00aa10:	0280302c 	addi.w	$r12,$r1,12(0xc)
1c00aa14:	0280902d 	addi.w	$r13,$r1,36(0x24)
1c00aa18:	50001400 	b	20(0x14) # 1c00aa2c <n19_jirl_test+0x99c>
1c00aa1c:	14477d2a 	lu12i.w	$r10,146409(0x23be9)
1c00aa20:	02a0014a 	addi.w	$r10,$r10,-2048(0x800)
1c00aa24:	4c0001a0 	jirl	$r0,$r13,0
1c00aa28:	50001400 	b	20(0x14) # 1c00aa3c <n19_jirl_test+0x9ac>
1c00aa2c:	4c000180 	jirl	$r0,$r12,0
1c00aa30:	50000c00 	b	12(0xc) # 1c00aa3c <n19_jirl_test+0x9ac>
1c00aa34:	147662eb 	lu12i.w	$r11,242455(0x3b317)
1c00aa38:	02a5956b 	addi.w	$r11,$r11,-1691(0x965)
1c00aa3c:	14477d3c 	lu12i.w	$r28,146409(0x23be9)
1c00aa40:	02a0039c 	addi.w	$r28,$r28,-2048(0x800)
1c00aa44:	147662fd 	lu12i.w	$r29,242455(0x3b317)
1c00aa48:	02a597bd 	addi.w	$r29,$r29,-1691(0x965)
1c00aa4c:	00107801 	add.w	$r1,$r0,$r30
1c00aa50:	5c11895c 	bne	$r10,$r28,4488(0x1188) # 1c00bbd8 <inst_error>
1c00aa54:	5c11857d 	bne	$r11,$r29,4484(0x1184) # 1c00bbd8 <inst_error>
1c00aa58:	0010041e 	add.w	$r30,$r0,$r1
1c00aa5c:	15580750 	lu12i.w	$r16,-344006(0xac03a)
1c00aa60:	02a7a210 	addi.w	$r16,$r16,-1560(0x9e8)
1c00aa64:	1550a871 	lu12i.w	$r17,-359101(0xa8543)
1c00aa68:	02824a31 	addi.w	$r17,$r17,146(0x92)
1c00aa6c:	1400000a 	lu12i.w	$r10,0
1c00aa70:	1400000b 	lu12i.w	$r11,0
1c00aa74:	54000400 	bl	4(0x4) # 1c00aa78 <n19_jirl_test+0x9e8>
1c00aa78:	0280302c 	addi.w	$r12,$r1,12(0xc)
1c00aa7c:	0280902d 	addi.w	$r13,$r1,36(0x24)
1c00aa80:	50001400 	b	20(0x14) # 1c00aa94 <n19_jirl_test+0xa04>
1c00aa84:	1558074a 	lu12i.w	$r10,-344006(0xac03a)
1c00aa88:	02a7a14a 	addi.w	$r10,$r10,-1560(0x9e8)
1c00aa8c:	4c0001a0 	jirl	$r0,$r13,0
1c00aa90:	50001400 	b	20(0x14) # 1c00aaa4 <n19_jirl_test+0xa14>
1c00aa94:	4c000180 	jirl	$r0,$r12,0
1c00aa98:	50000c00 	b	12(0xc) # 1c00aaa4 <n19_jirl_test+0xa14>
1c00aa9c:	1550a86b 	lu12i.w	$r11,-359101(0xa8543)
1c00aaa0:	0282496b 	addi.w	$r11,$r11,146(0x92)
1c00aaa4:	1558075c 	lu12i.w	$r28,-344006(0xac03a)
1c00aaa8:	02a7a39c 	addi.w	$r28,$r28,-1560(0x9e8)
1c00aaac:	1550a87d 	lu12i.w	$r29,-359101(0xa8543)
1c00aab0:	02824bbd 	addi.w	$r29,$r29,146(0x92)
1c00aab4:	00107801 	add.w	$r1,$r0,$r30
1c00aab8:	5c11215c 	bne	$r10,$r28,4384(0x1120) # 1c00bbd8 <inst_error>
1c00aabc:	5c111d7d 	bne	$r11,$r29,4380(0x111c) # 1c00bbd8 <inst_error>
1c00aac0:	0010041e 	add.w	$r30,$r0,$r1
1c00aac4:	1578f6b0 	lu12i.w	$r16,-276555(0xbc7b5)
1c00aac8:	02aa0210 	addi.w	$r16,$r16,-1408(0xa80)
1c00aacc:	1549acf1 	lu12i.w	$r17,-373401(0xa4d67)
1c00aad0:	02840231 	addi.w	$r17,$r17,256(0x100)
1c00aad4:	1400000a 	lu12i.w	$r10,0
1c00aad8:	1400000b 	lu12i.w	$r11,0
1c00aadc:	54000400 	bl	4(0x4) # 1c00aae0 <n19_jirl_test+0xa50>
1c00aae0:	0280302c 	addi.w	$r12,$r1,12(0xc)
1c00aae4:	0280902d 	addi.w	$r13,$r1,36(0x24)
1c00aae8:	50001400 	b	20(0x14) # 1c00aafc <n19_jirl_test+0xa6c>
1c00aaec:	1578f6aa 	lu12i.w	$r10,-276555(0xbc7b5)
1c00aaf0:	02aa014a 	addi.w	$r10,$r10,-1408(0xa80)
1c00aaf4:	4c0001a0 	jirl	$r0,$r13,0
1c00aaf8:	50001400 	b	20(0x14) # 1c00ab0c <n19_jirl_test+0xa7c>
1c00aafc:	4c000180 	jirl	$r0,$r12,0
1c00ab00:	50000c00 	b	12(0xc) # 1c00ab0c <n19_jirl_test+0xa7c>
1c00ab04:	1549aceb 	lu12i.w	$r11,-373401(0xa4d67)
1c00ab08:	0284016b 	addi.w	$r11,$r11,256(0x100)
1c00ab0c:	1578f6bc 	lu12i.w	$r28,-276555(0xbc7b5)
1c00ab10:	02aa039c 	addi.w	$r28,$r28,-1408(0xa80)
1c00ab14:	1549acfd 	lu12i.w	$r29,-373401(0xa4d67)
1c00ab18:	028403bd 	addi.w	$r29,$r29,256(0x100)
1c00ab1c:	00107801 	add.w	$r1,$r0,$r30
1c00ab20:	5c10b95c 	bne	$r10,$r28,4280(0x10b8) # 1c00bbd8 <inst_error>
1c00ab24:	5c10b57d 	bne	$r11,$r29,4276(0x10b4) # 1c00bbd8 <inst_error>
1c00ab28:	0010041e 	add.w	$r30,$r0,$r1
1c00ab2c:	14f03710 	lu12i.w	$r16,491960(0x781b8)
1c00ab30:	02864210 	addi.w	$r16,$r16,400(0x190)
1c00ab34:	14b69b31 	lu12i.w	$r17,373977(0x5b4d9)
1c00ab38:	02a8c631 	addi.w	$r17,$r17,-1487(0xa31)
1c00ab3c:	1400000a 	lu12i.w	$r10,0
1c00ab40:	1400000b 	lu12i.w	$r11,0
1c00ab44:	54000400 	bl	4(0x4) # 1c00ab48 <n19_jirl_test+0xab8>
1c00ab48:	0280302c 	addi.w	$r12,$r1,12(0xc)
1c00ab4c:	0280902d 	addi.w	$r13,$r1,36(0x24)
1c00ab50:	50001400 	b	20(0x14) # 1c00ab64 <n19_jirl_test+0xad4>
1c00ab54:	14f0370a 	lu12i.w	$r10,491960(0x781b8)
1c00ab58:	0286414a 	addi.w	$r10,$r10,400(0x190)
1c00ab5c:	4c0001a0 	jirl	$r0,$r13,0
1c00ab60:	50001400 	b	20(0x14) # 1c00ab74 <n19_jirl_test+0xae4>
1c00ab64:	4c000180 	jirl	$r0,$r12,0
1c00ab68:	50000c00 	b	12(0xc) # 1c00ab74 <n19_jirl_test+0xae4>
1c00ab6c:	14b69b2b 	lu12i.w	$r11,373977(0x5b4d9)
1c00ab70:	02a8c56b 	addi.w	$r11,$r11,-1487(0xa31)
1c00ab74:	14f0371c 	lu12i.w	$r28,491960(0x781b8)
1c00ab78:	0286439c 	addi.w	$r28,$r28,400(0x190)
1c00ab7c:	14b69b3d 	lu12i.w	$r29,373977(0x5b4d9)
1c00ab80:	02a8c7bd 	addi.w	$r29,$r29,-1487(0xa31)
1c00ab84:	00107801 	add.w	$r1,$r0,$r30
1c00ab88:	5c10515c 	bne	$r10,$r28,4176(0x1050) # 1c00bbd8 <inst_error>
1c00ab8c:	5c104d7d 	bne	$r11,$r29,4172(0x104c) # 1c00bbd8 <inst_error>
1c00ab90:	0010041e 	add.w	$r30,$r0,$r1
1c00ab94:	15c1cc90 	lu12i.w	$r16,-127388(0xe0e64)
1c00ab98:	02ad0210 	addi.w	$r16,$r16,-1216(0xb40)
1c00ab9c:	14985e71 	lu12i.w	$r17,312051(0x4c2f3)
1c00aba0:	0294b231 	addi.w	$r17,$r17,1324(0x52c)
1c00aba4:	1400000a 	lu12i.w	$r10,0
1c00aba8:	1400000b 	lu12i.w	$r11,0
1c00abac:	54000400 	bl	4(0x4) # 1c00abb0 <n19_jirl_test+0xb20>
1c00abb0:	0280302c 	addi.w	$r12,$r1,12(0xc)
1c00abb4:	0280902d 	addi.w	$r13,$r1,36(0x24)
1c00abb8:	50001400 	b	20(0x14) # 1c00abcc <n19_jirl_test+0xb3c>
1c00abbc:	15c1cc8a 	lu12i.w	$r10,-127388(0xe0e64)
1c00abc0:	02ad014a 	addi.w	$r10,$r10,-1216(0xb40)
1c00abc4:	4c0001a0 	jirl	$r0,$r13,0
1c00abc8:	50001400 	b	20(0x14) # 1c00abdc <n19_jirl_test+0xb4c>
1c00abcc:	4c000180 	jirl	$r0,$r12,0
1c00abd0:	50000c00 	b	12(0xc) # 1c00abdc <n19_jirl_test+0xb4c>
1c00abd4:	14985e6b 	lu12i.w	$r11,312051(0x4c2f3)
1c00abd8:	0294b16b 	addi.w	$r11,$r11,1324(0x52c)
1c00abdc:	15c1cc9c 	lu12i.w	$r28,-127388(0xe0e64)
1c00abe0:	02ad039c 	addi.w	$r28,$r28,-1216(0xb40)
1c00abe4:	14985e7d 	lu12i.w	$r29,312051(0x4c2f3)
1c00abe8:	0294b3bd 	addi.w	$r29,$r29,1324(0x52c)
1c00abec:	00107801 	add.w	$r1,$r0,$r30
1c00abf0:	5c0fe95c 	bne	$r10,$r28,4072(0xfe8) # 1c00bbd8 <inst_error>
1c00abf4:	5c0fe57d 	bne	$r11,$r29,4068(0xfe4) # 1c00bbd8 <inst_error>
1c00abf8:	0010041e 	add.w	$r30,$r0,$r1
1c00abfc:	15e25af0 	lu12i.w	$r16,-60713(0xf12d7)
1c00ac00:	02a31210 	addi.w	$r16,$r16,-1852(0x8c4)
1c00ac04:	14839811 	lu12i.w	$r17,269504(0x41cc0)
1c00ac08:	02a32231 	addi.w	$r17,$r17,-1848(0x8c8)
1c00ac0c:	1400000a 	lu12i.w	$r10,0
1c00ac10:	1400000b 	lu12i.w	$r11,0
1c00ac14:	54000400 	bl	4(0x4) # 1c00ac18 <n19_jirl_test+0xb88>
1c00ac18:	0280302c 	addi.w	$r12,$r1,12(0xc)
1c00ac1c:	0280902d 	addi.w	$r13,$r1,36(0x24)
1c00ac20:	50001400 	b	20(0x14) # 1c00ac34 <n19_jirl_test+0xba4>
1c00ac24:	15e25aea 	lu12i.w	$r10,-60713(0xf12d7)
1c00ac28:	02a3114a 	addi.w	$r10,$r10,-1852(0x8c4)
1c00ac2c:	4c0001a0 	jirl	$r0,$r13,0
1c00ac30:	50001400 	b	20(0x14) # 1c00ac44 <n19_jirl_test+0xbb4>
1c00ac34:	4c000180 	jirl	$r0,$r12,0
1c00ac38:	50000c00 	b	12(0xc) # 1c00ac44 <n19_jirl_test+0xbb4>
1c00ac3c:	1483980b 	lu12i.w	$r11,269504(0x41cc0)
1c00ac40:	02a3216b 	addi.w	$r11,$r11,-1848(0x8c8)
1c00ac44:	15e25afc 	lu12i.w	$r28,-60713(0xf12d7)
1c00ac48:	02a3139c 	addi.w	$r28,$r28,-1852(0x8c4)
1c00ac4c:	1483981d 	lu12i.w	$r29,269504(0x41cc0)
1c00ac50:	02a323bd 	addi.w	$r29,$r29,-1848(0x8c8)
1c00ac54:	00107801 	add.w	$r1,$r0,$r30
1c00ac58:	5c0f815c 	bne	$r10,$r28,3968(0xf80) # 1c00bbd8 <inst_error>
1c00ac5c:	5c0f7d7d 	bne	$r11,$r29,3964(0xf7c) # 1c00bbd8 <inst_error>
1c00ac60:	0010041e 	add.w	$r30,$r0,$r1
1c00ac64:	143da3b0 	lu12i.w	$r16,126237(0x1ed1d)
1c00ac68:	0284a210 	addi.w	$r16,$r16,296(0x128)
1c00ac6c:	14a01a91 	lu12i.w	$r17,327892(0x500d4)
1c00ac70:	0283e231 	addi.w	$r17,$r17,248(0xf8)
1c00ac74:	1400000a 	lu12i.w	$r10,0
1c00ac78:	1400000b 	lu12i.w	$r11,0
1c00ac7c:	54000400 	bl	4(0x4) # 1c00ac80 <n19_jirl_test+0xbf0>
1c00ac80:	0280302c 	addi.w	$r12,$r1,12(0xc)
1c00ac84:	0280902d 	addi.w	$r13,$r1,36(0x24)
1c00ac88:	50001400 	b	20(0x14) # 1c00ac9c <n19_jirl_test+0xc0c>
1c00ac8c:	143da3aa 	lu12i.w	$r10,126237(0x1ed1d)
1c00ac90:	0284a14a 	addi.w	$r10,$r10,296(0x128)
1c00ac94:	4c0001a0 	jirl	$r0,$r13,0
1c00ac98:	50001400 	b	20(0x14) # 1c00acac <n19_jirl_test+0xc1c>
1c00ac9c:	4c000180 	jirl	$r0,$r12,0
1c00aca0:	50000c00 	b	12(0xc) # 1c00acac <n19_jirl_test+0xc1c>
1c00aca4:	14a01a8b 	lu12i.w	$r11,327892(0x500d4)
1c00aca8:	0283e16b 	addi.w	$r11,$r11,248(0xf8)
1c00acac:	143da3bc 	lu12i.w	$r28,126237(0x1ed1d)
1c00acb0:	0284a39c 	addi.w	$r28,$r28,296(0x128)
1c00acb4:	14a01a9d 	lu12i.w	$r29,327892(0x500d4)
1c00acb8:	0283e3bd 	addi.w	$r29,$r29,248(0xf8)
1c00acbc:	00107801 	add.w	$r1,$r0,$r30
1c00acc0:	5c0f195c 	bne	$r10,$r28,3864(0xf18) # 1c00bbd8 <inst_error>
1c00acc4:	5c0f157d 	bne	$r11,$r29,3860(0xf14) # 1c00bbd8 <inst_error>
1c00acc8:	0010041e 	add.w	$r30,$r0,$r1
1c00accc:	155d3bb0 	lu12i.w	$r16,-333347(0xae9dd)
1c00acd0:	0280e210 	addi.w	$r16,$r16,56(0x38)
1c00acd4:	14d11731 	lu12i.w	$r17,428217(0x688b9)
1c00acd8:	02af8a31 	addi.w	$r17,$r17,-1054(0xbe2)
1c00acdc:	1400000a 	lu12i.w	$r10,0
1c00ace0:	1400000b 	lu12i.w	$r11,0
1c00ace4:	54000400 	bl	4(0x4) # 1c00ace8 <n19_jirl_test+0xc58>
1c00ace8:	0280302c 	addi.w	$r12,$r1,12(0xc)
1c00acec:	0280902d 	addi.w	$r13,$r1,36(0x24)
1c00acf0:	50001400 	b	20(0x14) # 1c00ad04 <n19_jirl_test+0xc74>
1c00acf4:	155d3baa 	lu12i.w	$r10,-333347(0xae9dd)
1c00acf8:	0280e14a 	addi.w	$r10,$r10,56(0x38)
1c00acfc:	4c0001a0 	jirl	$r0,$r13,0
1c00ad00:	50001400 	b	20(0x14) # 1c00ad14 <n19_jirl_test+0xc84>
1c00ad04:	4c000180 	jirl	$r0,$r12,0
1c00ad08:	50000c00 	b	12(0xc) # 1c00ad14 <n19_jirl_test+0xc84>
1c00ad0c:	14d1172b 	lu12i.w	$r11,428217(0x688b9)
1c00ad10:	02af896b 	addi.w	$r11,$r11,-1054(0xbe2)
1c00ad14:	155d3bbc 	lu12i.w	$r28,-333347(0xae9dd)
1c00ad18:	0280e39c 	addi.w	$r28,$r28,56(0x38)
1c00ad1c:	14d1173d 	lu12i.w	$r29,428217(0x688b9)
1c00ad20:	02af8bbd 	addi.w	$r29,$r29,-1054(0xbe2)
1c00ad24:	00107801 	add.w	$r1,$r0,$r30
1c00ad28:	5c0eb15c 	bne	$r10,$r28,3760(0xeb0) # 1c00bbd8 <inst_error>
1c00ad2c:	5c0ead7d 	bne	$r11,$r29,3756(0xeac) # 1c00bbd8 <inst_error>
1c00ad30:	0010041e 	add.w	$r30,$r0,$r1
1c00ad34:	15be77b0 	lu12i.w	$r16,-134211(0xdf3bd)
1c00ad38:	02acf610 	addi.w	$r16,$r16,-1219(0xb3d)
1c00ad3c:	158e2ed1 	lu12i.w	$r17,-233098(0xc7176)
1c00ad40:	02b9a231 	addi.w	$r17,$r17,-408(0xe68)
1c00ad44:	1400000a 	lu12i.w	$r10,0
1c00ad48:	1400000b 	lu12i.w	$r11,0
1c00ad4c:	54000400 	bl	4(0x4) # 1c00ad50 <n19_jirl_test+0xcc0>
1c00ad50:	0280302c 	addi.w	$r12,$r1,12(0xc)
1c00ad54:	0280902d 	addi.w	$r13,$r1,36(0x24)
1c00ad58:	50001400 	b	20(0x14) # 1c00ad6c <n19_jirl_test+0xcdc>
1c00ad5c:	15be77aa 	lu12i.w	$r10,-134211(0xdf3bd)
1c00ad60:	02acf54a 	addi.w	$r10,$r10,-1219(0xb3d)
1c00ad64:	4c0001a0 	jirl	$r0,$r13,0
1c00ad68:	50001400 	b	20(0x14) # 1c00ad7c <n19_jirl_test+0xcec>
1c00ad6c:	4c000180 	jirl	$r0,$r12,0
1c00ad70:	50000c00 	b	12(0xc) # 1c00ad7c <n19_jirl_test+0xcec>
1c00ad74:	158e2ecb 	lu12i.w	$r11,-233098(0xc7176)
1c00ad78:	02b9a16b 	addi.w	$r11,$r11,-408(0xe68)
1c00ad7c:	15be77bc 	lu12i.w	$r28,-134211(0xdf3bd)
1c00ad80:	02acf79c 	addi.w	$r28,$r28,-1219(0xb3d)
1c00ad84:	158e2edd 	lu12i.w	$r29,-233098(0xc7176)
1c00ad88:	02b9a3bd 	addi.w	$r29,$r29,-408(0xe68)
1c00ad8c:	00107801 	add.w	$r1,$r0,$r30
1c00ad90:	5c0e495c 	bne	$r10,$r28,3656(0xe48) # 1c00bbd8 <inst_error>
1c00ad94:	5c0e457d 	bne	$r11,$r29,3652(0xe44) # 1c00bbd8 <inst_error>
1c00ad98:	0010041e 	add.w	$r30,$r0,$r1
1c00ad9c:	14b02770 	lu12i.w	$r16,360763(0x5813b)
1c00ada0:	029dfa10 	addi.w	$r16,$r16,1918(0x77e)
1c00ada4:	15854591 	lu12i.w	$r17,-251348(0xc2a2c)
1c00ada8:	028f9a31 	addi.w	$r17,$r17,998(0x3e6)
1c00adac:	1400000a 	lu12i.w	$r10,0
1c00adb0:	1400000b 	lu12i.w	$r11,0
1c00adb4:	54000400 	bl	4(0x4) # 1c00adb8 <n19_jirl_test+0xd28>
1c00adb8:	0280302c 	addi.w	$r12,$r1,12(0xc)
1c00adbc:	0280902d 	addi.w	$r13,$r1,36(0x24)
1c00adc0:	50001400 	b	20(0x14) # 1c00add4 <n19_jirl_test+0xd44>
1c00adc4:	14b0276a 	lu12i.w	$r10,360763(0x5813b)
1c00adc8:	029df94a 	addi.w	$r10,$r10,1918(0x77e)
1c00adcc:	4c0001a0 	jirl	$r0,$r13,0
1c00add0:	50001400 	b	20(0x14) # 1c00ade4 <n19_jirl_test+0xd54>
1c00add4:	4c000180 	jirl	$r0,$r12,0
1c00add8:	50000c00 	b	12(0xc) # 1c00ade4 <n19_jirl_test+0xd54>
1c00addc:	1585458b 	lu12i.w	$r11,-251348(0xc2a2c)
1c00ade0:	028f996b 	addi.w	$r11,$r11,998(0x3e6)
1c00ade4:	14b0277c 	lu12i.w	$r28,360763(0x5813b)
1c00ade8:	029dfb9c 	addi.w	$r28,$r28,1918(0x77e)
1c00adec:	1585459d 	lu12i.w	$r29,-251348(0xc2a2c)
1c00adf0:	028f9bbd 	addi.w	$r29,$r29,998(0x3e6)
1c00adf4:	00107801 	add.w	$r1,$r0,$r30
1c00adf8:	5c0de15c 	bne	$r10,$r28,3552(0xde0) # 1c00bbd8 <inst_error>
1c00adfc:	5c0ddd7d 	bne	$r11,$r29,3548(0xddc) # 1c00bbd8 <inst_error>
1c00ae00:	0010041e 	add.w	$r30,$r0,$r1
1c00ae04:	143d9410 	lu12i.w	$r16,126112(0x1eca0)
1c00ae08:	02a24210 	addi.w	$r16,$r16,-1904(0x890)
1c00ae0c:	142ded11 	lu12i.w	$r17,94056(0x16f68)
1c00ae10:	02a20231 	addi.w	$r17,$r17,-1920(0x880)
1c00ae14:	1400000a 	lu12i.w	$r10,0
1c00ae18:	1400000b 	lu12i.w	$r11,0
1c00ae1c:	54000400 	bl	4(0x4) # 1c00ae20 <n19_jirl_test+0xd90>
1c00ae20:	0280302c 	addi.w	$r12,$r1,12(0xc)
1c00ae24:	0280902d 	addi.w	$r13,$r1,36(0x24)
1c00ae28:	50001400 	b	20(0x14) # 1c00ae3c <n19_jirl_test+0xdac>
1c00ae2c:	143d940a 	lu12i.w	$r10,126112(0x1eca0)
1c00ae30:	02a2414a 	addi.w	$r10,$r10,-1904(0x890)
1c00ae34:	4c0001a0 	jirl	$r0,$r13,0
1c00ae38:	50001400 	b	20(0x14) # 1c00ae4c <n19_jirl_test+0xdbc>
1c00ae3c:	4c000180 	jirl	$r0,$r12,0
1c00ae40:	50000c00 	b	12(0xc) # 1c00ae4c <n19_jirl_test+0xdbc>
1c00ae44:	142ded0b 	lu12i.w	$r11,94056(0x16f68)
1c00ae48:	02a2016b 	addi.w	$r11,$r11,-1920(0x880)
1c00ae4c:	143d941c 	lu12i.w	$r28,126112(0x1eca0)
1c00ae50:	02a2439c 	addi.w	$r28,$r28,-1904(0x890)
1c00ae54:	142ded1d 	lu12i.w	$r29,94056(0x16f68)
1c00ae58:	02a203bd 	addi.w	$r29,$r29,-1920(0x880)
1c00ae5c:	00107801 	add.w	$r1,$r0,$r30
1c00ae60:	5c0d795c 	bne	$r10,$r28,3448(0xd78) # 1c00bbd8 <inst_error>
1c00ae64:	5c0d757d 	bne	$r11,$r29,3444(0xd74) # 1c00bbd8 <inst_error>
1c00ae68:	0010041e 	add.w	$r30,$r0,$r1
1c00ae6c:	15fdbdf0 	lu12i.w	$r16,-4625(0xfedef)
1c00ae70:	0286a210 	addi.w	$r16,$r16,424(0x1a8)
1c00ae74:	15f58431 	lu12i.w	$r17,-21471(0xfac21)
1c00ae78:	02aa6231 	addi.w	$r17,$r17,-1384(0xa98)
1c00ae7c:	1400000a 	lu12i.w	$r10,0
1c00ae80:	1400000b 	lu12i.w	$r11,0
1c00ae84:	54000400 	bl	4(0x4) # 1c00ae88 <n19_jirl_test+0xdf8>
1c00ae88:	0280302c 	addi.w	$r12,$r1,12(0xc)
1c00ae8c:	0280902d 	addi.w	$r13,$r1,36(0x24)
1c00ae90:	50001400 	b	20(0x14) # 1c00aea4 <n19_jirl_test+0xe14>
1c00ae94:	15fdbdea 	lu12i.w	$r10,-4625(0xfedef)
1c00ae98:	0286a14a 	addi.w	$r10,$r10,424(0x1a8)
1c00ae9c:	4c0001a0 	jirl	$r0,$r13,0
1c00aea0:	50001400 	b	20(0x14) # 1c00aeb4 <n19_jirl_test+0xe24>
1c00aea4:	4c000180 	jirl	$r0,$r12,0
1c00aea8:	50000c00 	b	12(0xc) # 1c00aeb4 <n19_jirl_test+0xe24>
1c00aeac:	15f5842b 	lu12i.w	$r11,-21471(0xfac21)
1c00aeb0:	02aa616b 	addi.w	$r11,$r11,-1384(0xa98)
1c00aeb4:	15fdbdfc 	lu12i.w	$r28,-4625(0xfedef)
1c00aeb8:	0286a39c 	addi.w	$r28,$r28,424(0x1a8)
1c00aebc:	15f5843d 	lu12i.w	$r29,-21471(0xfac21)
1c00aec0:	02aa63bd 	addi.w	$r29,$r29,-1384(0xa98)
1c00aec4:	00107801 	add.w	$r1,$r0,$r30
1c00aec8:	5c0d115c 	bne	$r10,$r28,3344(0xd10) # 1c00bbd8 <inst_error>
1c00aecc:	5c0d0d7d 	bne	$r11,$r29,3340(0xd0c) # 1c00bbd8 <inst_error>
1c00aed0:	0010041e 	add.w	$r30,$r0,$r1
1c00aed4:	14e7b210 	lu12i.w	$r16,474512(0x73d90)
1c00aed8:	02be7e10 	addi.w	$r16,$r16,-97(0xf9f)
1c00aedc:	1536a931 	lu12i.w	$r17,-412343(0x9b549)
1c00aee0:	02b63a31 	addi.w	$r17,$r17,-626(0xd8e)
1c00aee4:	1400000a 	lu12i.w	$r10,0
1c00aee8:	1400000b 	lu12i.w	$r11,0
1c00aeec:	54000400 	bl	4(0x4) # 1c00aef0 <n19_jirl_test+0xe60>
1c00aef0:	0280302c 	addi.w	$r12,$r1,12(0xc)
1c00aef4:	0280902d 	addi.w	$r13,$r1,36(0x24)
1c00aef8:	50001400 	b	20(0x14) # 1c00af0c <n19_jirl_test+0xe7c>
1c00aefc:	14e7b20a 	lu12i.w	$r10,474512(0x73d90)
1c00af00:	02be7d4a 	addi.w	$r10,$r10,-97(0xf9f)
1c00af04:	4c0001a0 	jirl	$r0,$r13,0
1c00af08:	50001400 	b	20(0x14) # 1c00af1c <n19_jirl_test+0xe8c>
1c00af0c:	4c000180 	jirl	$r0,$r12,0
1c00af10:	50000c00 	b	12(0xc) # 1c00af1c <n19_jirl_test+0xe8c>
1c00af14:	1536a92b 	lu12i.w	$r11,-412343(0x9b549)
1c00af18:	02b6396b 	addi.w	$r11,$r11,-626(0xd8e)
1c00af1c:	14e7b21c 	lu12i.w	$r28,474512(0x73d90)
1c00af20:	02be7f9c 	addi.w	$r28,$r28,-97(0xf9f)
1c00af24:	1536a93d 	lu12i.w	$r29,-412343(0x9b549)
1c00af28:	02b63bbd 	addi.w	$r29,$r29,-626(0xd8e)
1c00af2c:	00107801 	add.w	$r1,$r0,$r30
1c00af30:	5c0ca95c 	bne	$r10,$r28,3240(0xca8) # 1c00bbd8 <inst_error>
1c00af34:	5c0ca57d 	bne	$r11,$r29,3236(0xca4) # 1c00bbd8 <inst_error>
1c00af38:	0010041e 	add.w	$r30,$r0,$r1
1c00af3c:	15df9f30 	lu12i.w	$r16,-66311(0xefcf9)
1c00af40:	029f0210 	addi.w	$r16,$r16,1984(0x7c0)
1c00af44:	15b48711 	lu12i.w	$r17,-154568(0xda438)
1c00af48:	02872a31 	addi.w	$r17,$r17,458(0x1ca)
1c00af4c:	1400000a 	lu12i.w	$r10,0
1c00af50:	1400000b 	lu12i.w	$r11,0
1c00af54:	54000400 	bl	4(0x4) # 1c00af58 <n19_jirl_test+0xec8>
1c00af58:	0280302c 	addi.w	$r12,$r1,12(0xc)
1c00af5c:	0280902d 	addi.w	$r13,$r1,36(0x24)
1c00af60:	50001400 	b	20(0x14) # 1c00af74 <n19_jirl_test+0xee4>
1c00af64:	15df9f2a 	lu12i.w	$r10,-66311(0xefcf9)
1c00af68:	029f014a 	addi.w	$r10,$r10,1984(0x7c0)
1c00af6c:	4c0001a0 	jirl	$r0,$r13,0
1c00af70:	50001400 	b	20(0x14) # 1c00af84 <n19_jirl_test+0xef4>
1c00af74:	4c000180 	jirl	$r0,$r12,0
1c00af78:	50000c00 	b	12(0xc) # 1c00af84 <n19_jirl_test+0xef4>
1c00af7c:	15b4870b 	lu12i.w	$r11,-154568(0xda438)
1c00af80:	0287296b 	addi.w	$r11,$r11,458(0x1ca)
1c00af84:	15df9f3c 	lu12i.w	$r28,-66311(0xefcf9)
1c00af88:	029f039c 	addi.w	$r28,$r28,1984(0x7c0)
1c00af8c:	15b4871d 	lu12i.w	$r29,-154568(0xda438)
1c00af90:	02872bbd 	addi.w	$r29,$r29,458(0x1ca)
1c00af94:	00107801 	add.w	$r1,$r0,$r30
1c00af98:	5c0c415c 	bne	$r10,$r28,3136(0xc40) # 1c00bbd8 <inst_error>
1c00af9c:	5c0c3d7d 	bne	$r11,$r29,3132(0xc3c) # 1c00bbd8 <inst_error>
1c00afa0:	0010041e 	add.w	$r30,$r0,$r1
1c00afa4:	15f714d0 	lu12i.w	$r16,-18266(0xfb8a6)
1c00afa8:	02a3c210 	addi.w	$r16,$r16,-1808(0x8f0)
1c00afac:	15266431 	lu12i.w	$r17,-445663(0x93321)
1c00afb0:	02b60231 	addi.w	$r17,$r17,-640(0xd80)
1c00afb4:	1400000a 	lu12i.w	$r10,0
1c00afb8:	1400000b 	lu12i.w	$r11,0
1c00afbc:	54000400 	bl	4(0x4) # 1c00afc0 <n19_jirl_test+0xf30>
1c00afc0:	0280302c 	addi.w	$r12,$r1,12(0xc)
1c00afc4:	0280902d 	addi.w	$r13,$r1,36(0x24)
1c00afc8:	50001400 	b	20(0x14) # 1c00afdc <n19_jirl_test+0xf4c>
1c00afcc:	15f714ca 	lu12i.w	$r10,-18266(0xfb8a6)
1c00afd0:	02a3c14a 	addi.w	$r10,$r10,-1808(0x8f0)
1c00afd4:	4c0001a0 	jirl	$r0,$r13,0
1c00afd8:	50001400 	b	20(0x14) # 1c00afec <n19_jirl_test+0xf5c>
1c00afdc:	4c000180 	jirl	$r0,$r12,0
1c00afe0:	50000c00 	b	12(0xc) # 1c00afec <n19_jirl_test+0xf5c>
1c00afe4:	1526642b 	lu12i.w	$r11,-445663(0x93321)
1c00afe8:	02b6016b 	addi.w	$r11,$r11,-640(0xd80)
1c00afec:	15f714dc 	lu12i.w	$r28,-18266(0xfb8a6)
1c00aff0:	02a3c39c 	addi.w	$r28,$r28,-1808(0x8f0)
1c00aff4:	1526643d 	lu12i.w	$r29,-445663(0x93321)
1c00aff8:	02b603bd 	addi.w	$r29,$r29,-640(0xd80)
1c00affc:	00107801 	add.w	$r1,$r0,$r30
1c00b000:	5c0bd95c 	bne	$r10,$r28,3032(0xbd8) # 1c00bbd8 <inst_error>
1c00b004:	5c0bd57d 	bne	$r11,$r29,3028(0xbd4) # 1c00bbd8 <inst_error>
1c00b008:	0010041e 	add.w	$r30,$r0,$r1
1c00b00c:	14e091f0 	lu12i.w	$r16,459919(0x7048f)
1c00b010:	02a9c210 	addi.w	$r16,$r16,-1424(0xa70)
1c00b014:	1467a591 	lu12i.w	$r17,212268(0x33d2c)
1c00b018:	02988231 	addi.w	$r17,$r17,1568(0x620)
1c00b01c:	1400000a 	lu12i.w	$r10,0
1c00b020:	1400000b 	lu12i.w	$r11,0
1c00b024:	54000400 	bl	4(0x4) # 1c00b028 <n19_jirl_test+0xf98>
1c00b028:	0280302c 	addi.w	$r12,$r1,12(0xc)
1c00b02c:	0280902d 	addi.w	$r13,$r1,36(0x24)
1c00b030:	50001400 	b	20(0x14) # 1c00b044 <n19_jirl_test+0xfb4>
1c00b034:	14e091ea 	lu12i.w	$r10,459919(0x7048f)
1c00b038:	02a9c14a 	addi.w	$r10,$r10,-1424(0xa70)
1c00b03c:	4c0001a0 	jirl	$r0,$r13,0
1c00b040:	50001400 	b	20(0x14) # 1c00b054 <n19_jirl_test+0xfc4>
1c00b044:	4c000180 	jirl	$r0,$r12,0
1c00b048:	50000c00 	b	12(0xc) # 1c00b054 <n19_jirl_test+0xfc4>
1c00b04c:	1467a58b 	lu12i.w	$r11,212268(0x33d2c)
1c00b050:	0298816b 	addi.w	$r11,$r11,1568(0x620)
1c00b054:	14e091fc 	lu12i.w	$r28,459919(0x7048f)
1c00b058:	02a9c39c 	addi.w	$r28,$r28,-1424(0xa70)
1c00b05c:	1467a59d 	lu12i.w	$r29,212268(0x33d2c)
1c00b060:	029883bd 	addi.w	$r29,$r29,1568(0x620)
1c00b064:	00107801 	add.w	$r1,$r0,$r30
1c00b068:	5c0b715c 	bne	$r10,$r28,2928(0xb70) # 1c00bbd8 <inst_error>
1c00b06c:	5c0b6d7d 	bne	$r11,$r29,2924(0xb6c) # 1c00bbd8 <inst_error>
1c00b070:	0010041e 	add.w	$r30,$r0,$r1
1c00b074:	14a6f1f0 	lu12i.w	$r16,341903(0x5378f)
1c00b078:	0288fa10 	addi.w	$r16,$r16,574(0x23e)
1c00b07c:	15fbf311 	lu12i.w	$r17,-8296(0xfdf98)
1c00b080:	02b08231 	addi.w	$r17,$r17,-992(0xc20)
1c00b084:	1400000a 	lu12i.w	$r10,0
1c00b088:	1400000b 	lu12i.w	$r11,0
1c00b08c:	54000400 	bl	4(0x4) # 1c00b090 <n19_jirl_test+0x1000>
1c00b090:	0280302c 	addi.w	$r12,$r1,12(0xc)
1c00b094:	0280902d 	addi.w	$r13,$r1,36(0x24)
1c00b098:	50001400 	b	20(0x14) # 1c00b0ac <n19_jirl_test+0x101c>
1c00b09c:	14a6f1ea 	lu12i.w	$r10,341903(0x5378f)
1c00b0a0:	0288f94a 	addi.w	$r10,$r10,574(0x23e)
1c00b0a4:	4c0001a0 	jirl	$r0,$r13,0
1c00b0a8:	50001400 	b	20(0x14) # 1c00b0bc <n19_jirl_test+0x102c>
1c00b0ac:	4c000180 	jirl	$r0,$r12,0
1c00b0b0:	50000c00 	b	12(0xc) # 1c00b0bc <n19_jirl_test+0x102c>
1c00b0b4:	15fbf30b 	lu12i.w	$r11,-8296(0xfdf98)
1c00b0b8:	02b0816b 	addi.w	$r11,$r11,-992(0xc20)
1c00b0bc:	14a6f1fc 	lu12i.w	$r28,341903(0x5378f)
1c00b0c0:	0288fb9c 	addi.w	$r28,$r28,574(0x23e)
1c00b0c4:	15fbf31d 	lu12i.w	$r29,-8296(0xfdf98)
1c00b0c8:	02b083bd 	addi.w	$r29,$r29,-992(0xc20)
1c00b0cc:	00107801 	add.w	$r1,$r0,$r30
1c00b0d0:	5c0b095c 	bne	$r10,$r28,2824(0xb08) # 1c00bbd8 <inst_error>
1c00b0d4:	5c0b057d 	bne	$r11,$r29,2820(0xb04) # 1c00bbd8 <inst_error>
1c00b0d8:	0010041e 	add.w	$r30,$r0,$r1
1c00b0dc:	1419bfd0 	lu12i.w	$r16,52734(0xcdfe)
1c00b0e0:	02b00210 	addi.w	$r16,$r16,-1024(0xc00)
1c00b0e4:	14a3a011 	lu12i.w	$r17,335104(0x51d00)
1c00b0e8:	02ad9231 	addi.w	$r17,$r17,-1180(0xb64)
1c00b0ec:	1400000a 	lu12i.w	$r10,0
1c00b0f0:	1400000b 	lu12i.w	$r11,0
1c00b0f4:	54000400 	bl	4(0x4) # 1c00b0f8 <n19_jirl_test+0x1068>
1c00b0f8:	0280302c 	addi.w	$r12,$r1,12(0xc)
1c00b0fc:	0280902d 	addi.w	$r13,$r1,36(0x24)
1c00b100:	50001400 	b	20(0x14) # 1c00b114 <n19_jirl_test+0x1084>
1c00b104:	1419bfca 	lu12i.w	$r10,52734(0xcdfe)
1c00b108:	02b0014a 	addi.w	$r10,$r10,-1024(0xc00)
1c00b10c:	4c0001a0 	jirl	$r0,$r13,0
1c00b110:	50001400 	b	20(0x14) # 1c00b124 <n19_jirl_test+0x1094>
1c00b114:	4c000180 	jirl	$r0,$r12,0
1c00b118:	50000c00 	b	12(0xc) # 1c00b124 <n19_jirl_test+0x1094>
1c00b11c:	14a3a00b 	lu12i.w	$r11,335104(0x51d00)
1c00b120:	02ad916b 	addi.w	$r11,$r11,-1180(0xb64)
1c00b124:	1419bfdc 	lu12i.w	$r28,52734(0xcdfe)
1c00b128:	02b0039c 	addi.w	$r28,$r28,-1024(0xc00)
1c00b12c:	14a3a01d 	lu12i.w	$r29,335104(0x51d00)
1c00b130:	02ad93bd 	addi.w	$r29,$r29,-1180(0xb64)
1c00b134:	00107801 	add.w	$r1,$r0,$r30
1c00b138:	5c0aa15c 	bne	$r10,$r28,2720(0xaa0) # 1c00bbd8 <inst_error>
1c00b13c:	5c0a9d7d 	bne	$r11,$r29,2716(0xa9c) # 1c00bbd8 <inst_error>
1c00b140:	0010041e 	add.w	$r30,$r0,$r1
1c00b144:	14ed6090 	lu12i.w	$r16,486148(0x76b04)
1c00b148:	029f8210 	addi.w	$r16,$r16,2016(0x7e0)
1c00b14c:	15e49b91 	lu12i.w	$r17,-56100(0xf24dc)
1c00b150:	02950231 	addi.w	$r17,$r17,1344(0x540)
1c00b154:	1400000a 	lu12i.w	$r10,0
1c00b158:	1400000b 	lu12i.w	$r11,0
1c00b15c:	54000400 	bl	4(0x4) # 1c00b160 <n19_jirl_test+0x10d0>
1c00b160:	0280302c 	addi.w	$r12,$r1,12(0xc)
1c00b164:	0280902d 	addi.w	$r13,$r1,36(0x24)
1c00b168:	50001400 	b	20(0x14) # 1c00b17c <n19_jirl_test+0x10ec>
1c00b16c:	14ed608a 	lu12i.w	$r10,486148(0x76b04)
1c00b170:	029f814a 	addi.w	$r10,$r10,2016(0x7e0)
1c00b174:	4c0001a0 	jirl	$r0,$r13,0
1c00b178:	50001400 	b	20(0x14) # 1c00b18c <n19_jirl_test+0x10fc>
1c00b17c:	4c000180 	jirl	$r0,$r12,0
1c00b180:	50000c00 	b	12(0xc) # 1c00b18c <n19_jirl_test+0x10fc>
1c00b184:	15e49b8b 	lu12i.w	$r11,-56100(0xf24dc)
1c00b188:	0295016b 	addi.w	$r11,$r11,1344(0x540)
1c00b18c:	14ed609c 	lu12i.w	$r28,486148(0x76b04)
1c00b190:	029f839c 	addi.w	$r28,$r28,2016(0x7e0)
1c00b194:	15e49b9d 	lu12i.w	$r29,-56100(0xf24dc)
1c00b198:	029503bd 	addi.w	$r29,$r29,1344(0x540)
1c00b19c:	00107801 	add.w	$r1,$r0,$r30
1c00b1a0:	5c0a395c 	bne	$r10,$r28,2616(0xa38) # 1c00bbd8 <inst_error>
1c00b1a4:	5c0a357d 	bne	$r11,$r29,2612(0xa34) # 1c00bbd8 <inst_error>
1c00b1a8:	0010041e 	add.w	$r30,$r0,$r1
1c00b1ac:	14f5b930 	lu12i.w	$r16,503241(0x7adc9)
1c00b1b0:	029a4210 	addi.w	$r16,$r16,1680(0x690)
1c00b1b4:	14b5bb31 	lu12i.w	$r17,372185(0x5add9)
1c00b1b8:	02b82231 	addi.w	$r17,$r17,-504(0xe08)
1c00b1bc:	1400000a 	lu12i.w	$r10,0
1c00b1c0:	1400000b 	lu12i.w	$r11,0
1c00b1c4:	54000400 	bl	4(0x4) # 1c00b1c8 <n19_jirl_test+0x1138>
1c00b1c8:	0280302c 	addi.w	$r12,$r1,12(0xc)
1c00b1cc:	0280902d 	addi.w	$r13,$r1,36(0x24)
1c00b1d0:	50001400 	b	20(0x14) # 1c00b1e4 <n19_jirl_test+0x1154>
1c00b1d4:	14f5b92a 	lu12i.w	$r10,503241(0x7adc9)
1c00b1d8:	029a414a 	addi.w	$r10,$r10,1680(0x690)
1c00b1dc:	4c0001a0 	jirl	$r0,$r13,0
1c00b1e0:	50001400 	b	20(0x14) # 1c00b1f4 <n19_jirl_test+0x1164>
1c00b1e4:	4c000180 	jirl	$r0,$r12,0
1c00b1e8:	50000c00 	b	12(0xc) # 1c00b1f4 <n19_jirl_test+0x1164>
1c00b1ec:	14b5bb2b 	lu12i.w	$r11,372185(0x5add9)
1c00b1f0:	02b8216b 	addi.w	$r11,$r11,-504(0xe08)
1c00b1f4:	14f5b93c 	lu12i.w	$r28,503241(0x7adc9)
1c00b1f8:	029a439c 	addi.w	$r28,$r28,1680(0x690)
1c00b1fc:	14b5bb3d 	lu12i.w	$r29,372185(0x5add9)
1c00b200:	02b823bd 	addi.w	$r29,$r29,-504(0xe08)
1c00b204:	00107801 	add.w	$r1,$r0,$r30
1c00b208:	5c09d15c 	bne	$r10,$r28,2512(0x9d0) # 1c00bbd8 <inst_error>
1c00b20c:	5c09cd7d 	bne	$r11,$r29,2508(0x9cc) # 1c00bbd8 <inst_error>
1c00b210:	0010041e 	add.w	$r30,$r0,$r1
1c00b214:	15267d30 	lu12i.w	$r16,-445463(0x933e9)
1c00b218:	02926210 	addi.w	$r16,$r16,1176(0x498)
1c00b21c:	15282e31 	lu12i.w	$r17,-441999(0x94171)
1c00b220:	02a74231 	addi.w	$r17,$r17,-1584(0x9d0)
1c00b224:	1400000a 	lu12i.w	$r10,0
1c00b228:	1400000b 	lu12i.w	$r11,0
1c00b22c:	54000400 	bl	4(0x4) # 1c00b230 <n19_jirl_test+0x11a0>
1c00b230:	0280302c 	addi.w	$r12,$r1,12(0xc)
1c00b234:	0280902d 	addi.w	$r13,$r1,36(0x24)
1c00b238:	50001400 	b	20(0x14) # 1c00b24c <n19_jirl_test+0x11bc>
1c00b23c:	15267d2a 	lu12i.w	$r10,-445463(0x933e9)
1c00b240:	0292614a 	addi.w	$r10,$r10,1176(0x498)
1c00b244:	4c0001a0 	jirl	$r0,$r13,0
1c00b248:	50001400 	b	20(0x14) # 1c00b25c <n19_jirl_test+0x11cc>
1c00b24c:	4c000180 	jirl	$r0,$r12,0
1c00b250:	50000c00 	b	12(0xc) # 1c00b25c <n19_jirl_test+0x11cc>
1c00b254:	15282e2b 	lu12i.w	$r11,-441999(0x94171)
1c00b258:	02a7416b 	addi.w	$r11,$r11,-1584(0x9d0)
1c00b25c:	15267d3c 	lu12i.w	$r28,-445463(0x933e9)
1c00b260:	0292639c 	addi.w	$r28,$r28,1176(0x498)
1c00b264:	15282e3d 	lu12i.w	$r29,-441999(0x94171)
1c00b268:	02a743bd 	addi.w	$r29,$r29,-1584(0x9d0)
1c00b26c:	00107801 	add.w	$r1,$r0,$r30
1c00b270:	5c09695c 	bne	$r10,$r28,2408(0x968) # 1c00bbd8 <inst_error>
1c00b274:	5c09657d 	bne	$r11,$r29,2404(0x964) # 1c00bbd8 <inst_error>
1c00b278:	0010041e 	add.w	$r30,$r0,$r1
1c00b27c:	155a5af0 	lu12i.w	$r16,-339241(0xad2d7)
1c00b280:	02be0210 	addi.w	$r16,$r16,-128(0xf80)
1c00b284:	15dd4651 	lu12i.w	$r17,-71118(0xeea32)
1c00b288:	028dc231 	addi.w	$r17,$r17,880(0x370)
1c00b28c:	1400000a 	lu12i.w	$r10,0
1c00b290:	1400000b 	lu12i.w	$r11,0
1c00b294:	54000400 	bl	4(0x4) # 1c00b298 <n19_jirl_test+0x1208>
1c00b298:	0280302c 	addi.w	$r12,$r1,12(0xc)
1c00b29c:	0280902d 	addi.w	$r13,$r1,36(0x24)
1c00b2a0:	50001400 	b	20(0x14) # 1c00b2b4 <n19_jirl_test+0x1224>
1c00b2a4:	155a5aea 	lu12i.w	$r10,-339241(0xad2d7)
1c00b2a8:	02be014a 	addi.w	$r10,$r10,-128(0xf80)
1c00b2ac:	4c0001a0 	jirl	$r0,$r13,0
1c00b2b0:	50001400 	b	20(0x14) # 1c00b2c4 <n19_jirl_test+0x1234>
1c00b2b4:	4c000180 	jirl	$r0,$r12,0
1c00b2b8:	50000c00 	b	12(0xc) # 1c00b2c4 <n19_jirl_test+0x1234>
1c00b2bc:	15dd464b 	lu12i.w	$r11,-71118(0xeea32)
1c00b2c0:	028dc16b 	addi.w	$r11,$r11,880(0x370)
1c00b2c4:	155a5afc 	lu12i.w	$r28,-339241(0xad2d7)
1c00b2c8:	02be039c 	addi.w	$r28,$r28,-128(0xf80)
1c00b2cc:	15dd465d 	lu12i.w	$r29,-71118(0xeea32)
1c00b2d0:	028dc3bd 	addi.w	$r29,$r29,880(0x370)
1c00b2d4:	00107801 	add.w	$r1,$r0,$r30
1c00b2d8:	5c09015c 	bne	$r10,$r28,2304(0x900) # 1c00bbd8 <inst_error>
1c00b2dc:	5c08fd7d 	bne	$r11,$r29,2300(0x8fc) # 1c00bbd8 <inst_error>
1c00b2e0:	0010041e 	add.w	$r30,$r0,$r1
1c00b2e4:	15ca0570 	lu12i.w	$r16,-110549(0xe502b)
1c00b2e8:	02b5da10 	addi.w	$r16,$r16,-650(0xd76)
1c00b2ec:	1494ed71 	lu12i.w	$r17,305003(0x4a76b)
1c00b2f0:	02bd7231 	addi.w	$r17,$r17,-164(0xf5c)
1c00b2f4:	1400000a 	lu12i.w	$r10,0
1c00b2f8:	1400000b 	lu12i.w	$r11,0
1c00b2fc:	54000400 	bl	4(0x4) # 1c00b300 <n19_jirl_test+0x1270>
1c00b300:	0280302c 	addi.w	$r12,$r1,12(0xc)
1c00b304:	0280902d 	addi.w	$r13,$r1,36(0x24)
1c00b308:	50001400 	b	20(0x14) # 1c00b31c <n19_jirl_test+0x128c>
1c00b30c:	15ca056a 	lu12i.w	$r10,-110549(0xe502b)
1c00b310:	02b5d94a 	addi.w	$r10,$r10,-650(0xd76)
1c00b314:	4c0001a0 	jirl	$r0,$r13,0
1c00b318:	50001400 	b	20(0x14) # 1c00b32c <n19_jirl_test+0x129c>
1c00b31c:	4c000180 	jirl	$r0,$r12,0
1c00b320:	50000c00 	b	12(0xc) # 1c00b32c <n19_jirl_test+0x129c>
1c00b324:	1494ed6b 	lu12i.w	$r11,305003(0x4a76b)
1c00b328:	02bd716b 	addi.w	$r11,$r11,-164(0xf5c)
1c00b32c:	15ca057c 	lu12i.w	$r28,-110549(0xe502b)
1c00b330:	02b5db9c 	addi.w	$r28,$r28,-650(0xd76)
1c00b334:	1494ed7d 	lu12i.w	$r29,305003(0x4a76b)
1c00b338:	02bd73bd 	addi.w	$r29,$r29,-164(0xf5c)
1c00b33c:	00107801 	add.w	$r1,$r0,$r30
1c00b340:	5c08995c 	bne	$r10,$r28,2200(0x898) # 1c00bbd8 <inst_error>
1c00b344:	5c08957d 	bne	$r11,$r29,2196(0x894) # 1c00bbd8 <inst_error>
1c00b348:	0010041e 	add.w	$r30,$r0,$r1
1c00b34c:	1467b110 	lu12i.w	$r16,212360(0x33d88)
1c00b350:	02945210 	addi.w	$r16,$r16,1300(0x514)
1c00b354:	15991c51 	lu12i.w	$r17,-210718(0xcc8e2)
1c00b358:	0280d231 	addi.w	$r17,$r17,52(0x34)
1c00b35c:	1400000a 	lu12i.w	$r10,0
1c00b360:	1400000b 	lu12i.w	$r11,0
1c00b364:	54000400 	bl	4(0x4) # 1c00b368 <n19_jirl_test+0x12d8>
1c00b368:	0280302c 	addi.w	$r12,$r1,12(0xc)
1c00b36c:	0280902d 	addi.w	$r13,$r1,36(0x24)
1c00b370:	50001400 	b	20(0x14) # 1c00b384 <n19_jirl_test+0x12f4>
1c00b374:	1467b10a 	lu12i.w	$r10,212360(0x33d88)
1c00b378:	0294514a 	addi.w	$r10,$r10,1300(0x514)
1c00b37c:	4c0001a0 	jirl	$r0,$r13,0
1c00b380:	50001400 	b	20(0x14) # 1c00b394 <n19_jirl_test+0x1304>
1c00b384:	4c000180 	jirl	$r0,$r12,0
1c00b388:	50000c00 	b	12(0xc) # 1c00b394 <n19_jirl_test+0x1304>
1c00b38c:	15991c4b 	lu12i.w	$r11,-210718(0xcc8e2)
1c00b390:	0280d16b 	addi.w	$r11,$r11,52(0x34)
1c00b394:	1467b11c 	lu12i.w	$r28,212360(0x33d88)
1c00b398:	0294539c 	addi.w	$r28,$r28,1300(0x514)
1c00b39c:	15991c5d 	lu12i.w	$r29,-210718(0xcc8e2)
1c00b3a0:	0280d3bd 	addi.w	$r29,$r29,52(0x34)
1c00b3a4:	00107801 	add.w	$r1,$r0,$r30
1c00b3a8:	5c08315c 	bne	$r10,$r28,2096(0x830) # 1c00bbd8 <inst_error>
1c00b3ac:	5c082d7d 	bne	$r11,$r29,2092(0x82c) # 1c00bbd8 <inst_error>
1c00b3b0:	0010041e 	add.w	$r30,$r0,$r1
1c00b3b4:	15ba1870 	lu12i.w	$r16,-143165(0xdd0c3)
1c00b3b8:	02ac7210 	addi.w	$r16,$r16,-1252(0xb1c)
1c00b3bc:	155f3691 	lu12i.w	$r17,-329292(0xaf9b4)
1c00b3c0:	02b7c231 	addi.w	$r17,$r17,-528(0xdf0)
1c00b3c4:	1400000a 	lu12i.w	$r10,0
1c00b3c8:	1400000b 	lu12i.w	$r11,0
1c00b3cc:	54000400 	bl	4(0x4) # 1c00b3d0 <n19_jirl_test+0x1340>
1c00b3d0:	0280302c 	addi.w	$r12,$r1,12(0xc)
1c00b3d4:	0280902d 	addi.w	$r13,$r1,36(0x24)
1c00b3d8:	50001400 	b	20(0x14) # 1c00b3ec <n19_jirl_test+0x135c>
1c00b3dc:	15ba186a 	lu12i.w	$r10,-143165(0xdd0c3)
1c00b3e0:	02ac714a 	addi.w	$r10,$r10,-1252(0xb1c)
1c00b3e4:	4c0001a0 	jirl	$r0,$r13,0
1c00b3e8:	50001400 	b	20(0x14) # 1c00b3fc <n19_jirl_test+0x136c>
1c00b3ec:	4c000180 	jirl	$r0,$r12,0
1c00b3f0:	50000c00 	b	12(0xc) # 1c00b3fc <n19_jirl_test+0x136c>
1c00b3f4:	155f368b 	lu12i.w	$r11,-329292(0xaf9b4)
1c00b3f8:	02b7c16b 	addi.w	$r11,$r11,-528(0xdf0)
1c00b3fc:	15ba187c 	lu12i.w	$r28,-143165(0xdd0c3)
1c00b400:	02ac739c 	addi.w	$r28,$r28,-1252(0xb1c)
1c00b404:	155f369d 	lu12i.w	$r29,-329292(0xaf9b4)
1c00b408:	02b7c3bd 	addi.w	$r29,$r29,-528(0xdf0)
1c00b40c:	00107801 	add.w	$r1,$r0,$r30
1c00b410:	5c07c95c 	bne	$r10,$r28,1992(0x7c8) # 1c00bbd8 <inst_error>
1c00b414:	5c07c57d 	bne	$r11,$r29,1988(0x7c4) # 1c00bbd8 <inst_error>
1c00b418:	0010041e 	add.w	$r30,$r0,$r1
1c00b41c:	1495ce30 	lu12i.w	$r16,306801(0x4ae71)
1c00b420:	029a0210 	addi.w	$r16,$r16,1664(0x680)
1c00b424:	15bf4e11 	lu12i.w	$r17,-132496(0xdfa70)
1c00b428:	02b50231 	addi.w	$r17,$r17,-704(0xd40)
1c00b42c:	1400000a 	lu12i.w	$r10,0
1c00b430:	1400000b 	lu12i.w	$r11,0
1c00b434:	54000400 	bl	4(0x4) # 1c00b438 <n19_jirl_test+0x13a8>
1c00b438:	0280302c 	addi.w	$r12,$r1,12(0xc)
1c00b43c:	0280902d 	addi.w	$r13,$r1,36(0x24)
1c00b440:	50001400 	b	20(0x14) # 1c00b454 <n19_jirl_test+0x13c4>
1c00b444:	1495ce2a 	lu12i.w	$r10,306801(0x4ae71)
1c00b448:	029a014a 	addi.w	$r10,$r10,1664(0x680)
1c00b44c:	4c0001a0 	jirl	$r0,$r13,0
1c00b450:	50001400 	b	20(0x14) # 1c00b464 <n19_jirl_test+0x13d4>
1c00b454:	4c000180 	jirl	$r0,$r12,0
1c00b458:	50000c00 	b	12(0xc) # 1c00b464 <n19_jirl_test+0x13d4>
1c00b45c:	15bf4e0b 	lu12i.w	$r11,-132496(0xdfa70)
1c00b460:	02b5016b 	addi.w	$r11,$r11,-704(0xd40)
1c00b464:	1495ce3c 	lu12i.w	$r28,306801(0x4ae71)
1c00b468:	029a039c 	addi.w	$r28,$r28,1664(0x680)
1c00b46c:	15bf4e1d 	lu12i.w	$r29,-132496(0xdfa70)
1c00b470:	02b503bd 	addi.w	$r29,$r29,-704(0xd40)
1c00b474:	00107801 	add.w	$r1,$r0,$r30
1c00b478:	5c07615c 	bne	$r10,$r28,1888(0x760) # 1c00bbd8 <inst_error>
1c00b47c:	5c075d7d 	bne	$r11,$r29,1884(0x75c) # 1c00bbd8 <inst_error>
1c00b480:	0010041e 	add.w	$r30,$r0,$r1
1c00b484:	158dee50 	lu12i.w	$r16,-233614(0xc6f72)
1c00b488:	02977a10 	addi.w	$r16,$r16,1502(0x5de)
1c00b48c:	14f59ad1 	lu12i.w	$r17,502998(0x7acd6)
1c00b490:	028de231 	addi.w	$r17,$r17,888(0x378)
1c00b494:	1400000a 	lu12i.w	$r10,0
1c00b498:	1400000b 	lu12i.w	$r11,0
1c00b49c:	54000400 	bl	4(0x4) # 1c00b4a0 <n19_jirl_test+0x1410>
1c00b4a0:	0280302c 	addi.w	$r12,$r1,12(0xc)
1c00b4a4:	0280902d 	addi.w	$r13,$r1,36(0x24)
1c00b4a8:	50001400 	b	20(0x14) # 1c00b4bc <n19_jirl_test+0x142c>
1c00b4ac:	158dee4a 	lu12i.w	$r10,-233614(0xc6f72)
1c00b4b0:	0297794a 	addi.w	$r10,$r10,1502(0x5de)
1c00b4b4:	4c0001a0 	jirl	$r0,$r13,0
1c00b4b8:	50001400 	b	20(0x14) # 1c00b4cc <n19_jirl_test+0x143c>
1c00b4bc:	4c000180 	jirl	$r0,$r12,0
1c00b4c0:	50000c00 	b	12(0xc) # 1c00b4cc <n19_jirl_test+0x143c>
1c00b4c4:	14f59acb 	lu12i.w	$r11,502998(0x7acd6)
1c00b4c8:	028de16b 	addi.w	$r11,$r11,888(0x378)
1c00b4cc:	158dee5c 	lu12i.w	$r28,-233614(0xc6f72)
1c00b4d0:	02977b9c 	addi.w	$r28,$r28,1502(0x5de)
1c00b4d4:	14f59add 	lu12i.w	$r29,502998(0x7acd6)
1c00b4d8:	028de3bd 	addi.w	$r29,$r29,888(0x378)
1c00b4dc:	00107801 	add.w	$r1,$r0,$r30
1c00b4e0:	5c06f95c 	bne	$r10,$r28,1784(0x6f8) # 1c00bbd8 <inst_error>
1c00b4e4:	5c06f57d 	bne	$r11,$r29,1780(0x6f4) # 1c00bbd8 <inst_error>
1c00b4e8:	0010041e 	add.w	$r30,$r0,$r1
1c00b4ec:	15b7c9b0 	lu12i.w	$r16,-147891(0xdbe4d)
1c00b4f0:	02acd210 	addi.w	$r16,$r16,-1228(0xb34)
1c00b4f4:	156cdd51 	lu12i.w	$r17,-301334(0xb66ea)
1c00b4f8:	02ae1231 	addi.w	$r17,$r17,-1148(0xb84)
1c00b4fc:	1400000a 	lu12i.w	$r10,0
1c00b500:	1400000b 	lu12i.w	$r11,0
1c00b504:	54000400 	bl	4(0x4) # 1c00b508 <n19_jirl_test+0x1478>
1c00b508:	0280302c 	addi.w	$r12,$r1,12(0xc)
1c00b50c:	0280902d 	addi.w	$r13,$r1,36(0x24)
1c00b510:	50001400 	b	20(0x14) # 1c00b524 <n19_jirl_test+0x1494>
1c00b514:	15b7c9aa 	lu12i.w	$r10,-147891(0xdbe4d)
1c00b518:	02acd14a 	addi.w	$r10,$r10,-1228(0xb34)
1c00b51c:	4c0001a0 	jirl	$r0,$r13,0
1c00b520:	50001400 	b	20(0x14) # 1c00b534 <n19_jirl_test+0x14a4>
1c00b524:	4c000180 	jirl	$r0,$r12,0
1c00b528:	50000c00 	b	12(0xc) # 1c00b534 <n19_jirl_test+0x14a4>
1c00b52c:	156cdd4b 	lu12i.w	$r11,-301334(0xb66ea)
1c00b530:	02ae116b 	addi.w	$r11,$r11,-1148(0xb84)
1c00b534:	15b7c9bc 	lu12i.w	$r28,-147891(0xdbe4d)
1c00b538:	02acd39c 	addi.w	$r28,$r28,-1228(0xb34)
1c00b53c:	156cdd5d 	lu12i.w	$r29,-301334(0xb66ea)
1c00b540:	02ae13bd 	addi.w	$r29,$r29,-1148(0xb84)
1c00b544:	00107801 	add.w	$r1,$r0,$r30
1c00b548:	5c06915c 	bne	$r10,$r28,1680(0x690) # 1c00bbd8 <inst_error>
1c00b54c:	5c068d7d 	bne	$r11,$r29,1676(0x68c) # 1c00bbd8 <inst_error>
1c00b550:	0010041e 	add.w	$r30,$r0,$r1
1c00b554:	14b697d0 	lu12i.w	$r16,373950(0x5b4be)
1c00b558:	028e1210 	addi.w	$r16,$r16,900(0x384)
1c00b55c:	15dbb271 	lu12i.w	$r17,-74349(0xedd93)
1c00b560:	02b75231 	addi.w	$r17,$r17,-556(0xdd4)
1c00b564:	1400000a 	lu12i.w	$r10,0
1c00b568:	1400000b 	lu12i.w	$r11,0
1c00b56c:	54000400 	bl	4(0x4) # 1c00b570 <n19_jirl_test+0x14e0>
1c00b570:	0280302c 	addi.w	$r12,$r1,12(0xc)
1c00b574:	0280902d 	addi.w	$r13,$r1,36(0x24)
1c00b578:	50001400 	b	20(0x14) # 1c00b58c <n19_jirl_test+0x14fc>
1c00b57c:	14b697ca 	lu12i.w	$r10,373950(0x5b4be)
1c00b580:	028e114a 	addi.w	$r10,$r10,900(0x384)
1c00b584:	4c0001a0 	jirl	$r0,$r13,0
1c00b588:	50001400 	b	20(0x14) # 1c00b59c <n19_jirl_test+0x150c>
1c00b58c:	4c000180 	jirl	$r0,$r12,0
1c00b590:	50000c00 	b	12(0xc) # 1c00b59c <n19_jirl_test+0x150c>
1c00b594:	15dbb26b 	lu12i.w	$r11,-74349(0xedd93)
1c00b598:	02b7516b 	addi.w	$r11,$r11,-556(0xdd4)
1c00b59c:	14b697dc 	lu12i.w	$r28,373950(0x5b4be)
1c00b5a0:	028e139c 	addi.w	$r28,$r28,900(0x384)
1c00b5a4:	15dbb27d 	lu12i.w	$r29,-74349(0xedd93)
1c00b5a8:	02b753bd 	addi.w	$r29,$r29,-556(0xdd4)
1c00b5ac:	00107801 	add.w	$r1,$r0,$r30
1c00b5b0:	5c06295c 	bne	$r10,$r28,1576(0x628) # 1c00bbd8 <inst_error>
1c00b5b4:	5c06257d 	bne	$r11,$r29,1572(0x624) # 1c00bbd8 <inst_error>
1c00b5b8:	0010041e 	add.w	$r30,$r0,$r1
1c00b5bc:	15ed2eb0 	lu12i.w	$r16,-38539(0xf6975)
1c00b5c0:	02b8c210 	addi.w	$r16,$r16,-464(0xe30)
1c00b5c4:	15763a51 	lu12i.w	$r17,-282158(0xbb1d2)
1c00b5c8:	02984231 	addi.w	$r17,$r17,1552(0x610)
1c00b5cc:	1400000a 	lu12i.w	$r10,0
1c00b5d0:	1400000b 	lu12i.w	$r11,0
1c00b5d4:	54000400 	bl	4(0x4) # 1c00b5d8 <n19_jirl_test+0x1548>
1c00b5d8:	0280302c 	addi.w	$r12,$r1,12(0xc)
1c00b5dc:	0280902d 	addi.w	$r13,$r1,36(0x24)
1c00b5e0:	50001400 	b	20(0x14) # 1c00b5f4 <n19_jirl_test+0x1564>
1c00b5e4:	15ed2eaa 	lu12i.w	$r10,-38539(0xf6975)
1c00b5e8:	02b8c14a 	addi.w	$r10,$r10,-464(0xe30)
1c00b5ec:	4c0001a0 	jirl	$r0,$r13,0
1c00b5f0:	50001400 	b	20(0x14) # 1c00b604 <n19_jirl_test+0x1574>
1c00b5f4:	4c000180 	jirl	$r0,$r12,0
1c00b5f8:	50000c00 	b	12(0xc) # 1c00b604 <n19_jirl_test+0x1574>
1c00b5fc:	15763a4b 	lu12i.w	$r11,-282158(0xbb1d2)
1c00b600:	0298416b 	addi.w	$r11,$r11,1552(0x610)
1c00b604:	15ed2ebc 	lu12i.w	$r28,-38539(0xf6975)
1c00b608:	02b8c39c 	addi.w	$r28,$r28,-464(0xe30)
1c00b60c:	15763a5d 	lu12i.w	$r29,-282158(0xbb1d2)
1c00b610:	029843bd 	addi.w	$r29,$r29,1552(0x610)
1c00b614:	00107801 	add.w	$r1,$r0,$r30
1c00b618:	5c05c15c 	bne	$r10,$r28,1472(0x5c0) # 1c00bbd8 <inst_error>
1c00b61c:	5c05bd7d 	bne	$r11,$r29,1468(0x5bc) # 1c00bbd8 <inst_error>
1c00b620:	0010041e 	add.w	$r30,$r0,$r1
1c00b624:	157d52f0 	lu12i.w	$r16,-267625(0xbea97)
1c00b628:	02ba6210 	addi.w	$r16,$r16,-360(0xe98)
1c00b62c:	15890cf1 	lu12i.w	$r17,-243609(0xc4867)
1c00b630:	02973231 	addi.w	$r17,$r17,1484(0x5cc)
1c00b634:	1400000a 	lu12i.w	$r10,0
1c00b638:	1400000b 	lu12i.w	$r11,0
1c00b63c:	54000400 	bl	4(0x4) # 1c00b640 <n19_jirl_test+0x15b0>
1c00b640:	0280302c 	addi.w	$r12,$r1,12(0xc)
1c00b644:	0280902d 	addi.w	$r13,$r1,36(0x24)
1c00b648:	50001400 	b	20(0x14) # 1c00b65c <n19_jirl_test+0x15cc>
1c00b64c:	157d52ea 	lu12i.w	$r10,-267625(0xbea97)
1c00b650:	02ba614a 	addi.w	$r10,$r10,-360(0xe98)
1c00b654:	4c0001a0 	jirl	$r0,$r13,0
1c00b658:	50001400 	b	20(0x14) # 1c00b66c <n19_jirl_test+0x15dc>
1c00b65c:	4c000180 	jirl	$r0,$r12,0
1c00b660:	50000c00 	b	12(0xc) # 1c00b66c <n19_jirl_test+0x15dc>
1c00b664:	15890ceb 	lu12i.w	$r11,-243609(0xc4867)
1c00b668:	0297316b 	addi.w	$r11,$r11,1484(0x5cc)
1c00b66c:	157d52fc 	lu12i.w	$r28,-267625(0xbea97)
1c00b670:	02ba639c 	addi.w	$r28,$r28,-360(0xe98)
1c00b674:	15890cfd 	lu12i.w	$r29,-243609(0xc4867)
1c00b678:	029733bd 	addi.w	$r29,$r29,1484(0x5cc)
1c00b67c:	00107801 	add.w	$r1,$r0,$r30
1c00b680:	5c05595c 	bne	$r10,$r28,1368(0x558) # 1c00bbd8 <inst_error>
1c00b684:	5c05557d 	bne	$r11,$r29,1364(0x554) # 1c00bbd8 <inst_error>
1c00b688:	0010041e 	add.w	$r30,$r0,$r1
1c00b68c:	14f9e370 	lu12i.w	$r16,511771(0x7cf1b)
1c00b690:	02866210 	addi.w	$r16,$r16,408(0x198)
1c00b694:	15826ef1 	lu12i.w	$r17,-257161(0xc1377)
1c00b698:	02b9ca31 	addi.w	$r17,$r17,-398(0xe72)
1c00b69c:	1400000a 	lu12i.w	$r10,0
1c00b6a0:	1400000b 	lu12i.w	$r11,0
1c00b6a4:	54000400 	bl	4(0x4) # 1c00b6a8 <n19_jirl_test+0x1618>
1c00b6a8:	0280302c 	addi.w	$r12,$r1,12(0xc)
1c00b6ac:	0280902d 	addi.w	$r13,$r1,36(0x24)
1c00b6b0:	50001400 	b	20(0x14) # 1c00b6c4 <n19_jirl_test+0x1634>
1c00b6b4:	14f9e36a 	lu12i.w	$r10,511771(0x7cf1b)
1c00b6b8:	0286614a 	addi.w	$r10,$r10,408(0x198)
1c00b6bc:	4c0001a0 	jirl	$r0,$r13,0
1c00b6c0:	50001400 	b	20(0x14) # 1c00b6d4 <n19_jirl_test+0x1644>
1c00b6c4:	4c000180 	jirl	$r0,$r12,0
1c00b6c8:	50000c00 	b	12(0xc) # 1c00b6d4 <n19_jirl_test+0x1644>
1c00b6cc:	15826eeb 	lu12i.w	$r11,-257161(0xc1377)
1c00b6d0:	02b9c96b 	addi.w	$r11,$r11,-398(0xe72)
1c00b6d4:	14f9e37c 	lu12i.w	$r28,511771(0x7cf1b)
1c00b6d8:	0286639c 	addi.w	$r28,$r28,408(0x198)
1c00b6dc:	15826efd 	lu12i.w	$r29,-257161(0xc1377)
1c00b6e0:	02b9cbbd 	addi.w	$r29,$r29,-398(0xe72)
1c00b6e4:	00107801 	add.w	$r1,$r0,$r30
1c00b6e8:	5c04f15c 	bne	$r10,$r28,1264(0x4f0) # 1c00bbd8 <inst_error>
1c00b6ec:	5c04ed7d 	bne	$r11,$r29,1260(0x4ec) # 1c00bbd8 <inst_error>
1c00b6f0:	0010041e 	add.w	$r30,$r0,$r1
1c00b6f4:	153adb70 	lu12i.w	$r16,-403749(0x9d6db)
1c00b6f8:	02b60210 	addi.w	$r16,$r16,-640(0xd80)
1c00b6fc:	156f1851 	lu12i.w	$r17,-296766(0xb78c2)
1c00b700:	02862e31 	addi.w	$r17,$r17,395(0x18b)
1c00b704:	1400000a 	lu12i.w	$r10,0
1c00b708:	1400000b 	lu12i.w	$r11,0
1c00b70c:	54000400 	bl	4(0x4) # 1c00b710 <n19_jirl_test+0x1680>
1c00b710:	0280302c 	addi.w	$r12,$r1,12(0xc)
1c00b714:	0280902d 	addi.w	$r13,$r1,36(0x24)
1c00b718:	50001400 	b	20(0x14) # 1c00b72c <n19_jirl_test+0x169c>
1c00b71c:	153adb6a 	lu12i.w	$r10,-403749(0x9d6db)
1c00b720:	02b6014a 	addi.w	$r10,$r10,-640(0xd80)
1c00b724:	4c0001a0 	jirl	$r0,$r13,0
1c00b728:	50001400 	b	20(0x14) # 1c00b73c <n19_jirl_test+0x16ac>
1c00b72c:	4c000180 	jirl	$r0,$r12,0
1c00b730:	50000c00 	b	12(0xc) # 1c00b73c <n19_jirl_test+0x16ac>
1c00b734:	156f184b 	lu12i.w	$r11,-296766(0xb78c2)
1c00b738:	02862d6b 	addi.w	$r11,$r11,395(0x18b)
1c00b73c:	153adb7c 	lu12i.w	$r28,-403749(0x9d6db)
1c00b740:	02b6039c 	addi.w	$r28,$r28,-640(0xd80)
1c00b744:	156f185d 	lu12i.w	$r29,-296766(0xb78c2)
1c00b748:	02862fbd 	addi.w	$r29,$r29,395(0x18b)
1c00b74c:	00107801 	add.w	$r1,$r0,$r30
1c00b750:	5c04895c 	bne	$r10,$r28,1160(0x488) # 1c00bbd8 <inst_error>
1c00b754:	5c04857d 	bne	$r11,$r29,1156(0x484) # 1c00bbd8 <inst_error>
1c00b758:	0010041e 	add.w	$r30,$r0,$r1
1c00b75c:	14252d70 	lu12i.w	$r16,76139(0x1296b)
1c00b760:	02887a10 	addi.w	$r16,$r16,542(0x21e)
1c00b764:	144d0bd1 	lu12i.w	$r17,157790(0x2685e)
1c00b768:	02937231 	addi.w	$r17,$r17,1244(0x4dc)
1c00b76c:	1400000a 	lu12i.w	$r10,0
1c00b770:	1400000b 	lu12i.w	$r11,0
1c00b774:	54000400 	bl	4(0x4) # 1c00b778 <n19_jirl_test+0x16e8>
1c00b778:	0280302c 	addi.w	$r12,$r1,12(0xc)
1c00b77c:	0280902d 	addi.w	$r13,$r1,36(0x24)
1c00b780:	50001400 	b	20(0x14) # 1c00b794 <n19_jirl_test+0x1704>
1c00b784:	14252d6a 	lu12i.w	$r10,76139(0x1296b)
1c00b788:	0288794a 	addi.w	$r10,$r10,542(0x21e)
1c00b78c:	4c0001a0 	jirl	$r0,$r13,0
1c00b790:	50001400 	b	20(0x14) # 1c00b7a4 <n19_jirl_test+0x1714>
1c00b794:	4c000180 	jirl	$r0,$r12,0
1c00b798:	50000c00 	b	12(0xc) # 1c00b7a4 <n19_jirl_test+0x1714>
1c00b79c:	144d0bcb 	lu12i.w	$r11,157790(0x2685e)
1c00b7a0:	0293716b 	addi.w	$r11,$r11,1244(0x4dc)
1c00b7a4:	14252d7c 	lu12i.w	$r28,76139(0x1296b)
1c00b7a8:	02887b9c 	addi.w	$r28,$r28,542(0x21e)
1c00b7ac:	144d0bdd 	lu12i.w	$r29,157790(0x2685e)
1c00b7b0:	029373bd 	addi.w	$r29,$r29,1244(0x4dc)
1c00b7b4:	00107801 	add.w	$r1,$r0,$r30
1c00b7b8:	5c04215c 	bne	$r10,$r28,1056(0x420) # 1c00bbd8 <inst_error>
1c00b7bc:	5c041d7d 	bne	$r11,$r29,1052(0x41c) # 1c00bbd8 <inst_error>
1c00b7c0:	0010041e 	add.w	$r30,$r0,$r1
1c00b7c4:	14cb7f30 	lu12i.w	$r16,416761(0x65bf9)
1c00b7c8:	028e6210 	addi.w	$r16,$r16,920(0x398)
1c00b7cc:	15819b71 	lu12i.w	$r17,-258853(0xc0cdb)
1c00b7d0:	02a8e231 	addi.w	$r17,$r17,-1480(0xa38)
1c00b7d4:	1400000a 	lu12i.w	$r10,0
1c00b7d8:	1400000b 	lu12i.w	$r11,0
1c00b7dc:	54000400 	bl	4(0x4) # 1c00b7e0 <n19_jirl_test+0x1750>
1c00b7e0:	0280302c 	addi.w	$r12,$r1,12(0xc)
1c00b7e4:	0280902d 	addi.w	$r13,$r1,36(0x24)
1c00b7e8:	50001400 	b	20(0x14) # 1c00b7fc <n19_jirl_test+0x176c>
1c00b7ec:	14cb7f2a 	lu12i.w	$r10,416761(0x65bf9)
1c00b7f0:	028e614a 	addi.w	$r10,$r10,920(0x398)
1c00b7f4:	4c0001a0 	jirl	$r0,$r13,0
1c00b7f8:	50001400 	b	20(0x14) # 1c00b80c <n19_jirl_test+0x177c>
1c00b7fc:	4c000180 	jirl	$r0,$r12,0
1c00b800:	50000c00 	b	12(0xc) # 1c00b80c <n19_jirl_test+0x177c>
1c00b804:	15819b6b 	lu12i.w	$r11,-258853(0xc0cdb)
1c00b808:	02a8e16b 	addi.w	$r11,$r11,-1480(0xa38)
1c00b80c:	14cb7f3c 	lu12i.w	$r28,416761(0x65bf9)
1c00b810:	028e639c 	addi.w	$r28,$r28,920(0x398)
1c00b814:	15819b7d 	lu12i.w	$r29,-258853(0xc0cdb)
1c00b818:	02a8e3bd 	addi.w	$r29,$r29,-1480(0xa38)
1c00b81c:	00107801 	add.w	$r1,$r0,$r30
1c00b820:	5c03b95c 	bne	$r10,$r28,952(0x3b8) # 1c00bbd8 <inst_error>
1c00b824:	5c03b57d 	bne	$r11,$r29,948(0x3b4) # 1c00bbd8 <inst_error>
1c00b828:	0010041e 	add.w	$r30,$r0,$r1
1c00b82c:	140d88d0 	lu12i.w	$r16,27718(0x6c46)
1c00b830:	02a7ea10 	addi.w	$r16,$r16,-1542(0x9fa)
1c00b834:	142a69f1 	lu12i.w	$r17,86863(0x1534f)
1c00b838:	02b14231 	addi.w	$r17,$r17,-944(0xc50)
1c00b83c:	1400000a 	lu12i.w	$r10,0
1c00b840:	1400000b 	lu12i.w	$r11,0
1c00b844:	54000400 	bl	4(0x4) # 1c00b848 <n19_jirl_test+0x17b8>
1c00b848:	0280302c 	addi.w	$r12,$r1,12(0xc)
1c00b84c:	0280902d 	addi.w	$r13,$r1,36(0x24)
1c00b850:	50001400 	b	20(0x14) # 1c00b864 <n19_jirl_test+0x17d4>
1c00b854:	140d88ca 	lu12i.w	$r10,27718(0x6c46)
1c00b858:	02a7e94a 	addi.w	$r10,$r10,-1542(0x9fa)
1c00b85c:	4c0001a0 	jirl	$r0,$r13,0
1c00b860:	50001400 	b	20(0x14) # 1c00b874 <n19_jirl_test+0x17e4>
1c00b864:	4c000180 	jirl	$r0,$r12,0
1c00b868:	50000c00 	b	12(0xc) # 1c00b874 <n19_jirl_test+0x17e4>
1c00b86c:	142a69eb 	lu12i.w	$r11,86863(0x1534f)
1c00b870:	02b1416b 	addi.w	$r11,$r11,-944(0xc50)
1c00b874:	140d88dc 	lu12i.w	$r28,27718(0x6c46)
1c00b878:	02a7eb9c 	addi.w	$r28,$r28,-1542(0x9fa)
1c00b87c:	142a69fd 	lu12i.w	$r29,86863(0x1534f)
1c00b880:	02b143bd 	addi.w	$r29,$r29,-944(0xc50)
1c00b884:	00107801 	add.w	$r1,$r0,$r30
1c00b888:	5c03515c 	bne	$r10,$r28,848(0x350) # 1c00bbd8 <inst_error>
1c00b88c:	5c034d7d 	bne	$r11,$r29,844(0x34c) # 1c00bbd8 <inst_error>
1c00b890:	0010041e 	add.w	$r30,$r0,$r1
1c00b894:	14f1f6d0 	lu12i.w	$r16,495542(0x78fb6)
1c00b898:	02b5e210 	addi.w	$r16,$r16,-648(0xd78)
1c00b89c:	15c93751 	lu12i.w	$r17,-112198(0xe49ba)
1c00b8a0:	02b89231 	addi.w	$r17,$r17,-476(0xe24)
1c00b8a4:	1400000a 	lu12i.w	$r10,0
1c00b8a8:	1400000b 	lu12i.w	$r11,0
1c00b8ac:	54000400 	bl	4(0x4) # 1c00b8b0 <n19_jirl_test+0x1820>
1c00b8b0:	0280302c 	addi.w	$r12,$r1,12(0xc)
1c00b8b4:	0280902d 	addi.w	$r13,$r1,36(0x24)
1c00b8b8:	50001400 	b	20(0x14) # 1c00b8cc <n19_jirl_test+0x183c>
1c00b8bc:	14f1f6ca 	lu12i.w	$r10,495542(0x78fb6)
1c00b8c0:	02b5e14a 	addi.w	$r10,$r10,-648(0xd78)
1c00b8c4:	4c0001a0 	jirl	$r0,$r13,0
1c00b8c8:	50001400 	b	20(0x14) # 1c00b8dc <n19_jirl_test+0x184c>
1c00b8cc:	4c000180 	jirl	$r0,$r12,0
1c00b8d0:	50000c00 	b	12(0xc) # 1c00b8dc <n19_jirl_test+0x184c>
1c00b8d4:	15c9374b 	lu12i.w	$r11,-112198(0xe49ba)
1c00b8d8:	02b8916b 	addi.w	$r11,$r11,-476(0xe24)
1c00b8dc:	14f1f6dc 	lu12i.w	$r28,495542(0x78fb6)
1c00b8e0:	02b5e39c 	addi.w	$r28,$r28,-648(0xd78)
1c00b8e4:	15c9375d 	lu12i.w	$r29,-112198(0xe49ba)
1c00b8e8:	02b893bd 	addi.w	$r29,$r29,-476(0xe24)
1c00b8ec:	00107801 	add.w	$r1,$r0,$r30
1c00b8f0:	5c02e95c 	bne	$r10,$r28,744(0x2e8) # 1c00bbd8 <inst_error>
1c00b8f4:	5c02e57d 	bne	$r11,$r29,740(0x2e4) # 1c00bbd8 <inst_error>
1c00b8f8:	0010041e 	add.w	$r30,$r0,$r1
1c00b8fc:	15031f10 	lu12i.w	$r16,-517896(0x818f8)
1c00b900:	02ab0210 	addi.w	$r16,$r16,-1344(0xac0)
1c00b904:	140bb651 	lu12i.w	$r17,23986(0x5db2)
1c00b908:	02be4231 	addi.w	$r17,$r17,-112(0xf90)
1c00b90c:	1400000a 	lu12i.w	$r10,0
1c00b910:	1400000b 	lu12i.w	$r11,0
1c00b914:	54000400 	bl	4(0x4) # 1c00b918 <n19_jirl_test+0x1888>
1c00b918:	0280302c 	addi.w	$r12,$r1,12(0xc)
1c00b91c:	0280902d 	addi.w	$r13,$r1,36(0x24)
1c00b920:	50001400 	b	20(0x14) # 1c00b934 <n19_jirl_test+0x18a4>
1c00b924:	15031f0a 	lu12i.w	$r10,-517896(0x818f8)
1c00b928:	02ab014a 	addi.w	$r10,$r10,-1344(0xac0)
1c00b92c:	4c0001a0 	jirl	$r0,$r13,0
1c00b930:	50001400 	b	20(0x14) # 1c00b944 <n19_jirl_test+0x18b4>
1c00b934:	4c000180 	jirl	$r0,$r12,0
1c00b938:	50000c00 	b	12(0xc) # 1c00b944 <n19_jirl_test+0x18b4>
1c00b93c:	140bb64b 	lu12i.w	$r11,23986(0x5db2)
1c00b940:	02be416b 	addi.w	$r11,$r11,-112(0xf90)
1c00b944:	15031f1c 	lu12i.w	$r28,-517896(0x818f8)
1c00b948:	02ab039c 	addi.w	$r28,$r28,-1344(0xac0)
1c00b94c:	140bb65d 	lu12i.w	$r29,23986(0x5db2)
1c00b950:	02be43bd 	addi.w	$r29,$r29,-112(0xf90)
1c00b954:	00107801 	add.w	$r1,$r0,$r30
1c00b958:	5c02815c 	bne	$r10,$r28,640(0x280) # 1c00bbd8 <inst_error>
1c00b95c:	5c027d7d 	bne	$r11,$r29,636(0x27c) # 1c00bbd8 <inst_error>
1c00b960:	0010041e 	add.w	$r30,$r0,$r1
1c00b964:	15193270 	lu12i.w	$r16,-472685(0x8c993)
1c00b968:	02838a10 	addi.w	$r16,$r16,226(0xe2)
1c00b96c:	1541b2f1 	lu12i.w	$r17,-389737(0xa0d97)
1c00b970:	02905a31 	addi.w	$r17,$r17,1046(0x416)
1c00b974:	1400000a 	lu12i.w	$r10,0
1c00b978:	1400000b 	lu12i.w	$r11,0
1c00b97c:	54000400 	bl	4(0x4) # 1c00b980 <n19_jirl_test+0x18f0>
1c00b980:	0280302c 	addi.w	$r12,$r1,12(0xc)
1c00b984:	0280902d 	addi.w	$r13,$r1,36(0x24)
1c00b988:	50001400 	b	20(0x14) # 1c00b99c <n19_jirl_test+0x190c>
1c00b98c:	1519326a 	lu12i.w	$r10,-472685(0x8c993)
1c00b990:	0283894a 	addi.w	$r10,$r10,226(0xe2)
1c00b994:	4c0001a0 	jirl	$r0,$r13,0
1c00b998:	50001400 	b	20(0x14) # 1c00b9ac <n19_jirl_test+0x191c>
1c00b99c:	4c000180 	jirl	$r0,$r12,0
1c00b9a0:	50000c00 	b	12(0xc) # 1c00b9ac <n19_jirl_test+0x191c>
1c00b9a4:	1541b2eb 	lu12i.w	$r11,-389737(0xa0d97)
1c00b9a8:	0290596b 	addi.w	$r11,$r11,1046(0x416)
1c00b9ac:	1519327c 	lu12i.w	$r28,-472685(0x8c993)
1c00b9b0:	02838b9c 	addi.w	$r28,$r28,226(0xe2)
1c00b9b4:	1541b2fd 	lu12i.w	$r29,-389737(0xa0d97)
1c00b9b8:	02905bbd 	addi.w	$r29,$r29,1046(0x416)
1c00b9bc:	00107801 	add.w	$r1,$r0,$r30
1c00b9c0:	5c02195c 	bne	$r10,$r28,536(0x218) # 1c00bbd8 <inst_error>
1c00b9c4:	5c02157d 	bne	$r11,$r29,532(0x214) # 1c00bbd8 <inst_error>
1c00b9c8:	0010041e 	add.w	$r30,$r0,$r1
1c00b9cc:	154fe210 	lu12i.w	$r16,-360688(0xa7f10)
1c00b9d0:	02a08a10 	addi.w	$r16,$r16,-2014(0x822)
1c00b9d4:	15116e71 	lu12i.w	$r17,-488589(0x88b73)
1c00b9d8:	02b90a31 	addi.w	$r17,$r17,-446(0xe42)
1c00b9dc:	1400000a 	lu12i.w	$r10,0
1c00b9e0:	1400000b 	lu12i.w	$r11,0
1c00b9e4:	54000400 	bl	4(0x4) # 1c00b9e8 <n19_jirl_test+0x1958>
1c00b9e8:	0280302c 	addi.w	$r12,$r1,12(0xc)
1c00b9ec:	0280902d 	addi.w	$r13,$r1,36(0x24)
1c00b9f0:	50001400 	b	20(0x14) # 1c00ba04 <n19_jirl_test+0x1974>
1c00b9f4:	154fe20a 	lu12i.w	$r10,-360688(0xa7f10)
1c00b9f8:	02a0894a 	addi.w	$r10,$r10,-2014(0x822)
1c00b9fc:	4c0001a0 	jirl	$r0,$r13,0
1c00ba00:	50001400 	b	20(0x14) # 1c00ba14 <n19_jirl_test+0x1984>
1c00ba04:	4c000180 	jirl	$r0,$r12,0
1c00ba08:	50000c00 	b	12(0xc) # 1c00ba14 <n19_jirl_test+0x1984>
1c00ba0c:	15116e6b 	lu12i.w	$r11,-488589(0x88b73)
1c00ba10:	02b9096b 	addi.w	$r11,$r11,-446(0xe42)
1c00ba14:	154fe21c 	lu12i.w	$r28,-360688(0xa7f10)
1c00ba18:	02a08b9c 	addi.w	$r28,$r28,-2014(0x822)
1c00ba1c:	15116e7d 	lu12i.w	$r29,-488589(0x88b73)
1c00ba20:	02b90bbd 	addi.w	$r29,$r29,-446(0xe42)
1c00ba24:	00107801 	add.w	$r1,$r0,$r30
1c00ba28:	5c01b15c 	bne	$r10,$r28,432(0x1b0) # 1c00bbd8 <inst_error>
1c00ba2c:	5c01ad7d 	bne	$r11,$r29,428(0x1ac) # 1c00bbd8 <inst_error>
1c00ba30:	0010041e 	add.w	$r30,$r0,$r1
1c00ba34:	145596b0 	lu12i.w	$r16,175285(0x2acb5)
1c00ba38:	02810210 	addi.w	$r16,$r16,64(0x40)
1c00ba3c:	14d2c751 	lu12i.w	$r17,431674(0x6963a)
1c00ba40:	02906231 	addi.w	$r17,$r17,1048(0x418)
1c00ba44:	1400000a 	lu12i.w	$r10,0
1c00ba48:	1400000b 	lu12i.w	$r11,0
1c00ba4c:	54000400 	bl	4(0x4) # 1c00ba50 <n19_jirl_test+0x19c0>
1c00ba50:	0280302c 	addi.w	$r12,$r1,12(0xc)
1c00ba54:	0280902d 	addi.w	$r13,$r1,36(0x24)
1c00ba58:	50001400 	b	20(0x14) # 1c00ba6c <n19_jirl_test+0x19dc>
1c00ba5c:	145596aa 	lu12i.w	$r10,175285(0x2acb5)
1c00ba60:	0281014a 	addi.w	$r10,$r10,64(0x40)
1c00ba64:	4c0001a0 	jirl	$r0,$r13,0
1c00ba68:	50001400 	b	20(0x14) # 1c00ba7c <n19_jirl_test+0x19ec>
1c00ba6c:	4c000180 	jirl	$r0,$r12,0
1c00ba70:	50000c00 	b	12(0xc) # 1c00ba7c <n19_jirl_test+0x19ec>
1c00ba74:	14d2c74b 	lu12i.w	$r11,431674(0x6963a)
1c00ba78:	0290616b 	addi.w	$r11,$r11,1048(0x418)
1c00ba7c:	145596bc 	lu12i.w	$r28,175285(0x2acb5)
1c00ba80:	0281039c 	addi.w	$r28,$r28,64(0x40)
1c00ba84:	14d2c75d 	lu12i.w	$r29,431674(0x6963a)
1c00ba88:	029063bd 	addi.w	$r29,$r29,1048(0x418)
1c00ba8c:	00107801 	add.w	$r1,$r0,$r30
1c00ba90:	5c01495c 	bne	$r10,$r28,328(0x148) # 1c00bbd8 <inst_error>
1c00ba94:	5c01457d 	bne	$r11,$r29,324(0x144) # 1c00bbd8 <inst_error>
1c00ba98:	0010041e 	add.w	$r30,$r0,$r1
1c00ba9c:	156b0dd0 	lu12i.w	$r16,-305042(0xb586e)
1c00baa0:	029ec210 	addi.w	$r16,$r16,1968(0x7b0)
1c00baa4:	15cfb891 	lu12i.w	$r17,-98876(0xe7dc4)
1c00baa8:	0288a231 	addi.w	$r17,$r17,552(0x228)
1c00baac:	1400000a 	lu12i.w	$r10,0
1c00bab0:	1400000b 	lu12i.w	$r11,0
1c00bab4:	54000400 	bl	4(0x4) # 1c00bab8 <n19_jirl_test+0x1a28>
1c00bab8:	0280302c 	addi.w	$r12,$r1,12(0xc)
1c00babc:	0280902d 	addi.w	$r13,$r1,36(0x24)
1c00bac0:	50001400 	b	20(0x14) # 1c00bad4 <n19_jirl_test+0x1a44>
1c00bac4:	156b0dca 	lu12i.w	$r10,-305042(0xb586e)
1c00bac8:	029ec14a 	addi.w	$r10,$r10,1968(0x7b0)
1c00bacc:	4c0001a0 	jirl	$r0,$r13,0
1c00bad0:	50001400 	b	20(0x14) # 1c00bae4 <n19_jirl_test+0x1a54>
1c00bad4:	4c000180 	jirl	$r0,$r12,0
1c00bad8:	50000c00 	b	12(0xc) # 1c00bae4 <n19_jirl_test+0x1a54>
1c00badc:	15cfb88b 	lu12i.w	$r11,-98876(0xe7dc4)
1c00bae0:	0288a16b 	addi.w	$r11,$r11,552(0x228)
1c00bae4:	156b0ddc 	lu12i.w	$r28,-305042(0xb586e)
1c00bae8:	029ec39c 	addi.w	$r28,$r28,1968(0x7b0)
1c00baec:	15cfb89d 	lu12i.w	$r29,-98876(0xe7dc4)
1c00baf0:	0288a3bd 	addi.w	$r29,$r29,552(0x228)
1c00baf4:	00107801 	add.w	$r1,$r0,$r30
1c00baf8:	5c00e15c 	bne	$r10,$r28,224(0xe0) # 1c00bbd8 <inst_error>
1c00bafc:	5c00dd7d 	bne	$r11,$r29,220(0xdc) # 1c00bbd8 <inst_error>
1c00bb00:	0010041e 	add.w	$r30,$r0,$r1
1c00bb04:	14e4f850 	lu12i.w	$r16,468930(0x727c2)
1c00bb08:	0298fa10 	addi.w	$r16,$r16,1598(0x63e)
1c00bb0c:	14ddabf1 	lu12i.w	$r17,453983(0x6ed5f)
1c00bb10:	029dd231 	addi.w	$r17,$r17,1908(0x774)
1c00bb14:	1400000a 	lu12i.w	$r10,0
1c00bb18:	1400000b 	lu12i.w	$r11,0
1c00bb1c:	54000400 	bl	4(0x4) # 1c00bb20 <n19_jirl_test+0x1a90>
1c00bb20:	0280302c 	addi.w	$r12,$r1,12(0xc)
1c00bb24:	0280902d 	addi.w	$r13,$r1,36(0x24)
1c00bb28:	50001400 	b	20(0x14) # 1c00bb3c <n19_jirl_test+0x1aac>
1c00bb2c:	14e4f84a 	lu12i.w	$r10,468930(0x727c2)
1c00bb30:	0298f94a 	addi.w	$r10,$r10,1598(0x63e)
1c00bb34:	4c0001a0 	jirl	$r0,$r13,0
1c00bb38:	50001400 	b	20(0x14) # 1c00bb4c <n19_jirl_test+0x1abc>
1c00bb3c:	4c000180 	jirl	$r0,$r12,0
1c00bb40:	50000c00 	b	12(0xc) # 1c00bb4c <n19_jirl_test+0x1abc>
1c00bb44:	14ddabeb 	lu12i.w	$r11,453983(0x6ed5f)
1c00bb48:	029dd16b 	addi.w	$r11,$r11,1908(0x774)
1c00bb4c:	14e4f85c 	lu12i.w	$r28,468930(0x727c2)
1c00bb50:	0298fb9c 	addi.w	$r28,$r28,1598(0x63e)
1c00bb54:	14ddabfd 	lu12i.w	$r29,453983(0x6ed5f)
1c00bb58:	029dd3bd 	addi.w	$r29,$r29,1908(0x774)
1c00bb5c:	00107801 	add.w	$r1,$r0,$r30
1c00bb60:	5c00795c 	bne	$r10,$r28,120(0x78) # 1c00bbd8 <inst_error>
1c00bb64:	5c00757d 	bne	$r11,$r29,116(0x74) # 1c00bbd8 <inst_error>
1c00bb68:	0010041e 	add.w	$r30,$r0,$r1
1c00bb6c:	150e2a50 	lu12i.w	$r16,-495278(0x87152)
1c00bb70:	02a61210 	addi.w	$r16,$r16,-1660(0x984)
1c00bb74:	14703fb1 	lu12i.w	$r17,229885(0x381fd)
1c00bb78:	029dc231 	addi.w	$r17,$r17,1904(0x770)
1c00bb7c:	1400000a 	lu12i.w	$r10,0
1c00bb80:	1400000b 	lu12i.w	$r11,0
1c00bb84:	54000400 	bl	4(0x4) # 1c00bb88 <n19_jirl_test+0x1af8>
1c00bb88:	0280302c 	addi.w	$r12,$r1,12(0xc)
1c00bb8c:	0280902d 	addi.w	$r13,$r1,36(0x24)
1c00bb90:	50001400 	b	20(0x14) # 1c00bba4 <n19_jirl_test+0x1b14>
1c00bb94:	150e2a4a 	lu12i.w	$r10,-495278(0x87152)
1c00bb98:	02a6114a 	addi.w	$r10,$r10,-1660(0x984)
1c00bb9c:	4c0001a0 	jirl	$r0,$r13,0
1c00bba0:	50001400 	b	20(0x14) # 1c00bbb4 <n19_jirl_test+0x1b24>
1c00bba4:	4c000180 	jirl	$r0,$r12,0
1c00bba8:	50000c00 	b	12(0xc) # 1c00bbb4 <n19_jirl_test+0x1b24>
1c00bbac:	14703fab 	lu12i.w	$r11,229885(0x381fd)
1c00bbb0:	029dc16b 	addi.w	$r11,$r11,1904(0x770)
1c00bbb4:	150e2a5c 	lu12i.w	$r28,-495278(0x87152)
1c00bbb8:	02a6139c 	addi.w	$r28,$r28,-1660(0x984)
1c00bbbc:	14703fbd 	lu12i.w	$r29,229885(0x381fd)
1c00bbc0:	029dc3bd 	addi.w	$r29,$r29,1904(0x770)
1c00bbc4:	00107801 	add.w	$r1,$r0,$r30
1c00bbc8:	5c00115c 	bne	$r10,$r28,16(0x10) # 1c00bbd8 <inst_error>
1c00bbcc:	5c000d7d 	bne	$r11,$r29,12(0xc) # 1c00bbd8 <inst_error>
1c00bbd0:	5c000b20 	bne	$r25,$r0,8(0x8) # 1c00bbd8 <inst_error>
1c00bbd4:	0280075a 	addi.w	$r26,$r26,1(0x1)

1c00bbd8 <inst_error>:
1c00bbd8:	0040e2ed 	slli.w	$r13,$r23,0x18
1c00bbdc:	001569ac 	or	$r12,$r13,$r26
1c00bbe0:	2980030c 	st.w	$r12,$r24,0
1c00bbe4:	4c000020 	jirl	$r0,$r1,0

1c00bbe8 <n15_st_w_test>:
n15_st_w_test():
1c00bbe8:	028006f7 	addi.w	$r23,$r23,1(0x1)
1c00bbec:	00150019 	move	$r25,$r0
1c00bbf0:	14c2ea8d 	lu12i.w	$r13,399188(0x61754)
1c00bbf4:	02910dad 	addi.w	$r13,$r13,1091(0x443)
1c00bbf8:	14001aec 	lu12i.w	$r12,215(0xd7)
1c00bbfc:	029e818c 	addi.w	$r12,$r12,1952(0x7a0)
1c00bc00:	14c2ea8b 	lu12i.w	$r11,399188(0x61754)
1c00bc04:	02910d6b 	addi.w	$r11,$r11,1091(0x443)
1c00bc08:	299c518d 	st.w	$r13,$r12,1812(0x714)
1c00bc0c:	02801184 	addi.w	$r4,$r12,4(0x4)
1c00bc10:	02bff185 	addi.w	$r5,$r12,-4(0xffc)
1c00bc14:	299c5084 	st.w	$r4,$r4,1812(0x714)
1c00bc18:	299c50a5 	st.w	$r5,$r5,1812(0x714)
1c00bc1c:	289c518a 	ld.w	$r10,$r12,1812(0x714)
1c00bc20:	289c5086 	ld.w	$r6,$r4,1812(0x714)
1c00bc24:	289c50a4 	ld.w	$r4,$r5,1812(0x714)
1c00bc28:	289c50a6 	ld.w	$r6,$r5,1812(0x714)
1c00bc2c:	5c08cd4b 	bne	$r10,$r11,2252(0x8cc) # 1c00c4f8 <inst_error>
1c00bc30:	14b89f6d 	lu12i.w	$r13,378107(0x5c4fb)
1c00bc34:	029169ad 	addi.w	$r13,$r13,1114(0x45a)
1c00bc38:	14001aac 	lu12i.w	$r12,213(0xd5)
1c00bc3c:	02aab18c 	addi.w	$r12,$r12,-1364(0xaac)
1c00bc40:	14b89f6b 	lu12i.w	$r11,378107(0x5c4fb)
1c00bc44:	0291696b 	addi.w	$r11,$r11,1114(0x45a)
1c00bc48:	299db18d 	st.w	$r13,$r12,1900(0x76c)
1c00bc4c:	02801184 	addi.w	$r4,$r12,4(0x4)
1c00bc50:	02bff185 	addi.w	$r5,$r12,-4(0xffc)
1c00bc54:	299db084 	st.w	$r4,$r4,1900(0x76c)
1c00bc58:	299db0a5 	st.w	$r5,$r5,1900(0x76c)
1c00bc5c:	289db18a 	ld.w	$r10,$r12,1900(0x76c)
1c00bc60:	289db086 	ld.w	$r6,$r4,1900(0x76c)
1c00bc64:	289db0a4 	ld.w	$r4,$r5,1900(0x76c)
1c00bc68:	289db0a6 	ld.w	$r6,$r5,1900(0x76c)
1c00bc6c:	5c088d4b 	bne	$r10,$r11,2188(0x88c) # 1c00c4f8 <inst_error>
1c00bc70:	1429210d 	lu12i.w	$r13,84232(0x14908)
1c00bc74:	028c01ad 	addi.w	$r13,$r13,768(0x300)
1c00bc78:	14001aac 	lu12i.w	$r12,213(0xd5)
1c00bc7c:	02aba18c 	addi.w	$r12,$r12,-1304(0xae8)
1c00bc80:	1429210b 	lu12i.w	$r11,84232(0x14908)
1c00bc84:	028c016b 	addi.w	$r11,$r11,768(0x300)
1c00bc88:	2997618d 	st.w	$r13,$r12,1496(0x5d8)
1c00bc8c:	02801184 	addi.w	$r4,$r12,4(0x4)
1c00bc90:	02bff185 	addi.w	$r5,$r12,-4(0xffc)
1c00bc94:	29976084 	st.w	$r4,$r4,1496(0x5d8)
1c00bc98:	299760a5 	st.w	$r5,$r5,1496(0x5d8)
1c00bc9c:	2897618a 	ld.w	$r10,$r12,1496(0x5d8)
1c00bca0:	28976086 	ld.w	$r6,$r4,1496(0x5d8)
1c00bca4:	289760a4 	ld.w	$r4,$r5,1496(0x5d8)
1c00bca8:	289760a6 	ld.w	$r6,$r5,1496(0x5d8)
1c00bcac:	5c084d4b 	bne	$r10,$r11,2124(0x84c) # 1c00c4f8 <inst_error>
1c00bcb0:	14a2db4d 	lu12i.w	$r13,333530(0x516da)
1c00bcb4:	029ce5ad 	addi.w	$r13,$r13,1849(0x739)
1c00bcb8:	14001acc 	lu12i.w	$r12,214(0xd6)
1c00bcbc:	0283318c 	addi.w	$r12,$r12,204(0xcc)
1c00bcc0:	14a2db4b 	lu12i.w	$r11,333530(0x516da)
1c00bcc4:	029ce56b 	addi.w	$r11,$r11,1849(0x739)
1c00bcc8:	29a1418d 	st.w	$r13,$r12,-1968(0x850)
1c00bccc:	02801184 	addi.w	$r4,$r12,4(0x4)
1c00bcd0:	02bff185 	addi.w	$r5,$r12,-4(0xffc)
1c00bcd4:	29a14084 	st.w	$r4,$r4,-1968(0x850)
1c00bcd8:	29a140a5 	st.w	$r5,$r5,-1968(0x850)
1c00bcdc:	28a1418a 	ld.w	$r10,$r12,-1968(0x850)
1c00bce0:	28a14086 	ld.w	$r6,$r4,-1968(0x850)
1c00bce4:	28a140a4 	ld.w	$r4,$r5,-1968(0x850)
1c00bce8:	28a140a6 	ld.w	$r6,$r5,-1968(0x850)
1c00bcec:	5c080d4b 	bne	$r10,$r11,2060(0x80c) # 1c00c4f8 <inst_error>
1c00bcf0:	150acecd 	lu12i.w	$r13,-502154(0x85676)
1c00bcf4:	02a8d1ad 	addi.w	$r13,$r13,-1484(0xa34)
1c00bcf8:	14001aac 	lu12i.w	$r12,213(0xd5)
1c00bcfc:	0294418c 	addi.w	$r12,$r12,1296(0x510)
1c00bd00:	150acecb 	lu12i.w	$r11,-502154(0x85676)
1c00bd04:	02a8d16b 	addi.w	$r11,$r11,-1484(0xa34)
1c00bd08:	298ec18d 	st.w	$r13,$r12,944(0x3b0)
1c00bd0c:	02801184 	addi.w	$r4,$r12,4(0x4)
1c00bd10:	02bff185 	addi.w	$r5,$r12,-4(0xffc)
1c00bd14:	298ec084 	st.w	$r4,$r4,944(0x3b0)
1c00bd18:	298ec0a5 	st.w	$r5,$r5,944(0x3b0)
1c00bd1c:	288ec18a 	ld.w	$r10,$r12,944(0x3b0)
1c00bd20:	288ec086 	ld.w	$r6,$r4,944(0x3b0)
1c00bd24:	288ec0a4 	ld.w	$r4,$r5,944(0x3b0)
1c00bd28:	288ec0a6 	ld.w	$r6,$r5,944(0x3b0)
1c00bd2c:	5c07cd4b 	bne	$r10,$r11,1996(0x7cc) # 1c00c4f8 <inst_error>
1c00bd30:	141c9b6d 	lu12i.w	$r13,58587(0xe4db)
1c00bd34:	02b261ad 	addi.w	$r13,$r13,-872(0xc98)
1c00bd38:	14001b6c 	lu12i.w	$r12,219(0xdb)
1c00bd3c:	0281018c 	addi.w	$r12,$r12,64(0x40)
1c00bd40:	141c9b6b 	lu12i.w	$r11,58587(0xe4db)
1c00bd44:	02b2616b 	addi.w	$r11,$r11,-872(0xc98)
1c00bd48:	2990018d 	st.w	$r13,$r12,1024(0x400)
1c00bd4c:	02801184 	addi.w	$r4,$r12,4(0x4)
1c00bd50:	02bff185 	addi.w	$r5,$r12,-4(0xffc)
1c00bd54:	29900084 	st.w	$r4,$r4,1024(0x400)
1c00bd58:	299000a5 	st.w	$r5,$r5,1024(0x400)
1c00bd5c:	2890018a 	ld.w	$r10,$r12,1024(0x400)
1c00bd60:	28900086 	ld.w	$r6,$r4,1024(0x400)
1c00bd64:	289000a4 	ld.w	$r4,$r5,1024(0x400)
1c00bd68:	289000a6 	ld.w	$r6,$r5,1024(0x400)
1c00bd6c:	5c078d4b 	bne	$r10,$r11,1932(0x78c) # 1c00c4f8 <inst_error>
1c00bd70:	15b38ded 	lu12i.w	$r13,-156561(0xd9c6f)
1c00bd74:	02b76dad 	addi.w	$r13,$r13,-549(0xddb)
1c00bd78:	14001aec 	lu12i.w	$r12,215(0xd7)
1c00bd7c:	0286018c 	addi.w	$r12,$r12,384(0x180)
1c00bd80:	15b38deb 	lu12i.w	$r11,-156561(0xd9c6f)
1c00bd84:	02b76d6b 	addi.w	$r11,$r11,-549(0xddb)
1c00bd88:	298b818d 	st.w	$r13,$r12,736(0x2e0)
1c00bd8c:	02801184 	addi.w	$r4,$r12,4(0x4)
1c00bd90:	02bff185 	addi.w	$r5,$r12,-4(0xffc)
1c00bd94:	298b8084 	st.w	$r4,$r4,736(0x2e0)
1c00bd98:	298b80a5 	st.w	$r5,$r5,736(0x2e0)
1c00bd9c:	288b818a 	ld.w	$r10,$r12,736(0x2e0)
1c00bda0:	288b8086 	ld.w	$r6,$r4,736(0x2e0)
1c00bda4:	288b80a4 	ld.w	$r4,$r5,736(0x2e0)
1c00bda8:	288b80a6 	ld.w	$r6,$r5,736(0x2e0)
1c00bdac:	5c074d4b 	bne	$r10,$r11,1868(0x74c) # 1c00c4f8 <inst_error>
1c00bdb0:	14aea7cd 	lu12i.w	$r13,357694(0x5753e)
1c00bdb4:	02b405ad 	addi.w	$r13,$r13,-767(0xd01)
1c00bdb8:	14001a6c 	lu12i.w	$r12,211(0xd3)
1c00bdbc:	02b2818c 	addi.w	$r12,$r12,-864(0xca0)
1c00bdc0:	14aea7cb 	lu12i.w	$r11,357694(0x5753e)
1c00bdc4:	02b4056b 	addi.w	$r11,$r11,-767(0xd01)
1c00bdc8:	298a018d 	st.w	$r13,$r12,640(0x280)
1c00bdcc:	02801184 	addi.w	$r4,$r12,4(0x4)
1c00bdd0:	02bff185 	addi.w	$r5,$r12,-4(0xffc)
1c00bdd4:	298a0084 	st.w	$r4,$r4,640(0x280)
1c00bdd8:	298a00a5 	st.w	$r5,$r5,640(0x280)
1c00bddc:	288a018a 	ld.w	$r10,$r12,640(0x280)
1c00bde0:	288a0086 	ld.w	$r6,$r4,640(0x280)
1c00bde4:	288a00a4 	ld.w	$r4,$r5,640(0x280)
1c00bde8:	288a00a6 	ld.w	$r6,$r5,640(0x280)
1c00bdec:	5c070d4b 	bne	$r10,$r11,1804(0x70c) # 1c00c4f8 <inst_error>
1c00bdf0:	15ca878d 	lu12i.w	$r13,-109508(0xe543c)
1c00bdf4:	02a7cdad 	addi.w	$r13,$r13,-1549(0x9f3)
1c00bdf8:	14001a6c 	lu12i.w	$r12,211(0xd3)
1c00bdfc:	028c718c 	addi.w	$r12,$r12,796(0x31c)
1c00be00:	15ca878b 	lu12i.w	$r11,-109508(0xe543c)
1c00be04:	02a7cd6b 	addi.w	$r11,$r11,-1549(0x9f3)
1c00be08:	299ae18d 	st.w	$r13,$r12,1720(0x6b8)
1c00be0c:	02801184 	addi.w	$r4,$r12,4(0x4)
1c00be10:	02bff185 	addi.w	$r5,$r12,-4(0xffc)
1c00be14:	299ae084 	st.w	$r4,$r4,1720(0x6b8)
1c00be18:	299ae0a5 	st.w	$r5,$r5,1720(0x6b8)
1c00be1c:	289ae18a 	ld.w	$r10,$r12,1720(0x6b8)
1c00be20:	289ae086 	ld.w	$r6,$r4,1720(0x6b8)
1c00be24:	289ae0a4 	ld.w	$r4,$r5,1720(0x6b8)
1c00be28:	289ae0a6 	ld.w	$r6,$r5,1720(0x6b8)
1c00be2c:	5c06cd4b 	bne	$r10,$r11,1740(0x6cc) # 1c00c4f8 <inst_error>
1c00be30:	148e4d6d 	lu12i.w	$r13,291435(0x4726b)
1c00be34:	02b289ad 	addi.w	$r13,$r13,-862(0xca2)
1c00be38:	14001aec 	lu12i.w	$r12,215(0xd7)
1c00be3c:	02b3e18c 	addi.w	$r12,$r12,-776(0xcf8)
1c00be40:	148e4d6b 	lu12i.w	$r11,291435(0x4726b)
1c00be44:	02b2896b 	addi.w	$r11,$r11,-862(0xca2)
1c00be48:	2995c18d 	st.w	$r13,$r12,1392(0x570)
1c00be4c:	02801184 	addi.w	$r4,$r12,4(0x4)
1c00be50:	02bff185 	addi.w	$r5,$r12,-4(0xffc)
1c00be54:	2995c084 	st.w	$r4,$r4,1392(0x570)
1c00be58:	2995c0a5 	st.w	$r5,$r5,1392(0x570)
1c00be5c:	2895c18a 	ld.w	$r10,$r12,1392(0x570)
1c00be60:	2895c086 	ld.w	$r6,$r4,1392(0x570)
1c00be64:	2895c0a4 	ld.w	$r4,$r5,1392(0x570)
1c00be68:	2895c0a6 	ld.w	$r6,$r5,1392(0x570)
1c00be6c:	5c068d4b 	bne	$r10,$r11,1676(0x68c) # 1c00c4f8 <inst_error>
1c00be70:	1560440d 	lu12i.w	$r13,-327136(0xb0220)
1c00be74:	029029ad 	addi.w	$r13,$r13,1034(0x40a)
1c00be78:	14001a2c 	lu12i.w	$r12,209(0xd1)
1c00be7c:	02a0018c 	addi.w	$r12,$r12,-2048(0x800)
1c00be80:	1560440b 	lu12i.w	$r11,-327136(0xb0220)
1c00be84:	0290296b 	addi.w	$r11,$r11,1034(0x40a)
1c00be88:	29a9b18d 	st.w	$r13,$r12,-1428(0xa6c)
1c00be8c:	02801184 	addi.w	$r4,$r12,4(0x4)
1c00be90:	02bff185 	addi.w	$r5,$r12,-4(0xffc)
1c00be94:	29a9b084 	st.w	$r4,$r4,-1428(0xa6c)
1c00be98:	29a9b0a5 	st.w	$r5,$r5,-1428(0xa6c)
1c00be9c:	28a9b18a 	ld.w	$r10,$r12,-1428(0xa6c)
1c00bea0:	28a9b086 	ld.w	$r6,$r4,-1428(0xa6c)
1c00bea4:	28a9b0a4 	ld.w	$r4,$r5,-1428(0xa6c)
1c00bea8:	28a9b0a6 	ld.w	$r6,$r5,-1428(0xa6c)
1c00beac:	5c064d4b 	bne	$r10,$r11,1612(0x64c) # 1c00c4f8 <inst_error>
1c00beb0:	14b9420d 	lu12i.w	$r13,379408(0x5ca10)
1c00beb4:	02b401ad 	addi.w	$r13,$r13,-768(0xd00)
1c00beb8:	14001b4c 	lu12i.w	$r12,218(0xda)
1c00bebc:	02a0d18c 	addi.w	$r12,$r12,-1996(0x834)
1c00bec0:	14b9420b 	lu12i.w	$r11,379408(0x5ca10)
1c00bec4:	02b4016b 	addi.w	$r11,$r11,-768(0xd00)
1c00bec8:	2995c18d 	st.w	$r13,$r12,1392(0x570)
1c00becc:	02801184 	addi.w	$r4,$r12,4(0x4)
1c00bed0:	02bff185 	addi.w	$r5,$r12,-4(0xffc)
1c00bed4:	2995c084 	st.w	$r4,$r4,1392(0x570)
1c00bed8:	2995c0a5 	st.w	$r5,$r5,1392(0x570)
1c00bedc:	2895c18a 	ld.w	$r10,$r12,1392(0x570)
1c00bee0:	2895c086 	ld.w	$r6,$r4,1392(0x570)
1c00bee4:	2895c0a4 	ld.w	$r4,$r5,1392(0x570)
1c00bee8:	2895c0a6 	ld.w	$r6,$r5,1392(0x570)
1c00beec:	5c060d4b 	bne	$r10,$r11,1548(0x60c) # 1c00c4f8 <inst_error>
1c00bef0:	140c774d 	lu12i.w	$r13,25530(0x63ba)
1c00bef4:	028001ad 	addi.w	$r13,$r13,0
1c00bef8:	14001a4c 	lu12i.w	$r12,210(0xd2)
1c00befc:	02b1918c 	addi.w	$r12,$r12,-924(0xc64)
1c00bf00:	140c774b 	lu12i.w	$r11,25530(0x63ba)
1c00bf04:	0280016b 	addi.w	$r11,$r11,0
1c00bf08:	2993f18d 	st.w	$r13,$r12,1276(0x4fc)
1c00bf0c:	02801184 	addi.w	$r4,$r12,4(0x4)
1c00bf10:	02bff185 	addi.w	$r5,$r12,-4(0xffc)
1c00bf14:	2993f084 	st.w	$r4,$r4,1276(0x4fc)
1c00bf18:	2993f0a5 	st.w	$r5,$r5,1276(0x4fc)
1c00bf1c:	2893f18a 	ld.w	$r10,$r12,1276(0x4fc)
1c00bf20:	2893f086 	ld.w	$r6,$r4,1276(0x4fc)
1c00bf24:	2893f0a4 	ld.w	$r4,$r5,1276(0x4fc)
1c00bf28:	2893f0a6 	ld.w	$r6,$r5,1276(0x4fc)
1c00bf2c:	5c05cd4b 	bne	$r10,$r11,1484(0x5cc) # 1c00c4f8 <inst_error>
1c00bf30:	15844d2d 	lu12i.w	$r13,-253335(0xc2269)
1c00bf34:	02b3f9ad 	addi.w	$r13,$r13,-770(0xcfe)
1c00bf38:	14001b0c 	lu12i.w	$r12,216(0xd8)
1c00bf3c:	0287a18c 	addi.w	$r12,$r12,488(0x1e8)
1c00bf40:	15844d2b 	lu12i.w	$r11,-253335(0xc2269)
1c00bf44:	02b3f96b 	addi.w	$r11,$r11,-770(0xcfe)
1c00bf48:	2995518d 	st.w	$r13,$r12,1364(0x554)
1c00bf4c:	02801184 	addi.w	$r4,$r12,4(0x4)
1c00bf50:	02bff185 	addi.w	$r5,$r12,-4(0xffc)
1c00bf54:	29955084 	st.w	$r4,$r4,1364(0x554)
1c00bf58:	299550a5 	st.w	$r5,$r5,1364(0x554)
1c00bf5c:	2895518a 	ld.w	$r10,$r12,1364(0x554)
1c00bf60:	28955086 	ld.w	$r6,$r4,1364(0x554)
1c00bf64:	289550a4 	ld.w	$r4,$r5,1364(0x554)
1c00bf68:	289550a6 	ld.w	$r6,$r5,1364(0x554)
1c00bf6c:	5c058d4b 	bne	$r10,$r11,1420(0x58c) # 1c00c4f8 <inst_error>
1c00bf70:	142c228d 	lu12i.w	$r13,90388(0x16114)
1c00bf74:	029131ad 	addi.w	$r13,$r13,1100(0x44c)
1c00bf78:	14001a0c 	lu12i.w	$r12,208(0xd0)
1c00bf7c:	0292118c 	addi.w	$r12,$r12,1156(0x484)
1c00bf80:	142c228b 	lu12i.w	$r11,90388(0x16114)
1c00bf84:	0291316b 	addi.w	$r11,$r11,1100(0x44c)
1c00bf88:	29ba418d 	st.w	$r13,$r12,-368(0xe90)
1c00bf8c:	02801184 	addi.w	$r4,$r12,4(0x4)
1c00bf90:	02bff185 	addi.w	$r5,$r12,-4(0xffc)
1c00bf94:	29ba4084 	st.w	$r4,$r4,-368(0xe90)
1c00bf98:	29ba40a5 	st.w	$r5,$r5,-368(0xe90)
1c00bf9c:	28ba418a 	ld.w	$r10,$r12,-368(0xe90)
1c00bfa0:	28ba4086 	ld.w	$r6,$r4,-368(0xe90)
1c00bfa4:	28ba40a4 	ld.w	$r4,$r5,-368(0xe90)
1c00bfa8:	28ba40a6 	ld.w	$r6,$r5,-368(0xe90)
1c00bfac:	5c054d4b 	bne	$r10,$r11,1356(0x54c) # 1c00c4f8 <inst_error>
1c00bfb0:	146798ed 	lu12i.w	$r13,212167(0x33cc7)
1c00bfb4:	02bca9ad 	addi.w	$r13,$r13,-214(0xf2a)
1c00bfb8:	14001aec 	lu12i.w	$r12,215(0xd7)
1c00bfbc:	0287718c 	addi.w	$r12,$r12,476(0x1dc)
1c00bfc0:	146798eb 	lu12i.w	$r11,212167(0x33cc7)
1c00bfc4:	02bca96b 	addi.w	$r11,$r11,-214(0xf2a)
1c00bfc8:	2988c18d 	st.w	$r13,$r12,560(0x230)
1c00bfcc:	02801184 	addi.w	$r4,$r12,4(0x4)
1c00bfd0:	02bff185 	addi.w	$r5,$r12,-4(0xffc)
1c00bfd4:	2988c084 	st.w	$r4,$r4,560(0x230)
1c00bfd8:	2988c0a5 	st.w	$r5,$r5,560(0x230)
1c00bfdc:	2888c18a 	ld.w	$r10,$r12,560(0x230)
1c00bfe0:	2888c086 	ld.w	$r6,$r4,560(0x230)
1c00bfe4:	2888c0a4 	ld.w	$r4,$r5,560(0x230)
1c00bfe8:	2888c0a6 	ld.w	$r6,$r5,560(0x230)
1c00bfec:	5c050d4b 	bne	$r10,$r11,1292(0x50c) # 1c00c4f8 <inst_error>
1c00bff0:	158568ed 	lu12i.w	$r13,-251065(0xc2b47)
1c00bff4:	02bc85ad 	addi.w	$r13,$r13,-223(0xf21)
1c00bff8:	14001a2c 	lu12i.w	$r12,209(0xd1)
1c00bffc:	028e218c 	addi.w	$r12,$r12,904(0x388)
1c00c000:	158568eb 	lu12i.w	$r11,-251065(0xc2b47)
1c00c004:	02bc856b 	addi.w	$r11,$r11,-223(0xf21)
1c00c008:	2999918d 	st.w	$r13,$r12,1636(0x664)
1c00c00c:	02801184 	addi.w	$r4,$r12,4(0x4)
1c00c010:	02bff185 	addi.w	$r5,$r12,-4(0xffc)
1c00c014:	29999084 	st.w	$r4,$r4,1636(0x664)
1c00c018:	299990a5 	st.w	$r5,$r5,1636(0x664)
1c00c01c:	2899918a 	ld.w	$r10,$r12,1636(0x664)
1c00c020:	28999086 	ld.w	$r6,$r4,1636(0x664)
1c00c024:	289990a4 	ld.w	$r4,$r5,1636(0x664)
1c00c028:	289990a6 	ld.w	$r6,$r5,1636(0x664)
1c00c02c:	5c04cd4b 	bne	$r10,$r11,1228(0x4cc) # 1c00c4f8 <inst_error>
1c00c030:	14c750cd 	lu12i.w	$r13,408198(0x63a86)
1c00c034:	028101ad 	addi.w	$r13,$r13,64(0x40)
1c00c038:	14001a0c 	lu12i.w	$r12,208(0xd0)
1c00c03c:	028aa18c 	addi.w	$r12,$r12,680(0x2a8)
1c00c040:	14c750cb 	lu12i.w	$r11,408198(0x63a86)
1c00c044:	0281016b 	addi.w	$r11,$r11,64(0x40)
1c00c048:	29aec18d 	st.w	$r13,$r12,-1104(0xbb0)
1c00c04c:	02801184 	addi.w	$r4,$r12,4(0x4)
1c00c050:	02bff185 	addi.w	$r5,$r12,-4(0xffc)
1c00c054:	29aec084 	st.w	$r4,$r4,-1104(0xbb0)
1c00c058:	29aec0a5 	st.w	$r5,$r5,-1104(0xbb0)
1c00c05c:	28aec18a 	ld.w	$r10,$r12,-1104(0xbb0)
1c00c060:	28aec086 	ld.w	$r6,$r4,-1104(0xbb0)
1c00c064:	28aec0a4 	ld.w	$r4,$r5,-1104(0xbb0)
1c00c068:	28aec0a6 	ld.w	$r6,$r5,-1104(0xbb0)
1c00c06c:	5c048d4b 	bne	$r10,$r11,1164(0x48c) # 1c00c4f8 <inst_error>
1c00c070:	15c11a8d 	lu12i.w	$r13,-128812(0xe08d4)
1c00c074:	029741ad 	addi.w	$r13,$r13,1488(0x5d0)
1c00c078:	14001a4c 	lu12i.w	$r12,210(0xd2)
1c00c07c:	02b4518c 	addi.w	$r12,$r12,-748(0xd14)
1c00c080:	15c11a8b 	lu12i.w	$r11,-128812(0xe08d4)
1c00c084:	0297416b 	addi.w	$r11,$r11,1488(0x5d0)
1c00c088:	29b6b18d 	st.w	$r13,$r12,-596(0xdac)
1c00c08c:	02801184 	addi.w	$r4,$r12,4(0x4)
1c00c090:	02bff185 	addi.w	$r5,$r12,-4(0xffc)
1c00c094:	29b6b084 	st.w	$r4,$r4,-596(0xdac)
1c00c098:	29b6b0a5 	st.w	$r5,$r5,-596(0xdac)
1c00c09c:	28b6b18a 	ld.w	$r10,$r12,-596(0xdac)
1c00c0a0:	28b6b086 	ld.w	$r6,$r4,-596(0xdac)
1c00c0a4:	28b6b0a4 	ld.w	$r4,$r5,-596(0xdac)
1c00c0a8:	28b6b0a6 	ld.w	$r6,$r5,-596(0xdac)
1c00c0ac:	5c044d4b 	bne	$r10,$r11,1100(0x44c) # 1c00c4f8 <inst_error>
1c00c0b0:	15e7072d 	lu12i.w	$r13,-51143(0xf3839)
1c00c0b4:	028821ad 	addi.w	$r13,$r13,520(0x208)
1c00c0b8:	14001aac 	lu12i.w	$r12,213(0xd5)
1c00c0bc:	028c218c 	addi.w	$r12,$r12,776(0x308)
1c00c0c0:	15e7072b 	lu12i.w	$r11,-51143(0xf3839)
1c00c0c4:	0288216b 	addi.w	$r11,$r11,520(0x208)
1c00c0c8:	2981b18d 	st.w	$r13,$r12,108(0x6c)
1c00c0cc:	02801184 	addi.w	$r4,$r12,4(0x4)
1c00c0d0:	02bff185 	addi.w	$r5,$r12,-4(0xffc)
1c00c0d4:	2981b084 	st.w	$r4,$r4,108(0x6c)
1c00c0d8:	2981b0a5 	st.w	$r5,$r5,108(0x6c)
1c00c0dc:	2881b18a 	ld.w	$r10,$r12,108(0x6c)
1c00c0e0:	2881b086 	ld.w	$r6,$r4,108(0x6c)
1c00c0e4:	2881b0a4 	ld.w	$r4,$r5,108(0x6c)
1c00c0e8:	2881b0a6 	ld.w	$r6,$r5,108(0x6c)
1c00c0ec:	5c040d4b 	bne	$r10,$r11,1036(0x40c) # 1c00c4f8 <inst_error>
1c00c0f0:	1484d20d 	lu12i.w	$r13,272016(0x42690)
1c00c0f4:	02b4e1ad 	addi.w	$r13,$r13,-712(0xd38)
1c00c0f8:	14001a8c 	lu12i.w	$r12,212(0xd4)
1c00c0fc:	02bc018c 	addi.w	$r12,$r12,-256(0xf00)
1c00c100:	1484d20b 	lu12i.w	$r11,272016(0x42690)
1c00c104:	02b4e16b 	addi.w	$r11,$r11,-712(0xd38)
1c00c108:	2983018d 	st.w	$r13,$r12,192(0xc0)
1c00c10c:	02801184 	addi.w	$r4,$r12,4(0x4)
1c00c110:	02bff185 	addi.w	$r5,$r12,-4(0xffc)
1c00c114:	29830084 	st.w	$r4,$r4,192(0xc0)
1c00c118:	298300a5 	st.w	$r5,$r5,192(0xc0)
1c00c11c:	2883018a 	ld.w	$r10,$r12,192(0xc0)
1c00c120:	28830086 	ld.w	$r6,$r4,192(0xc0)
1c00c124:	288300a4 	ld.w	$r4,$r5,192(0xc0)
1c00c128:	288300a6 	ld.w	$r6,$r5,192(0xc0)
1c00c12c:	5c03cd4b 	bne	$r10,$r11,972(0x3cc) # 1c00c4f8 <inst_error>
1c00c130:	142502cd 	lu12i.w	$r13,75798(0x12816)
1c00c134:	028a01ad 	addi.w	$r13,$r13,640(0x280)
1c00c138:	14001a4c 	lu12i.w	$r12,210(0xd2)
1c00c13c:	02ae518c 	addi.w	$r12,$r12,-1132(0xb94)
1c00c140:	142502cb 	lu12i.w	$r11,75798(0x12816)
1c00c144:	028a016b 	addi.w	$r11,$r11,640(0x280)
1c00c148:	29a2818d 	st.w	$r13,$r12,-1888(0x8a0)
1c00c14c:	02801184 	addi.w	$r4,$r12,4(0x4)
1c00c150:	02bff185 	addi.w	$r5,$r12,-4(0xffc)
1c00c154:	29a28084 	st.w	$r4,$r4,-1888(0x8a0)
1c00c158:	29a280a5 	st.w	$r5,$r5,-1888(0x8a0)
1c00c15c:	28a2818a 	ld.w	$r10,$r12,-1888(0x8a0)
1c00c160:	28a28086 	ld.w	$r6,$r4,-1888(0x8a0)
1c00c164:	28a280a4 	ld.w	$r4,$r5,-1888(0x8a0)
1c00c168:	28a280a6 	ld.w	$r6,$r5,-1888(0x8a0)
1c00c16c:	5c038d4b 	bne	$r10,$r11,908(0x38c) # 1c00c4f8 <inst_error>
1c00c170:	14a8096d 	lu12i.w	$r13,344139(0x5404b)
1c00c174:	029259ad 	addi.w	$r13,$r13,1174(0x496)
1c00c178:	14001a2c 	lu12i.w	$r12,209(0xd1)
1c00c17c:	029a618c 	addi.w	$r12,$r12,1688(0x698)
1c00c180:	14a8096b 	lu12i.w	$r11,344139(0x5404b)
1c00c184:	0292596b 	addi.w	$r11,$r11,1174(0x496)
1c00c188:	29ba218d 	st.w	$r13,$r12,-376(0xe88)
1c00c18c:	02801184 	addi.w	$r4,$r12,4(0x4)
1c00c190:	02bff185 	addi.w	$r5,$r12,-4(0xffc)
1c00c194:	29ba2084 	st.w	$r4,$r4,-376(0xe88)
1c00c198:	29ba20a5 	st.w	$r5,$r5,-376(0xe88)
1c00c19c:	28ba218a 	ld.w	$r10,$r12,-376(0xe88)
1c00c1a0:	28ba2086 	ld.w	$r6,$r4,-376(0xe88)
1c00c1a4:	28ba20a4 	ld.w	$r4,$r5,-376(0xe88)
1c00c1a8:	28ba20a6 	ld.w	$r6,$r5,-376(0xe88)
1c00c1ac:	5c034d4b 	bne	$r10,$r11,844(0x34c) # 1c00c4f8 <inst_error>
1c00c1b0:	15e2384d 	lu12i.w	$r13,-60990(0xf11c2)
1c00c1b4:	02b009ad 	addi.w	$r13,$r13,-1022(0xc02)
1c00c1b8:	14001a4c 	lu12i.w	$r12,210(0xd2)
1c00c1bc:	02b7818c 	addi.w	$r12,$r12,-544(0xde0)
1c00c1c0:	15e2384b 	lu12i.w	$r11,-60990(0xf11c2)
1c00c1c4:	02b0096b 	addi.w	$r11,$r11,-1022(0xc02)
1c00c1c8:	29af218d 	st.w	$r13,$r12,-1080(0xbc8)
1c00c1cc:	02801184 	addi.w	$r4,$r12,4(0x4)
1c00c1d0:	02bff185 	addi.w	$r5,$r12,-4(0xffc)
1c00c1d4:	29af2084 	st.w	$r4,$r4,-1080(0xbc8)
1c00c1d8:	29af20a5 	st.w	$r5,$r5,-1080(0xbc8)
1c00c1dc:	28af218a 	ld.w	$r10,$r12,-1080(0xbc8)
1c00c1e0:	28af2086 	ld.w	$r6,$r4,-1080(0xbc8)
1c00c1e4:	28af20a4 	ld.w	$r4,$r5,-1080(0xbc8)
1c00c1e8:	28af20a6 	ld.w	$r6,$r5,-1080(0xbc8)
1c00c1ec:	5c030d4b 	bne	$r10,$r11,780(0x30c) # 1c00c4f8 <inst_error>
1c00c1f0:	1462122d 	lu12i.w	$r13,200849(0x31091)
1c00c1f4:	02b689ad 	addi.w	$r13,$r13,-606(0xda2)
1c00c1f8:	14001b2c 	lu12i.w	$r12,217(0xd9)
1c00c1fc:	0290018c 	addi.w	$r12,$r12,1024(0x400)
1c00c200:	1462122b 	lu12i.w	$r11,200849(0x31091)
1c00c204:	02b6896b 	addi.w	$r11,$r11,-606(0xda2)
1c00c208:	2985418d 	st.w	$r13,$r12,336(0x150)
1c00c20c:	02801184 	addi.w	$r4,$r12,4(0x4)
1c00c210:	02bff185 	addi.w	$r5,$r12,-4(0xffc)
1c00c214:	29854084 	st.w	$r4,$r4,336(0x150)
1c00c218:	298540a5 	st.w	$r5,$r5,336(0x150)
1c00c21c:	2885418a 	ld.w	$r10,$r12,336(0x150)
1c00c220:	28854086 	ld.w	$r6,$r4,336(0x150)
1c00c224:	288540a4 	ld.w	$r4,$r5,336(0x150)
1c00c228:	288540a6 	ld.w	$r6,$r5,336(0x150)
1c00c22c:	5c02cd4b 	bne	$r10,$r11,716(0x2cc) # 1c00c4f8 <inst_error>
1c00c230:	1529014d 	lu12i.w	$r13,-440310(0x9480a)
1c00c234:	02ad41ad 	addi.w	$r13,$r13,-1200(0xb50)
1c00c238:	14001a4c 	lu12i.w	$r12,210(0xd2)
1c00c23c:	029f218c 	addi.w	$r12,$r12,1992(0x7c8)
1c00c240:	1529014b 	lu12i.w	$r11,-440310(0x9480a)
1c00c244:	02ad416b 	addi.w	$r11,$r11,-1200(0xb50)
1c00c248:	298b018d 	st.w	$r13,$r12,704(0x2c0)
1c00c24c:	02801184 	addi.w	$r4,$r12,4(0x4)
1c00c250:	02bff185 	addi.w	$r5,$r12,-4(0xffc)
1c00c254:	298b0084 	st.w	$r4,$r4,704(0x2c0)
1c00c258:	298b00a5 	st.w	$r5,$r5,704(0x2c0)
1c00c25c:	288b018a 	ld.w	$r10,$r12,704(0x2c0)
1c00c260:	288b0086 	ld.w	$r6,$r4,704(0x2c0)
1c00c264:	288b00a4 	ld.w	$r4,$r5,704(0x2c0)
1c00c268:	288b00a6 	ld.w	$r6,$r5,704(0x2c0)
1c00c26c:	5c028d4b 	bne	$r10,$r11,652(0x28c) # 1c00c4f8 <inst_error>
1c00c270:	15fe3dad 	lu12i.w	$r13,-3603(0xff1ed)
1c00c274:	028df1ad 	addi.w	$r13,$r13,892(0x37c)
1c00c278:	14001a2c 	lu12i.w	$r12,209(0xd1)
1c00c27c:	0292218c 	addi.w	$r12,$r12,1160(0x488)
1c00c280:	15fe3dab 	lu12i.w	$r11,-3603(0xff1ed)
1c00c284:	028df16b 	addi.w	$r11,$r11,892(0x37c)
1c00c288:	29b5918d 	st.w	$r13,$r12,-668(0xd64)
1c00c28c:	02801184 	addi.w	$r4,$r12,4(0x4)
1c00c290:	02bff185 	addi.w	$r5,$r12,-4(0xffc)
1c00c294:	29b59084 	st.w	$r4,$r4,-668(0xd64)
1c00c298:	29b590a5 	st.w	$r5,$r5,-668(0xd64)
1c00c29c:	28b5918a 	ld.w	$r10,$r12,-668(0xd64)
1c00c2a0:	28b59086 	ld.w	$r6,$r4,-668(0xd64)
1c00c2a4:	28b590a4 	ld.w	$r4,$r5,-668(0xd64)
1c00c2a8:	28b590a6 	ld.w	$r6,$r5,-668(0xd64)
1c00c2ac:	5c024d4b 	bne	$r10,$r11,588(0x24c) # 1c00c4f8 <inst_error>
1c00c2b0:	14bc47ad 	lu12i.w	$r13,385597(0x5e23d)
1c00c2b4:	028801ad 	addi.w	$r13,$r13,512(0x200)
1c00c2b8:	14001b4c 	lu12i.w	$r12,218(0xda)
1c00c2bc:	0281d18c 	addi.w	$r12,$r12,116(0x74)
1c00c2c0:	14bc47ab 	lu12i.w	$r11,385597(0x5e23d)
1c00c2c4:	0288016b 	addi.w	$r11,$r11,512(0x200)
1c00c2c8:	2989618d 	st.w	$r13,$r12,600(0x258)
1c00c2cc:	02801184 	addi.w	$r4,$r12,4(0x4)
1c00c2d0:	02bff185 	addi.w	$r5,$r12,-4(0xffc)
1c00c2d4:	29896084 	st.w	$r4,$r4,600(0x258)
1c00c2d8:	298960a5 	st.w	$r5,$r5,600(0x258)
1c00c2dc:	2889618a 	ld.w	$r10,$r12,600(0x258)
1c00c2e0:	28896086 	ld.w	$r6,$r4,600(0x258)
1c00c2e4:	288960a4 	ld.w	$r4,$r5,600(0x258)
1c00c2e8:	288960a6 	ld.w	$r6,$r5,600(0x258)
1c00c2ec:	5c020d4b 	bne	$r10,$r11,524(0x20c) # 1c00c4f8 <inst_error>
1c00c2f0:	14d1062d 	lu12i.w	$r13,428081(0x68831)
1c00c2f4:	028921ad 	addi.w	$r13,$r13,584(0x248)
1c00c2f8:	14001acc 	lu12i.w	$r12,214(0xd6)
1c00c2fc:	028fb18c 	addi.w	$r12,$r12,1004(0x3ec)
1c00c300:	14d1062b 	lu12i.w	$r11,428081(0x68831)
1c00c304:	0289216b 	addi.w	$r11,$r11,584(0x248)
1c00c308:	2995018d 	st.w	$r13,$r12,1344(0x540)
1c00c30c:	02801184 	addi.w	$r4,$r12,4(0x4)
1c00c310:	02bff185 	addi.w	$r5,$r12,-4(0xffc)
1c00c314:	29950084 	st.w	$r4,$r4,1344(0x540)
1c00c318:	299500a5 	st.w	$r5,$r5,1344(0x540)
1c00c31c:	2895018a 	ld.w	$r10,$r12,1344(0x540)
1c00c320:	28950086 	ld.w	$r6,$r4,1344(0x540)
1c00c324:	289500a4 	ld.w	$r4,$r5,1344(0x540)
1c00c328:	289500a6 	ld.w	$r6,$r5,1344(0x540)
1c00c32c:	5c01cd4b 	bne	$r10,$r11,460(0x1cc) # 1c00c4f8 <inst_error>
1c00c330:	148ab1ed 	lu12i.w	$r13,284047(0x4558f)
1c00c334:	02a441ad 	addi.w	$r13,$r13,-1776(0x910)
1c00c338:	14001a2c 	lu12i.w	$r12,209(0xd1)
1c00c33c:	02b3018c 	addi.w	$r12,$r12,-832(0xcc0)
1c00c340:	148ab1eb 	lu12i.w	$r11,284047(0x4558f)
1c00c344:	02a4416b 	addi.w	$r11,$r11,-1776(0x910)
1c00c348:	298e318d 	st.w	$r13,$r12,908(0x38c)
1c00c34c:	02801184 	addi.w	$r4,$r12,4(0x4)
1c00c350:	02bff185 	addi.w	$r5,$r12,-4(0xffc)
1c00c354:	298e3084 	st.w	$r4,$r4,908(0x38c)
1c00c358:	298e30a5 	st.w	$r5,$r5,908(0x38c)
1c00c35c:	288e318a 	ld.w	$r10,$r12,908(0x38c)
1c00c360:	288e3086 	ld.w	$r6,$r4,908(0x38c)
1c00c364:	288e30a4 	ld.w	$r4,$r5,908(0x38c)
1c00c368:	288e30a6 	ld.w	$r6,$r5,908(0x38c)
1c00c36c:	5c018d4b 	bne	$r10,$r11,396(0x18c) # 1c00c4f8 <inst_error>
1c00c370:	1593064d 	lu12i.w	$r13,-223182(0xc9832)
1c00c374:	029ec1ad 	addi.w	$r13,$r13,1968(0x7b0)
1c00c378:	14001a0c 	lu12i.w	$r12,208(0xd0)
1c00c37c:	0293818c 	addi.w	$r12,$r12,1248(0x4e0)
1c00c380:	1593064b 	lu12i.w	$r11,-223182(0xc9832)
1c00c384:	029ec16b 	addi.w	$r11,$r11,1968(0x7b0)
1c00c388:	29a8218d 	st.w	$r13,$r12,-1528(0xa08)
1c00c38c:	02801184 	addi.w	$r4,$r12,4(0x4)
1c00c390:	02bff185 	addi.w	$r5,$r12,-4(0xffc)
1c00c394:	29a82084 	st.w	$r4,$r4,-1528(0xa08)
1c00c398:	29a820a5 	st.w	$r5,$r5,-1528(0xa08)
1c00c39c:	28a8218a 	ld.w	$r10,$r12,-1528(0xa08)
1c00c3a0:	28a82086 	ld.w	$r6,$r4,-1528(0xa08)
1c00c3a4:	28a820a4 	ld.w	$r4,$r5,-1528(0xa08)
1c00c3a8:	28a820a6 	ld.w	$r6,$r5,-1528(0xa08)
1c00c3ac:	5c014d4b 	bne	$r10,$r11,332(0x14c) # 1c00c4f8 <inst_error>
1c00c3b0:	15fd45ed 	lu12i.w	$r13,-5585(0xfea2f)
1c00c3b4:	0286b5ad 	addi.w	$r13,$r13,429(0x1ad)
1c00c3b8:	14001a4c 	lu12i.w	$r12,210(0xd2)
1c00c3bc:	02ada18c 	addi.w	$r12,$r12,-1176(0xb68)
1c00c3c0:	15fd45eb 	lu12i.w	$r11,-5585(0xfea2f)
1c00c3c4:	0286b56b 	addi.w	$r11,$r11,429(0x1ad)
1c00c3c8:	29abb18d 	st.w	$r13,$r12,-1300(0xaec)
1c00c3cc:	02801184 	addi.w	$r4,$r12,4(0x4)
1c00c3d0:	02bff185 	addi.w	$r5,$r12,-4(0xffc)
1c00c3d4:	29abb084 	st.w	$r4,$r4,-1300(0xaec)
1c00c3d8:	29abb0a5 	st.w	$r5,$r5,-1300(0xaec)
1c00c3dc:	28abb18a 	ld.w	$r10,$r12,-1300(0xaec)
1c00c3e0:	28abb086 	ld.w	$r6,$r4,-1300(0xaec)
1c00c3e4:	28abb0a4 	ld.w	$r4,$r5,-1300(0xaec)
1c00c3e8:	28abb0a6 	ld.w	$r6,$r5,-1300(0xaec)
1c00c3ec:	5c010d4b 	bne	$r10,$r11,268(0x10c) # 1c00c4f8 <inst_error>
1c00c3f0:	1558a56d 	lu12i.w	$r13,-342741(0xac52b)
1c00c3f4:	028d51ad 	addi.w	$r13,$r13,852(0x354)
1c00c3f8:	14001a0c 	lu12i.w	$r12,208(0xd0)
1c00c3fc:	0280018c 	addi.w	$r12,$r12,0
1c00c400:	1558a56b 	lu12i.w	$r11,-342741(0xac52b)
1c00c404:	028d516b 	addi.w	$r11,$r11,852(0x354)
1c00c408:	29b3718d 	st.w	$r13,$r12,-804(0xcdc)
1c00c40c:	02801184 	addi.w	$r4,$r12,4(0x4)
1c00c410:	02bff185 	addi.w	$r5,$r12,-4(0xffc)
1c00c414:	29b37084 	st.w	$r4,$r4,-804(0xcdc)
1c00c418:	29b370a5 	st.w	$r5,$r5,-804(0xcdc)
1c00c41c:	28b3718a 	ld.w	$r10,$r12,-804(0xcdc)
1c00c420:	28b37086 	ld.w	$r6,$r4,-804(0xcdc)
1c00c424:	28b370a4 	ld.w	$r4,$r5,-804(0xcdc)
1c00c428:	28b370a6 	ld.w	$r6,$r5,-804(0xcdc)
1c00c42c:	5c00cd4b 	bne	$r10,$r11,204(0xcc) # 1c00c4f8 <inst_error>
1c00c430:	149ec26d 	lu12i.w	$r13,325139(0x4f613)
1c00c434:	02b6d1ad 	addi.w	$r13,$r13,-588(0xdb4)
1c00c438:	14001a0c 	lu12i.w	$r12,208(0xd0)
1c00c43c:	0280018c 	addi.w	$r12,$r12,0
1c00c440:	149ec26b 	lu12i.w	$r11,325139(0x4f613)
1c00c444:	02b6d16b 	addi.w	$r11,$r11,-588(0xdb4)
1c00c448:	2991d18d 	st.w	$r13,$r12,1140(0x474)
1c00c44c:	02801184 	addi.w	$r4,$r12,4(0x4)
1c00c450:	02bff185 	addi.w	$r5,$r12,-4(0xffc)
1c00c454:	2991d084 	st.w	$r4,$r4,1140(0x474)
1c00c458:	2991d0a5 	st.w	$r5,$r5,1140(0x474)
1c00c45c:	2891d18a 	ld.w	$r10,$r12,1140(0x474)
1c00c460:	2891d086 	ld.w	$r6,$r4,1140(0x474)
1c00c464:	2891d0a4 	ld.w	$r4,$r5,1140(0x474)
1c00c468:	2891d0a6 	ld.w	$r6,$r5,1140(0x474)
1c00c46c:	5c008d4b 	bne	$r10,$r11,140(0x8c) # 1c00c4f8 <inst_error>
1c00c470:	1503c94d 	lu12i.w	$r13,-516534(0x81e4a)
1c00c474:	0294b1ad 	addi.w	$r13,$r13,1324(0x52c)
1c00c478:	14001a0c 	lu12i.w	$r12,208(0xd0)
1c00c47c:	0280018c 	addi.w	$r12,$r12,0
1c00c480:	1503c94b 	lu12i.w	$r11,-516534(0x81e4a)
1c00c484:	0294b16b 	addi.w	$r11,$r11,1324(0x52c)
1c00c488:	298dc18d 	st.w	$r13,$r12,880(0x370)
1c00c48c:	02801184 	addi.w	$r4,$r12,4(0x4)
1c00c490:	02bff185 	addi.w	$r5,$r12,-4(0xffc)
1c00c494:	298dc084 	st.w	$r4,$r4,880(0x370)
1c00c498:	298dc0a5 	st.w	$r5,$r5,880(0x370)
1c00c49c:	288dc18a 	ld.w	$r10,$r12,880(0x370)
1c00c4a0:	288dc086 	ld.w	$r6,$r4,880(0x370)
1c00c4a4:	288dc0a4 	ld.w	$r4,$r5,880(0x370)
1c00c4a8:	288dc0a6 	ld.w	$r6,$r5,880(0x370)
1c00c4ac:	5c004d4b 	bne	$r10,$r11,76(0x4c) # 1c00c4f8 <inst_error>
1c00c4b0:	14d6c2ad 	lu12i.w	$r13,439829(0x6b615)
1c00c4b4:	028951ad 	addi.w	$r13,$r13,596(0x254)
1c00c4b8:	14001a0c 	lu12i.w	$r12,208(0xd0)
1c00c4bc:	0280018c 	addi.w	$r12,$r12,0
1c00c4c0:	14d6c2ab 	lu12i.w	$r11,439829(0x6b615)
1c00c4c4:	0289516b 	addi.w	$r11,$r11,596(0x254)
1c00c4c8:	299e718d 	st.w	$r13,$r12,1948(0x79c)
1c00c4cc:	02801184 	addi.w	$r4,$r12,4(0x4)
1c00c4d0:	02bff185 	addi.w	$r5,$r12,-4(0xffc)
1c00c4d4:	299e7084 	st.w	$r4,$r4,1948(0x79c)
1c00c4d8:	299e70a5 	st.w	$r5,$r5,1948(0x79c)
1c00c4dc:	289e718a 	ld.w	$r10,$r12,1948(0x79c)
1c00c4e0:	289e7086 	ld.w	$r6,$r4,1948(0x79c)
1c00c4e4:	289e70a4 	ld.w	$r4,$r5,1948(0x79c)
1c00c4e8:	289e70a6 	ld.w	$r6,$r5,1948(0x79c)
1c00c4ec:	5c000d4b 	bne	$r10,$r11,12(0xc) # 1c00c4f8 <inst_error>
1c00c4f0:	5c000b20 	bne	$r25,$r0,8(0x8) # 1c00c4f8 <inst_error>
1c00c4f4:	0280075a 	addi.w	$r26,$r26,1(0x1)

1c00c4f8 <inst_error>:
1c00c4f8:	0040e2ed 	slli.w	$r13,$r23,0x18
1c00c4fc:	001569ac 	or	$r12,$r13,$r26
1c00c500:	2980030c 	st.w	$r12,$r24,0
1c00c504:	4c000020 	jirl	$r0,$r1,0

Disassembly of section .eh_frame:

1c00c508 <.eh_frame>:
1c00c508:	00000010 	0x00000010
1c00c50c:	00000000 	0x00000000
1c00c510:	00527a01 	0x00527a01
1c00c514:	01017c01 	fadd.d	$f1,$f0,$f31
1c00c518:	00030d0b 	0x00030d0b
1c00c51c:	00000010 	0x00000010
1c00c520:	00000018 	0x00000018
1c00c524:	1c000308 	pcaddu12i	$r8,24(0x18)
1c00c528:	00000018 	0x00000018
1c00c52c:	00000000 	0x00000000
1c00c530:	00000010 	0x00000010
1c00c534:	0000002c 	0x0000002c
1c00c538:	1c000320 	pcaddu12i	$r0,25(0x19)
1c00c53c:	00000030 	0x00000030
1c00c540:	00000000 	0x00000000
1c00c544:	00000010 	0x00000010
1c00c548:	00000040 	0x00000040
1c00c54c:	1c000350 	pcaddu12i	$r16,26(0x1a)
1c00c550:	0000004c 	0x0000004c
1c00c554:	00000000 	0x00000000
1c00c558:	00000010 	0x00000010
1c00c55c:	00000054 	0x00000054
1c00c560:	1c0003a0 	pcaddu12i	$r0,29(0x1d)
1c00c564:	00000054 	0x00000054
1c00c568:	00000000 	0x00000000
1c00c56c:	00000010 	0x00000010
1c00c570:	00000068 	0x00000068
1c00c574:	1c0003f8 	pcaddu12i	$r24,31(0x1f)
1c00c578:	000003c4 	0x000003c4
1c00c57c:	00000000 	0x00000000
1c00c580:	00000010 	0x00000010
1c00c584:	0000007c 	0x0000007c
1c00c588:	1c0007c0 	pcaddu12i	$r0,62(0x3e)
1c00c58c:	00000700 	0x00000700
1c00c590:	00000000 	0x00000000
1c00c594:	00000010 	0x00000010
1c00c598:	00000090 	0x00000090
1c00c59c:	1c000ec0 	pcaddu12i	$r0,118(0x76)
1c00c5a0:	00001600 	clz.w	$r0,$r16
1c00c5a4:	00000000 	0x00000000
1c00c5a8:	00000010 	0x00000010
1c00c5ac:	000000a4 	0x000000a4
1c00c5b0:	1c0024c0 	pcaddu12i	$r0,294(0x126)
1c00c5b4:	00000680 	0x00000680
1c00c5b8:	00000000 	0x00000000
1c00c5bc:	00000010 	0x00000010
1c00c5c0:	000000b8 	0x000000b8
1c00c5c4:	1c002b40 	pcaddu12i	$r0,346(0x15a)
1c00c5c8:	00000b00 	0x00000b00
1c00c5cc:	00000000 	0x00000000
1c00c5d0:	00000010 	0x00000010
1c00c5d4:	000000cc 	0x000000cc
1c00c5d8:	1c003640 	pcaddu12i	$r0,434(0x1b2)
1c00c5dc:	00000e94 	0x00000e94
1c00c5e0:	00000000 	0x00000000
1c00c5e4:	00000010 	0x00000010
1c00c5e8:	000000e0 	0x000000e0
1c00c5ec:	1c0044d8 	pcaddu12i	$r24,550(0x226)
1c00c5f0:	00000720 	0x00000720
1c00c5f4:	00000000 	0x00000000
1c00c5f8:	00000010 	0x00000010
1c00c5fc:	000000f4 	0x000000f4
1c00c600:	1c004bf8 	pcaddu12i	$r24,607(0x25f)
1c00c604:	000003c8 	0x000003c8
1c00c608:	00000000 	0x00000000
1c00c60c:	00000010 	0x00000010
1c00c610:	00000108 	0x00000108
1c00c614:	1c004fc0 	pcaddu12i	$r0,638(0x27e)
1c00c618:	00000d40 	0x00000d40
1c00c61c:	00000000 	0x00000000
1c00c620:	00000010 	0x00000010
1c00c624:	0000011c 	0x0000011c
1c00c628:	1c005d00 	pcaddu12i	$r0,744(0x2e8)
1c00c62c:	000009a0 	0x000009a0
1c00c630:	00000000 	0x00000000
1c00c634:	00000010 	0x00000010
1c00c638:	00000130 	0x00000130
1c00c63c:	1c0066a0 	pcaddu12i	$r0,821(0x335)
1c00c640:	000005c0 	0x000005c0
1c00c644:	00000000 	0x00000000
1c00c648:	00000010 	0x00000010
1c00c64c:	00000144 	0x00000144
1c00c650:	1c006c60 	pcaddu12i	$r0,867(0x363)
1c00c654:	00000668 	0x00000668
1c00c658:	00000000 	0x00000000
1c00c65c:	00000010 	0x00000010
1c00c660:	00000158 	0x00000158
1c00c664:	1c0072c8 	pcaddu12i	$r8,918(0x396)
1c00c668:	000003c8 	0x000003c8
1c00c66c:	00000000 	0x00000000
1c00c670:	00000010 	0x00000010
1c00c674:	0000016c 	0x0000016c
1c00c678:	1c007690 	pcaddu12i	$r16,948(0x3b4)
1c00c67c:	00000d00 	0x00000d00
1c00c680:	00000000 	0x00000000
1c00c684:	00000010 	0x00000010
1c00c688:	00000180 	0x00000180
1c00c68c:	1c008390 	pcaddu12i	$r16,1052(0x41c)
1c00c690:	000001a0 	0x000001a0
1c00c694:	00000000 	0x00000000
1c00c698:	00000010 	0x00000010
1c00c69c:	00000194 	0x00000194
1c00c6a0:	1c008530 	pcaddu12i	$r16,1065(0x429)
1c00c6a4:	00000b80 	0x00000b80
1c00c6a8:	00000000 	0x00000000
1c00c6ac:	00000010 	0x00000010
1c00c6b0:	000001a8 	0x000001a8
1c00c6b4:	1c0090b0 	pcaddu12i	$r16,1157(0x485)
1c00c6b8:	000005a0 	0x000005a0
1c00c6bc:	00000000 	0x00000000
1c00c6c0:	00000010 	0x00000010
1c00c6c4:	000001bc 	0x000001bc
1c00c6c8:	1c009650 	pcaddu12i	$r16,1202(0x4b2)
1c00c6cc:	00000650 	0x00000650
1c00c6d0:	00000000 	0x00000000
1c00c6d4:	00000010 	0x00000010
1c00c6d8:	000001d0 	0x000001d0
1c00c6dc:	1c009ca0 	pcaddu12i	$r0,1253(0x4e5)
1c00c6e0:	000003f0 	0x000003f0
1c00c6e4:	00000000 	0x00000000
1c00c6e8:	00000010 	0x00000010
1c00c6ec:	000001e4 	0x000001e4
1c00c6f0:	1c00a090 	pcaddu12i	$r16,1284(0x504)
1c00c6f4:	00001b58 	cto.w	$r24,$r26
1c00c6f8:	00000000 	0x00000000
1c00c6fc:	00000010 	0x00000010
1c00c700:	000001f8 	0x000001f8
1c00c704:	1c00bbe8 	pcaddu12i	$r8,1503(0x5df)
1c00c708:	00000920 	0x00000920
1c00c70c:	00000000 	0x00000000
